Archive member included to satisfy reference by file (symbol)

c:/program files (x86)/atmel/studio/7.0/toolchain/arm/arm-gnu-toolchain/bin/../lib/gcc/arm-none-eabi/6.3.1/../../../../arm-none-eabi/lib/thumb/v7e-m\libc.a(lib_a-exit.o)
                              c:/program files (x86)/atmel/studio/7.0/toolchain/arm/arm-gnu-toolchain/bin/../lib/gcc/arm-none-eabi/6.3.1/../../../../arm-none-eabi/lib/thumb/v7e-m/crt0.o (exit)
c:/program files (x86)/atmel/studio/7.0/toolchain/arm/arm-gnu-toolchain/bin/../lib/gcc/arm-none-eabi/6.3.1/../../../../arm-none-eabi/lib/thumb/v7e-m\libc.a(lib_a-impure.o)
                              c:/program files (x86)/atmel/studio/7.0/toolchain/arm/arm-gnu-toolchain/bin/../lib/gcc/arm-none-eabi/6.3.1/../../../../arm-none-eabi/lib/thumb/v7e-m\libc.a(lib_a-exit.o) (_global_impure_ptr)
c:/program files (x86)/atmel/studio/7.0/toolchain/arm/arm-gnu-toolchain/bin/../lib/gcc/arm-none-eabi/6.3.1/../../../../arm-none-eabi/lib/thumb/v7e-m\libc.a(lib_a-init.o)
                              c:/program files (x86)/atmel/studio/7.0/toolchain/arm/arm-gnu-toolchain/bin/../lib/gcc/arm-none-eabi/6.3.1/../../../../arm-none-eabi/lib/thumb/v7e-m/crt0.o (__libc_init_array)
c:/program files (x86)/atmel/studio/7.0/toolchain/arm/arm-gnu-toolchain/bin/../lib/gcc/arm-none-eabi/6.3.1/../../../../arm-none-eabi/lib/thumb/v7e-m\libc.a(lib_a-iprintf.o)
                              src/inv/protocol_functions.o (iprintf)
c:/program files (x86)/atmel/studio/7.0/toolchain/arm/arm-gnu-toolchain/bin/../lib/gcc/arm-none-eabi/6.3.1/../../../../arm-none-eabi/lib/thumb/v7e-m\libc.a(lib_a-memcpy.o)
                              src/ASF/thirdparty/freertos/freertos-8.0.1/Source/queue.o (memcpy)
c:/program files (x86)/atmel/studio/7.0/toolchain/arm/arm-gnu-toolchain/bin/../lib/gcc/arm-none-eabi/6.3.1/../../../../arm-none-eabi/lib/thumb/v7e-m\libc.a(lib_a-memset.o)
                              c:/program files (x86)/atmel/studio/7.0/toolchain/arm/arm-gnu-toolchain/bin/../lib/gcc/arm-none-eabi/6.3.1/../../../../arm-none-eabi/lib/thumb/v7e-m/crt0.o (memset)
c:/program files (x86)/atmel/studio/7.0/toolchain/arm/arm-gnu-toolchain/bin/../lib/gcc/arm-none-eabi/6.3.1/../../../../arm-none-eabi/lib/thumb/v7e-m\libc.a(lib_a-setbuf.o)
                              src/inv/inv_uart.o (setbuf)
c:/program files (x86)/atmel/studio/7.0/toolchain/arm/arm-gnu-toolchain/bin/../lib/gcc/arm-none-eabi/6.3.1/../../../../arm-none-eabi/lib/thumb/v7e-m\libc.a(lib_a-setvbuf.o)
                              c:/program files (x86)/atmel/studio/7.0/toolchain/arm/arm-gnu-toolchain/bin/../lib/gcc/arm-none-eabi/6.3.1/../../../../arm-none-eabi/lib/thumb/v7e-m\libc.a(lib_a-setbuf.o) (setvbuf)
c:/program files (x86)/atmel/studio/7.0/toolchain/arm/arm-gnu-toolchain/bin/../lib/gcc/arm-none-eabi/6.3.1/../../../../arm-none-eabi/lib/thumb/v7e-m\libc.a(lib_a-vfiprintf.o)
                              c:/program files (x86)/atmel/studio/7.0/toolchain/arm/arm-gnu-toolchain/bin/../lib/gcc/arm-none-eabi/6.3.1/../../../../arm-none-eabi/lib/thumb/v7e-m\libc.a(lib_a-iprintf.o) (_vfiprintf_r)
c:/program files (x86)/atmel/studio/7.0/toolchain/arm/arm-gnu-toolchain/bin/../lib/gcc/arm-none-eabi/6.3.1/../../../../arm-none-eabi/lib/thumb/v7e-m\libc.a(lib_a-wsetup.o)
                              c:/program files (x86)/atmel/studio/7.0/toolchain/arm/arm-gnu-toolchain/bin/../lib/gcc/arm-none-eabi/6.3.1/../../../../arm-none-eabi/lib/thumb/v7e-m\libc.a(lib_a-vfiprintf.o) (__swsetup_r)
c:/program files (x86)/atmel/studio/7.0/toolchain/arm/arm-gnu-toolchain/bin/../lib/gcc/arm-none-eabi/6.3.1/../../../../arm-none-eabi/lib/thumb/v7e-m\libc.a(lib_a-__call_atexit.o)
                              c:/program files (x86)/atmel/studio/7.0/toolchain/arm/arm-gnu-toolchain/bin/../lib/gcc/arm-none-eabi/6.3.1/../../../../arm-none-eabi/lib/thumb/v7e-m\libc.a(lib_a-exit.o) (__call_exitprocs)
c:/program files (x86)/atmel/studio/7.0/toolchain/arm/arm-gnu-toolchain/bin/../lib/gcc/arm-none-eabi/6.3.1/../../../../arm-none-eabi/lib/thumb/v7e-m\libc.a(lib_a-atexit.o)
                              c:/program files (x86)/atmel/studio/7.0/toolchain/arm/arm-gnu-toolchain/bin/../lib/gcc/arm-none-eabi/6.3.1/../../../../arm-none-eabi/lib/thumb/v7e-m\libc.a(lib_a-__call_atexit.o) (atexit)
c:/program files (x86)/atmel/studio/7.0/toolchain/arm/arm-gnu-toolchain/bin/../lib/gcc/arm-none-eabi/6.3.1/../../../../arm-none-eabi/lib/thumb/v7e-m\libc.a(lib_a-fflush.o)
                              c:/program files (x86)/atmel/studio/7.0/toolchain/arm/arm-gnu-toolchain/bin/../lib/gcc/arm-none-eabi/6.3.1/../../../../arm-none-eabi/lib/thumb/v7e-m\libc.a(lib_a-setvbuf.o) (_fflush_r)
c:/program files (x86)/atmel/studio/7.0/toolchain/arm/arm-gnu-toolchain/bin/../lib/gcc/arm-none-eabi/6.3.1/../../../../arm-none-eabi/lib/thumb/v7e-m\libc.a(lib_a-findfp.o)
                              c:/program files (x86)/atmel/studio/7.0/toolchain/arm/arm-gnu-toolchain/bin/../lib/gcc/arm-none-eabi/6.3.1/../../../../arm-none-eabi/lib/thumb/v7e-m\libc.a(lib_a-setvbuf.o) (__sinit)
c:/program files (x86)/atmel/studio/7.0/toolchain/arm/arm-gnu-toolchain/bin/../lib/gcc/arm-none-eabi/6.3.1/../../../../arm-none-eabi/lib/thumb/v7e-m\libc.a(lib_a-fini.o)
                              c:/program files (x86)/atmel/studio/7.0/toolchain/arm/arm-gnu-toolchain/bin/../lib/gcc/arm-none-eabi/6.3.1/../../../../arm-none-eabi/lib/thumb/v7e-m\libc.a(lib_a-__call_atexit.o) (__libc_fini_array)
c:/program files (x86)/atmel/studio/7.0/toolchain/arm/arm-gnu-toolchain/bin/../lib/gcc/arm-none-eabi/6.3.1/../../../../arm-none-eabi/lib/thumb/v7e-m\libc.a(lib_a-fputwc.o)
                              c:/program files (x86)/atmel/studio/7.0/toolchain/arm/arm-gnu-toolchain/bin/../lib/gcc/arm-none-eabi/6.3.1/../../../../arm-none-eabi/lib/thumb/v7e-m\libc.a(lib_a-vfiprintf.o) (_fputwc_r)
c:/program files (x86)/atmel/studio/7.0/toolchain/arm/arm-gnu-toolchain/bin/../lib/gcc/arm-none-eabi/6.3.1/../../../../arm-none-eabi/lib/thumb/v7e-m\libc.a(lib_a-freer.o)
                              c:/program files (x86)/atmel/studio/7.0/toolchain/arm/arm-gnu-toolchain/bin/../lib/gcc/arm-none-eabi/6.3.1/../../../../arm-none-eabi/lib/thumb/v7e-m\libc.a(lib_a-setvbuf.o) (_free_r)
c:/program files (x86)/atmel/studio/7.0/toolchain/arm/arm-gnu-toolchain/bin/../lib/gcc/arm-none-eabi/6.3.1/../../../../arm-none-eabi/lib/thumb/v7e-m\libc.a(lib_a-fvwrite.o)
                              c:/program files (x86)/atmel/studio/7.0/toolchain/arm/arm-gnu-toolchain/bin/../lib/gcc/arm-none-eabi/6.3.1/../../../../arm-none-eabi/lib/thumb/v7e-m\libc.a(lib_a-vfiprintf.o) (__sfvwrite_r)
c:/program files (x86)/atmel/studio/7.0/toolchain/arm/arm-gnu-toolchain/bin/../lib/gcc/arm-none-eabi/6.3.1/../../../../arm-none-eabi/lib/thumb/v7e-m\libc.a(lib_a-fwalk.o)
                              c:/program files (x86)/atmel/studio/7.0/toolchain/arm/arm-gnu-toolchain/bin/../lib/gcc/arm-none-eabi/6.3.1/../../../../arm-none-eabi/lib/thumb/v7e-m\libc.a(lib_a-findfp.o) (_fwalk)
c:/program files (x86)/atmel/studio/7.0/toolchain/arm/arm-gnu-toolchain/bin/../lib/gcc/arm-none-eabi/6.3.1/../../../../arm-none-eabi/lib/thumb/v7e-m\libc.a(lib_a-locale.o)
                              c:/program files (x86)/atmel/studio/7.0/toolchain/arm/arm-gnu-toolchain/bin/../lib/gcc/arm-none-eabi/6.3.1/../../../../arm-none-eabi/lib/thumb/v7e-m\libc.a(lib_a-fputwc.o) (__locale_mb_cur_max)
c:/program files (x86)/atmel/studio/7.0/toolchain/arm/arm-gnu-toolchain/bin/../lib/gcc/arm-none-eabi/6.3.1/../../../../arm-none-eabi/lib/thumb/v7e-m\libc.a(lib_a-lock.o)
                              c:/program files (x86)/atmel/studio/7.0/toolchain/arm/arm-gnu-toolchain/bin/../lib/gcc/arm-none-eabi/6.3.1/../../../../arm-none-eabi/lib/thumb/v7e-m\libc.a(lib_a-vfiprintf.o) (__retarget_lock_init_recursive)
c:/program files (x86)/atmel/studio/7.0/toolchain/arm/arm-gnu-toolchain/bin/../lib/gcc/arm-none-eabi/6.3.1/../../../../arm-none-eabi/lib/thumb/v7e-m\libc.a(lib_a-makebuf.o)
                              c:/program files (x86)/atmel/studio/7.0/toolchain/arm/arm-gnu-toolchain/bin/../lib/gcc/arm-none-eabi/6.3.1/../../../../arm-none-eabi/lib/thumb/v7e-m\libc.a(lib_a-setvbuf.o) (__swhatbuf_r)
c:/program files (x86)/atmel/studio/7.0/toolchain/arm/arm-gnu-toolchain/bin/../lib/gcc/arm-none-eabi/6.3.1/../../../../arm-none-eabi/lib/thumb/v7e-m\libc.a(lib_a-malloc.o)
                              c:/program files (x86)/atmel/studio/7.0/toolchain/arm/arm-gnu-toolchain/bin/../lib/gcc/arm-none-eabi/6.3.1/../../../../arm-none-eabi/lib/thumb/v7e-m\libc.a(lib_a-setvbuf.o) (malloc)
c:/program files (x86)/atmel/studio/7.0/toolchain/arm/arm-gnu-toolchain/bin/../lib/gcc/arm-none-eabi/6.3.1/../../../../arm-none-eabi/lib/thumb/v7e-m\libc.a(lib_a-mallocr.o)
                              c:/program files (x86)/atmel/studio/7.0/toolchain/arm/arm-gnu-toolchain/bin/../lib/gcc/arm-none-eabi/6.3.1/../../../../arm-none-eabi/lib/thumb/v7e-m\libc.a(lib_a-findfp.o) (_malloc_r)
c:/program files (x86)/atmel/studio/7.0/toolchain/arm/arm-gnu-toolchain/bin/../lib/gcc/arm-none-eabi/6.3.1/../../../../arm-none-eabi/lib/thumb/v7e-m\libc.a(lib_a-mbtowc_r.o)
                              c:/program files (x86)/atmel/studio/7.0/toolchain/arm/arm-gnu-toolchain/bin/../lib/gcc/arm-none-eabi/6.3.1/../../../../arm-none-eabi/lib/thumb/v7e-m\libc.a(lib_a-locale.o) (__ascii_mbtowc)
c:/program files (x86)/atmel/studio/7.0/toolchain/arm/arm-gnu-toolchain/bin/../lib/gcc/arm-none-eabi/6.3.1/../../../../arm-none-eabi/lib/thumb/v7e-m\libc.a(lib_a-memchr.o)
                              c:/program files (x86)/atmel/studio/7.0/toolchain/arm/arm-gnu-toolchain/bin/../lib/gcc/arm-none-eabi/6.3.1/../../../../arm-none-eabi/lib/thumb/v7e-m\libc.a(lib_a-vfiprintf.o) (memchr)
c:/program files (x86)/atmel/studio/7.0/toolchain/arm/arm-gnu-toolchain/bin/../lib/gcc/arm-none-eabi/6.3.1/../../../../arm-none-eabi/lib/thumb/v7e-m\libc.a(lib_a-memmove.o)
                              c:/program files (x86)/atmel/studio/7.0/toolchain/arm/arm-gnu-toolchain/bin/../lib/gcc/arm-none-eabi/6.3.1/../../../../arm-none-eabi/lib/thumb/v7e-m\libc.a(lib_a-fvwrite.o) (memmove)
c:/program files (x86)/atmel/studio/7.0/toolchain/arm/arm-gnu-toolchain/bin/../lib/gcc/arm-none-eabi/6.3.1/../../../../arm-none-eabi/lib/thumb/v7e-m\libc.a(lib_a-mlock.o)
                              c:/program files (x86)/atmel/studio/7.0/toolchain/arm/arm-gnu-toolchain/bin/../lib/gcc/arm-none-eabi/6.3.1/../../../../arm-none-eabi/lib/thumb/v7e-m\libc.a(lib_a-freer.o) (__malloc_lock)
c:/program files (x86)/atmel/studio/7.0/toolchain/arm/arm-gnu-toolchain/bin/../lib/gcc/arm-none-eabi/6.3.1/../../../../arm-none-eabi/lib/thumb/v7e-m\libc.a(lib_a-reallocr.o)
                              c:/program files (x86)/atmel/studio/7.0/toolchain/arm/arm-gnu-toolchain/bin/../lib/gcc/arm-none-eabi/6.3.1/../../../../arm-none-eabi/lib/thumb/v7e-m\libc.a(lib_a-fvwrite.o) (_realloc_r)
c:/program files (x86)/atmel/studio/7.0/toolchain/arm/arm-gnu-toolchain/bin/../lib/gcc/arm-none-eabi/6.3.1/../../../../arm-none-eabi/lib/thumb/v7e-m\libc.a(lib_a-sbrkr.o)
                              c:/program files (x86)/atmel/studio/7.0/toolchain/arm/arm-gnu-toolchain/bin/../lib/gcc/arm-none-eabi/6.3.1/../../../../arm-none-eabi/lib/thumb/v7e-m\libc.a(lib_a-freer.o) (_sbrk_r)
c:/program files (x86)/atmel/studio/7.0/toolchain/arm/arm-gnu-toolchain/bin/../lib/gcc/arm-none-eabi/6.3.1/../../../../arm-none-eabi/lib/thumb/v7e-m\libc.a(lib_a-stdio.o)
                              c:/program files (x86)/atmel/studio/7.0/toolchain/arm/arm-gnu-toolchain/bin/../lib/gcc/arm-none-eabi/6.3.1/../../../../arm-none-eabi/lib/thumb/v7e-m\libc.a(lib_a-findfp.o) (__sread)
c:/program files (x86)/atmel/studio/7.0/toolchain/arm/arm-gnu-toolchain/bin/../lib/gcc/arm-none-eabi/6.3.1/../../../../arm-none-eabi/lib/thumb/v7e-m\libc.a(lib_a-strcmp.o)
                              c:/program files (x86)/atmel/studio/7.0/toolchain/arm/arm-gnu-toolchain/bin/../lib/gcc/arm-none-eabi/6.3.1/../../../../arm-none-eabi/lib/thumb/v7e-m\libc.a(lib_a-locale.o) (strcmp)
c:/program files (x86)/atmel/studio/7.0/toolchain/arm/arm-gnu-toolchain/bin/../lib/gcc/arm-none-eabi/6.3.1/../../../../arm-none-eabi/lib/thumb/v7e-m\libc.a(lib_a-strlen.o)
                              c:/program files (x86)/atmel/studio/7.0/toolchain/arm/arm-gnu-toolchain/bin/../lib/gcc/arm-none-eabi/6.3.1/../../../../arm-none-eabi/lib/thumb/v7e-m\libc.a(lib_a-vfiprintf.o) (strlen)
c:/program files (x86)/atmel/studio/7.0/toolchain/arm/arm-gnu-toolchain/bin/../lib/gcc/arm-none-eabi/6.3.1/../../../../arm-none-eabi/lib/thumb/v7e-m\libc.a(lib_a-wbuf.o)
                              c:/program files (x86)/atmel/studio/7.0/toolchain/arm/arm-gnu-toolchain/bin/../lib/gcc/arm-none-eabi/6.3.1/../../../../arm-none-eabi/lib/thumb/v7e-m\libc.a(lib_a-fputwc.o) (__swbuf_r)
c:/program files (x86)/atmel/studio/7.0/toolchain/arm/arm-gnu-toolchain/bin/../lib/gcc/arm-none-eabi/6.3.1/../../../../arm-none-eabi/lib/thumb/v7e-m\libc.a(lib_a-wcrtomb.o)
                              c:/program files (x86)/atmel/studio/7.0/toolchain/arm/arm-gnu-toolchain/bin/../lib/gcc/arm-none-eabi/6.3.1/../../../../arm-none-eabi/lib/thumb/v7e-m\libc.a(lib_a-fputwc.o) (_wcrtomb_r)
c:/program files (x86)/atmel/studio/7.0/toolchain/arm/arm-gnu-toolchain/bin/../lib/gcc/arm-none-eabi/6.3.1/../../../../arm-none-eabi/lib/thumb/v7e-m\libc.a(lib_a-wctomb_r.o)
                              c:/program files (x86)/atmel/studio/7.0/toolchain/arm/arm-gnu-toolchain/bin/../lib/gcc/arm-none-eabi/6.3.1/../../../../arm-none-eabi/lib/thumb/v7e-m\libc.a(lib_a-locale.o) (__ascii_wctomb)
c:/program files (x86)/atmel/studio/7.0/toolchain/arm/arm-gnu-toolchain/bin/../lib/gcc/arm-none-eabi/6.3.1/../../../../arm-none-eabi/lib/thumb/v7e-m\libc.a(lib_a-writer.o)
                              c:/program files (x86)/atmel/studio/7.0/toolchain/arm/arm-gnu-toolchain/bin/../lib/gcc/arm-none-eabi/6.3.1/../../../../arm-none-eabi/lib/thumb/v7e-m\libc.a(lib_a-stdio.o) (_write_r)
c:/program files (x86)/atmel/studio/7.0/toolchain/arm/arm-gnu-toolchain/bin/../lib/gcc/arm-none-eabi/6.3.1/../../../../arm-none-eabi/lib/thumb/v7e-m\libc.a(lib_a-__atexit.o)
                              c:/program files (x86)/atmel/studio/7.0/toolchain/arm/arm-gnu-toolchain/bin/../lib/gcc/arm-none-eabi/6.3.1/../../../../arm-none-eabi/lib/thumb/v7e-m\libc.a(lib_a-atexit.o) (__register_exitproc)
c:/program files (x86)/atmel/studio/7.0/toolchain/arm/arm-gnu-toolchain/bin/../lib/gcc/arm-none-eabi/6.3.1/../../../../arm-none-eabi/lib/thumb/v7e-m\libc.a(lib_a-closer.o)
                              c:/program files (x86)/atmel/studio/7.0/toolchain/arm/arm-gnu-toolchain/bin/../lib/gcc/arm-none-eabi/6.3.1/../../../../arm-none-eabi/lib/thumb/v7e-m\libc.a(lib_a-stdio.o) (_close_r)
c:/program files (x86)/atmel/studio/7.0/toolchain/arm/arm-gnu-toolchain/bin/../lib/gcc/arm-none-eabi/6.3.1/../../../../arm-none-eabi/lib/thumb/v7e-m\libc.a(lib_a-ctype_.o)
                              c:/program files (x86)/atmel/studio/7.0/toolchain/arm/arm-gnu-toolchain/bin/../lib/gcc/arm-none-eabi/6.3.1/../../../../arm-none-eabi/lib/thumb/v7e-m\libc.a(lib_a-locale.o) (_ctype_)
c:/program files (x86)/atmel/studio/7.0/toolchain/arm/arm-gnu-toolchain/bin/../lib/gcc/arm-none-eabi/6.3.1/../../../../arm-none-eabi/lib/thumb/v7e-m\libc.a(lib_a-fclose.o)
                              c:/program files (x86)/atmel/studio/7.0/toolchain/arm/arm-gnu-toolchain/bin/../lib/gcc/arm-none-eabi/6.3.1/../../../../arm-none-eabi/lib/thumb/v7e-m\libc.a(lib_a-findfp.o) (_fclose_r)
c:/program files (x86)/atmel/studio/7.0/toolchain/arm/arm-gnu-toolchain/bin/../lib/gcc/arm-none-eabi/6.3.1/../../../../arm-none-eabi/lib/thumb/v7e-m\libc.a(lib_a-fstatr.o)
                              c:/program files (x86)/atmel/studio/7.0/toolchain/arm/arm-gnu-toolchain/bin/../lib/gcc/arm-none-eabi/6.3.1/../../../../arm-none-eabi/lib/thumb/v7e-m\libc.a(lib_a-makebuf.o) (_fstat_r)
c:/program files (x86)/atmel/studio/7.0/toolchain/arm/arm-gnu-toolchain/bin/../lib/gcc/arm-none-eabi/6.3.1/../../../../arm-none-eabi/lib/thumb/v7e-m\libc.a(lib_a-isattyr.o)
                              c:/program files (x86)/atmel/studio/7.0/toolchain/arm/arm-gnu-toolchain/bin/../lib/gcc/arm-none-eabi/6.3.1/../../../../arm-none-eabi/lib/thumb/v7e-m\libc.a(lib_a-makebuf.o) (_isatty_r)
c:/program files (x86)/atmel/studio/7.0/toolchain/arm/arm-gnu-toolchain/bin/../lib/gcc/arm-none-eabi/6.3.1/../../../../arm-none-eabi/lib/thumb/v7e-m\libc.a(lib_a-lseekr.o)
                              c:/program files (x86)/atmel/studio/7.0/toolchain/arm/arm-gnu-toolchain/bin/../lib/gcc/arm-none-eabi/6.3.1/../../../../arm-none-eabi/lib/thumb/v7e-m\libc.a(lib_a-stdio.o) (_lseek_r)
c:/program files (x86)/atmel/studio/7.0/toolchain/arm/arm-gnu-toolchain/bin/../lib/gcc/arm-none-eabi/6.3.1/../../../../arm-none-eabi/lib/thumb/v7e-m\libc.a(lib_a-readr.o)
                              c:/program files (x86)/atmel/studio/7.0/toolchain/arm/arm-gnu-toolchain/bin/../lib/gcc/arm-none-eabi/6.3.1/../../../../arm-none-eabi/lib/thumb/v7e-m\libc.a(lib_a-stdio.o) (_read_r)
c:/program files (x86)/atmel/studio/7.0/toolchain/arm/arm-gnu-toolchain/bin/../lib/gcc/arm-none-eabi/6.3.1/../../../../arm-none-eabi/lib/thumb/v7e-m\libc.a(lib_a-reent.o)
                              c:/program files (x86)/atmel/studio/7.0/toolchain/arm/arm-gnu-toolchain/bin/../lib/gcc/arm-none-eabi/6.3.1/../../../../arm-none-eabi/lib/thumb/v7e-m\libc.a(lib_a-sbrkr.o) (errno)
c:/program files (x86)/atmel/studio/7.0/toolchain/arm/arm-gnu-toolchain/bin/../lib/gcc/arm-none-eabi/6.3.1/thumb/v7e-m\libgcc.a(_aeabi_uldivmod.o)
                              c:/program files (x86)/atmel/studio/7.0/toolchain/arm/arm-gnu-toolchain/bin/../lib/gcc/arm-none-eabi/6.3.1/../../../../arm-none-eabi/lib/thumb/v7e-m\libc.a(lib_a-vfiprintf.o) (__aeabi_uldivmod)
c:/program files (x86)/atmel/studio/7.0/toolchain/arm/arm-gnu-toolchain/bin/../lib/gcc/arm-none-eabi/6.3.1/thumb/v7e-m\libgcc.a(_udivmoddi4.o)
                              c:/program files (x86)/atmel/studio/7.0/toolchain/arm/arm-gnu-toolchain/bin/../lib/gcc/arm-none-eabi/6.3.1/thumb/v7e-m\libgcc.a(_aeabi_uldivmod.o) (__udivmoddi4)
c:/program files (x86)/atmel/studio/7.0/toolchain/arm/arm-gnu-toolchain/bin/../lib/gcc/arm-none-eabi/6.3.1/thumb/v7e-m\libgcc.a(_dvmd_tls.o)
                              c:/program files (x86)/atmel/studio/7.0/toolchain/arm/arm-gnu-toolchain/bin/../lib/gcc/arm-none-eabi/6.3.1/thumb/v7e-m\libgcc.a(_aeabi_uldivmod.o) (__aeabi_ldiv0)

Allocating common symbols
Common symbol       size              file

__lock___atexit_recursive_mutex
                    0x1               c:/program files (x86)/atmel/studio/7.0/toolchain/arm/arm-gnu-toolchain/bin/../lib/gcc/arm-none-eabi/6.3.1/../../../../arm-none-eabi/lib/thumb/v7e-m\libc.a(lib_a-lock.o)
__lock___arc4random_mutex
                    0x1               c:/program files (x86)/atmel/studio/7.0/toolchain/arm/arm-gnu-toolchain/bin/../lib/gcc/arm-none-eabi/6.3.1/../../../../arm-none-eabi/lib/thumb/v7e-m\libc.a(lib_a-lock.o)
errno               0x4               c:/program files (x86)/atmel/studio/7.0/toolchain/arm/arm-gnu-toolchain/bin/../lib/gcc/arm-none-eabi/6.3.1/../../../../arm-none-eabi/lib/thumb/v7e-m\libc.a(lib_a-reent.o)
packet_rx           0x14              src/inv/inv_i2c.o
xSensorIntPB03Task  0x4               src/main.o
ptr_get             0x4               src/ASF/common/utils/stdio/read.o
__lock___env_recursive_mutex
                    0x1               c:/program files (x86)/atmel/studio/7.0/toolchain/arm/arm-gnu-toolchain/bin/../lib/gcc/arm-none-eabi/6.3.1/../../../../arm-none-eabi/lib/thumb/v7e-m\libc.a(lib_a-lock.o)
__lock___sinit_recursive_mutex
                    0x1               c:/program files (x86)/atmel/studio/7.0/toolchain/arm/arm-gnu-toolchain/bin/../lib/gcc/arm-none-eabi/6.3.1/../../../../arm-none-eabi/lib/thumb/v7e-m\libc.a(lib_a-lock.o)
ptr_put             0x4               src/ASF/common/utils/stdio/write.o
__lock___malloc_recursive_mutex
                    0x1               c:/program files (x86)/atmel/studio/7.0/toolchain/arm/arm-gnu-toolchain/bin/../lib/gcc/arm-none-eabi/6.3.1/../../../../arm-none-eabi/lib/thumb/v7e-m\libc.a(lib_a-lock.o)
g_pdc_usart_packet  0x8               src/inv/inv_uart.o
p_pdc               0x4               src/main.o
g_p_usart_pdc       0x4               src/inv/inv_uart.o
opt                 0xc               src/inv/inv_i2c.o
xMainTask           0x4               src/main.o
packet_tx           0x14              src/inv/inv_i2c.o
stdio_base          0x4               src/ASF/common/utils/stdio/write.o
sema_main_rx_uart   0x4               src/main.o
sleepmgr_locks      0x6               src/ASF/common/services/sleepmgr/sam/sleepmgr.o
sema_main_tx_uart   0x4               src/main.o
xDMATask            0x4               src/main.o
main_rx_buf         0x4000            src/main.o
main_tx_buf         0x4000            src/main.o
__lock___at_quick_exit_mutex
                    0x1               c:/program files (x86)/atmel/studio/7.0/toolchain/arm/arm-gnu-toolchain/bin/../lib/gcc/arm-none-eabi/6.3.1/../../../../arm-none-eabi/lib/thumb/v7e-m\libc.a(lib_a-lock.o)
sema_sensor_int_pb03
                    0x4               src/main.o
__lock___dd_hash_mutex
                    0x1               c:/program files (x86)/atmel/studio/7.0/toolchain/arm/arm-gnu-toolchain/bin/../lib/gcc/arm-none-eabi/6.3.1/../../../../arm-none-eabi/lib/thumb/v7e-m\libc.a(lib_a-lock.o)
__lock___tz_mutex   0x1               c:/program files (x86)/atmel/studio/7.0/toolchain/arm/arm-gnu-toolchain/bin/../lib/gcc/arm-none-eabi/6.3.1/../../../../arm-none-eabi/lib/thumb/v7e-m\libc.a(lib_a-lock.o)
__lock___sfp_recursive_mutex
                    0x1               c:/program files (x86)/atmel/studio/7.0/toolchain/arm/arm-gnu-toolchain/bin/../lib/gcc/arm-none-eabi/6.3.1/../../../../arm-none-eabi/lib/thumb/v7e-m\libc.a(lib_a-lock.o)

Discarded input sections

 .text          0x00000000        0x0 c:/program files (x86)/atmel/studio/7.0/toolchain/arm/arm-gnu-toolchain/bin/../lib/gcc/arm-none-eabi/6.3.1/thumb/v7e-m/crti.o
 .data          0x00000000        0x0 c:/program files (x86)/atmel/studio/7.0/toolchain/arm/arm-gnu-toolchain/bin/../lib/gcc/arm-none-eabi/6.3.1/thumb/v7e-m/crti.o
 .bss           0x00000000        0x0 c:/program files (x86)/atmel/studio/7.0/toolchain/arm/arm-gnu-toolchain/bin/../lib/gcc/arm-none-eabi/6.3.1/thumb/v7e-m/crti.o
 .data          0x00000000        0x4 c:/program files (x86)/atmel/studio/7.0/toolchain/arm/arm-gnu-toolchain/bin/../lib/gcc/arm-none-eabi/6.3.1/thumb/v7e-m/crtbegin.o
 .text          0x00000000       0x74 c:/program files (x86)/atmel/studio/7.0/toolchain/arm/arm-gnu-toolchain/bin/../lib/gcc/arm-none-eabi/6.3.1/../../../../arm-none-eabi/lib/thumb/v7e-m/crt0.o
 .data          0x00000000        0x0 c:/program files (x86)/atmel/studio/7.0/toolchain/arm/arm-gnu-toolchain/bin/../lib/gcc/arm-none-eabi/6.3.1/../../../../arm-none-eabi/lib/thumb/v7e-m/crt0.o
 .bss           0x00000000        0x0 c:/program files (x86)/atmel/studio/7.0/toolchain/arm/arm-gnu-toolchain/bin/../lib/gcc/arm-none-eabi/6.3.1/../../../../arm-none-eabi/lib/thumb/v7e-m/crt0.o
 .ARM.extab     0x00000000        0x0 c:/program files (x86)/atmel/studio/7.0/toolchain/arm/arm-gnu-toolchain/bin/../lib/gcc/arm-none-eabi/6.3.1/../../../../arm-none-eabi/lib/thumb/v7e-m/crt0.o
 .ARM.exidx     0x00000000        0x8 c:/program files (x86)/atmel/studio/7.0/toolchain/arm/arm-gnu-toolchain/bin/../lib/gcc/arm-none-eabi/6.3.1/../../../../arm-none-eabi/lib/thumb/v7e-m/crt0.o
 .ARM.attributes
                0x00000000       0x1c c:/program files (x86)/atmel/studio/7.0/toolchain/arm/arm-gnu-toolchain/bin/../lib/gcc/arm-none-eabi/6.3.1/../../../../arm-none-eabi/lib/thumb/v7e-m/crt0.o
 .text          0x00000000        0x0 src/ASF/common/services/sleepmgr/sam/sleepmgr.o
 .data          0x00000000        0x0 src/ASF/common/services/sleepmgr/sam/sleepmgr.o
 .bss           0x00000000        0x0 src/ASF/common/services/sleepmgr/sam/sleepmgr.o
 .bss.cpu_irq_critical_section_counter
                0x00000000        0x4 src/ASF/common/services/sleepmgr/sam/sleepmgr.o
 .bss.cpu_irq_prev_interrupt_state
                0x00000000        0x1 src/ASF/common/services/sleepmgr/sam/sleepmgr.o
 .text          0x00000000        0x0 src/ASF/common/utils/stdio/read.o
 .data          0x00000000        0x0 src/ASF/common/utils/stdio/read.o
 .bss           0x00000000        0x0 src/ASF/common/utils/stdio/read.o
 .bss.cpu_irq_critical_section_counter
                0x00000000        0x4 src/ASF/common/utils/stdio/read.o
 .bss.cpu_irq_prev_interrupt_state
                0x00000000        0x1 src/ASF/common/utils/stdio/read.o
 .text          0x00000000        0x0 src/ASF/sam/drivers/pio/pio.o
 .data          0x00000000        0x0 src/ASF/sam/drivers/pio/pio.o
 .bss           0x00000000        0x0 src/ASF/sam/drivers/pio/pio.o
 .text.pio_pull_up
                0x00000000        0xa src/ASF/sam/drivers/pio/pio.o
 .text.pio_set_debounce_filter
                0x00000000       0x1a src/ASF/sam/drivers/pio/pio.o
 .text.pio_set  0x00000000        0x4 src/ASF/sam/drivers/pio/pio.o
 .text.pio_clear
                0x00000000        0x4 src/ASF/sam/drivers/pio/pio.o
 .text.pio_get  0x00000000       0x18 src/ASF/sam/drivers/pio/pio.o
 .text.pio_get_output_data_status
                0x00000000        0xc src/ASF/sam/drivers/pio/pio.o
 .text.pio_set_multi_driver
                0x00000000        0xa src/ASF/sam/drivers/pio/pio.o
 .text.pio_get_multi_driver_status
                0x00000000        0x4 src/ASF/sam/drivers/pio/pio.o
 .text.pio_pull_down
                0x00000000        0xe src/ASF/sam/drivers/pio/pio.o
 .text.pio_enable_output_write
                0x00000000        0x6 src/ASF/sam/drivers/pio/pio.o
 .text.pio_disable_output_write
                0x00000000        0x6 src/ASF/sam/drivers/pio/pio.o
 .text.pio_get_output_write_status
                0x00000000        0x6 src/ASF/sam/drivers/pio/pio.o
 .text.pio_sync_output_write
                0x00000000        0x4 src/ASF/sam/drivers/pio/pio.o
 .text.pio_set_schmitt_trigger
                0x00000000        0x6 src/ASF/sam/drivers/pio/pio.o
 .text.pio_get_schmitt_trigger
                0x00000000        0x6 src/ASF/sam/drivers/pio/pio.o
 .text.pio_set_writeprotect
                0x00000000       0x14 src/ASF/sam/drivers/pio/pio.o
 .text.pio_get_writeprotect_status
                0x00000000        0x6 src/ASF/sam/drivers/pio/pio.o
 .text.pio_get_pin_value
                0x00000000       0x1c src/ASF/sam/drivers/pio/pio.o
 .text.pio_set_pin_high
                0x00000000       0x1a src/ASF/sam/drivers/pio/pio.o
 .text.pio_set_pin_low
                0x00000000       0x1a src/ASF/sam/drivers/pio/pio.o
 .text.pio_toggle_pin
                0x00000000       0x20 src/ASF/sam/drivers/pio/pio.o
 .text.pio_configure_pin
                0x00000000       0xa4 src/ASF/sam/drivers/pio/pio.o
 .text.pio_set_pin_group_high
                0x00000000        0x4 src/ASF/sam/drivers/pio/pio.o
 .text.pio_set_pin_group_low
                0x00000000        0x4 src/ASF/sam/drivers/pio/pio.o
 .text.pio_toggle_pin_group
                0x00000000        0xc src/ASF/sam/drivers/pio/pio.o
 .text.pio_configure_pin_group
                0x00000000       0x78 src/ASF/sam/drivers/pio/pio.o
 .text.pio_enable_pin_interrupt
                0x00000000       0x1a src/ASF/sam/drivers/pio/pio.o
 .text.pio_disable_pin_interrupt
                0x00000000       0x1a src/ASF/sam/drivers/pio/pio.o
 .text.pio_get_pin_group
                0x00000000        0xe src/ASF/sam/drivers/pio/pio.o
 .text.pio_get_pin_group_id
                0x00000000        0x6 src/ASF/sam/drivers/pio/pio.o
 .text.pio_get_pin_group_mask
                0x00000000        0xc src/ASF/sam/drivers/pio/pio.o
 .text.pio_set_io_drive
                0x00000000       0x20 src/ASF/sam/drivers/pio/pio.o
 .bss.cpu_irq_critical_section_counter
                0x00000000        0x4 src/ASF/sam/drivers/pio/pio.o
 .bss.cpu_irq_prev_interrupt_state
                0x00000000        0x1 src/ASF/sam/drivers/pio/pio.o
 .text          0x00000000        0x0 src/ASF/sam/drivers/pio/pio_handler.o
 .data          0x00000000        0x0 src/ASF/sam/drivers/pio/pio_handler.o
 .bss           0x00000000        0x0 src/ASF/sam/drivers/pio/pio_handler.o
 .text.pio_handler_set_pin
                0x00000000       0x44 src/ASF/sam/drivers/pio/pio_handler.o
 .bss.cpu_irq_critical_section_counter
                0x00000000        0x4 src/ASF/sam/drivers/pio/pio_handler.o
 .bss.cpu_irq_prev_interrupt_state
                0x00000000        0x1 src/ASF/sam/drivers/pio/pio_handler.o
 .text          0x00000000        0x0 src/ASF/sam/drivers/spi/spi.o
 .data          0x00000000        0x0 src/ASF/sam/drivers/spi/spi.o
 .bss           0x00000000        0x0 src/ASF/sam/drivers/spi/spi.o
 .text.spi_enable_clock
                0x00000000       0x78 src/ASF/sam/drivers/spi/spi.o
 .text.spi_disable_clock
                0x00000000       0x78 src/ASF/sam/drivers/spi/spi.o
 .text.spi_set_delay_between_chip_select
                0x00000000       0x12 src/ASF/sam/drivers/spi/spi.o
 .text.spi_configure_cs_behavior
                0x00000000       0x40 src/ASF/sam/drivers/spi/spi.o
 .text.spi_calc_baudrate_div
                0x00000000       0x16 src/ASF/sam/drivers/spi/spi.o
 .text.spi_set_writeprotect
                0x00000000       0x18 src/ASF/sam/drivers/spi/spi.o
 .text.spi_get_writeprotect_status
                0x00000000        0x6 src/ASF/sam/drivers/spi/spi.o
 .bss.cpu_irq_critical_section_counter
                0x00000000        0x4 src/ASF/sam/drivers/spi/spi.o
 .bss.cpu_irq_prev_interrupt_state
                0x00000000        0x1 src/ASF/sam/drivers/spi/spi.o
 .text          0x00000000        0x0 src/ASF/sam/drivers/twi/twi.o
 .data          0x00000000        0x0 src/ASF/sam/drivers/twi/twi.o
 .bss           0x00000000        0x0 src/ASF/sam/drivers/twi/twi.o
 .text.twi_enable_master_mode
                0x00000000        0xe src/ASF/sam/drivers/twi/twi.o
 .text.twi_disable_master_mode
                0x00000000        0x6 src/ASF/sam/drivers/twi/twi.o
 .text.twi_set_speed
                0x00000000       0x94 src/ASF/sam/drivers/twi/twi.o
 .text.twi_master_init
                0x00000000       0x40 src/ASF/sam/drivers/twi/twi.o
 .text.twi_mk_addr
                0x00000000       0x20 src/ASF/sam/drivers/twi/twi.o
 .text.twi_master_read
                0x00000000       0x98 src/ASF/sam/drivers/twi/twi.o
 .text.twi_master_write
                0x00000000       0x6c src/ASF/sam/drivers/twi/twi.o
 .text.twi_probe
                0x00000000       0x2c src/ASF/sam/drivers/twi/twi.o
 .text.twi_enable_interrupt
                0x00000000        0x4 src/ASF/sam/drivers/twi/twi.o
 .text.twi_disable_interrupt
                0x00000000        0x6 src/ASF/sam/drivers/twi/twi.o
 .text.twi_get_interrupt_status
                0x00000000        0x4 src/ASF/sam/drivers/twi/twi.o
 .text.twi_get_interrupt_mask
                0x00000000        0x4 src/ASF/sam/drivers/twi/twi.o
 .text.twi_read_byte
                0x00000000        0x6 src/ASF/sam/drivers/twi/twi.o
 .text.twi_write_byte
                0x00000000        0x4 src/ASF/sam/drivers/twi/twi.o
 .text.twi_enable_slave_mode
                0x00000000        0xe src/ASF/sam/drivers/twi/twi.o
 .text.twi_disable_slave_mode
                0x00000000        0x6 src/ASF/sam/drivers/twi/twi.o
 .text.twi_slave_init
                0x00000000       0x24 src/ASF/sam/drivers/twi/twi.o
 .text.twi_set_slave_addr
                0x00000000        0xa src/ASF/sam/drivers/twi/twi.o
 .text.twi_slave_read
                0x00000000       0x2c src/ASF/sam/drivers/twi/twi.o
 .text.twi_slave_write
                0x00000000       0x2c src/ASF/sam/drivers/twi/twi.o
 .text.twi_reset
                0x00000000        0x8 src/ASF/sam/drivers/twi/twi.o
 .text.twi_get_pdc_base
                0x00000000       0x28 src/ASF/sam/drivers/twi/twi.o
 .text.twi_set_write_protection
                0x00000000       0x1c src/ASF/sam/drivers/twi/twi.o
 .text.twi_read_write_protection_status
                0x00000000        0x8 src/ASF/sam/drivers/twi/twi.o
 .text.twi_smbus_set_timing
                0x00000000        0x4 src/ASF/sam/drivers/twi/twi.o
 .text.twi_set_alternative_command
                0x00000000        0x4 src/ASF/sam/drivers/twi/twi.o
 .text.twi_set_filter
                0x00000000        0x4 src/ASF/sam/drivers/twi/twi.o
 .text.twi_mask_slave_addr
                0x00000000        0xe src/ASF/sam/drivers/twi/twi.o
 .text.twi_set_sleepwalking
                0x00000000       0x36 src/ASF/sam/drivers/twi/twi.o
 .bss.cpu_irq_critical_section_counter
                0x00000000        0x4 src/ASF/sam/drivers/twi/twi.o
 .bss.cpu_irq_prev_interrupt_state
                0x00000000        0x1 src/ASF/sam/drivers/twi/twi.o
 .comment       0x00000000       0x5a src/ASF/sam/drivers/twi/twi.o
 .ARM.attributes
                0x00000000       0x37 src/ASF/sam/drivers/twi/twi.o
 .text          0x00000000        0x0 src/ASF/sam/drivers/usart/usart.o
 .data          0x00000000        0x0 src/ASF/sam/drivers/usart/usart.o
 .bss           0x00000000        0x0 src/ASF/sam/drivers/usart/usart.o
 .text.usart_init_hw_handshaking
                0x00000000       0x20 src/ASF/sam/drivers/usart/usart.o
 .text.usart_init_sync_master
                0x00000000       0x5c src/ASF/sam/drivers/usart/usart.o
 .text.usart_init_sync_slave
                0x00000000       0x34 src/ASF/sam/drivers/usart/usart.o
 .text.usart_init_rs485
                0x00000000       0x20 src/ASF/sam/drivers/usart/usart.o
 .text.usart_init_iso7816
                0x00000000       0xb0 src/ASF/sam/drivers/usart/usart.o
 .text.usart_reset_iterations
                0x00000000        0x8 src/ASF/sam/drivers/usart/usart.o
 .text.usart_reset_nack
                0x00000000        0x8 src/ASF/sam/drivers/usart/usart.o
 .text.usart_is_rx_buf_full
                0x00000000        0x8 src/ASF/sam/drivers/usart/usart.o
 .text.usart_is_rx_buf_end
                0x00000000        0x8 src/ASF/sam/drivers/usart/usart.o
 .text.usart_is_tx_buf_end
                0x00000000        0x8 src/ASF/sam/drivers/usart/usart.o
 .text.usart_is_tx_buf_empty
                0x00000000        0x8 src/ASF/sam/drivers/usart/usart.o
 .text.usart_get_error_number
                0x00000000        0x6 src/ASF/sam/drivers/usart/usart.o
 .text.usart_init_spi_master
                0x00000000       0x94 src/ASF/sam/drivers/usart/usart.o
 .text.usart_init_spi_slave
                0x00000000       0x80 src/ASF/sam/drivers/usart/usart.o
 .text.usart_init_lin_master
                0x00000000       0x30 src/ASF/sam/drivers/usart/usart.o
 .text.usart_init_lin_slave
                0x00000000       0x30 src/ASF/sam/drivers/usart/usart.o
 .text.usart_lin_abort_tx
                0x00000000        0x8 src/ASF/sam/drivers/usart/usart.o
 .text.usart_lin_send_wakeup_signal
                0x00000000        0x8 src/ASF/sam/drivers/usart/usart.o
 .text.usart_lin_set_node_action
                0x00000000        0xc src/ASF/sam/drivers/usart/usart.o
 .text.usart_lin_disable_parity
                0x00000000        0xa src/ASF/sam/drivers/usart/usart.o
 .text.usart_lin_enable_parity
                0x00000000        0xa src/ASF/sam/drivers/usart/usart.o
 .text.usart_lin_disable_checksum
                0x00000000        0xa src/ASF/sam/drivers/usart/usart.o
 .text.usart_lin_enable_checksum
                0x00000000        0xa src/ASF/sam/drivers/usart/usart.o
 .text.usart_lin_set_checksum_type
                0x00000000        0xe src/ASF/sam/drivers/usart/usart.o
 .text.usart_lin_set_data_len_mode
                0x00000000        0xe src/ASF/sam/drivers/usart/usart.o
 .text.usart_lin_disable_frame_slot
                0x00000000        0xa src/ASF/sam/drivers/usart/usart.o
 .text.usart_lin_enable_frame_slot
                0x00000000        0xa src/ASF/sam/drivers/usart/usart.o
 .text.usart_lin_set_wakeup_signal_type
                0x00000000        0xe src/ASF/sam/drivers/usart/usart.o
 .text.usart_lin_set_response_data_len
                0x00000000       0x10 src/ASF/sam/drivers/usart/usart.o
 .text.usart_lin_disable_pdc_mode
                0x00000000        0xa src/ASF/sam/drivers/usart/usart.o
 .text.usart_lin_enable_pdc_mode
                0x00000000        0xa src/ASF/sam/drivers/usart/usart.o
 .text.usart_lin_set_tx_identifier
                0x00000000        0xc src/ASF/sam/drivers/usart/usart.o
 .text.usart_lin_read_identifier
                0x00000000        0x6 src/ASF/sam/drivers/usart/usart.o
 .text.usart_lin_get_data_length
                0x00000000       0x1c src/ASF/sam/drivers/usart/usart.o
 .text.usart_disable_tx
                0x00000000        0x6 src/ASF/sam/drivers/usart/usart.o
 .text.usart_reset_tx
                0x00000000        0x6 src/ASF/sam/drivers/usart/usart.o
 .text.usart_set_tx_timeguard
                0x00000000        0x4 src/ASF/sam/drivers/usart/usart.o
 .text.usart_disable_rx
                0x00000000        0x6 src/ASF/sam/drivers/usart/usart.o
 .text.usart_reset_rx
                0x00000000        0x6 src/ASF/sam/drivers/usart/usart.o
 .text.usart_set_rx_timeout
                0x00000000        0x4 src/ASF/sam/drivers/usart/usart.o
 .text.usart_disable_interrupt
                0x00000000        0x4 src/ASF/sam/drivers/usart/usart.o
 .text.usart_get_interrupt_mask
                0x00000000        0x4 src/ASF/sam/drivers/usart/usart.o
 .text.usart_reset_status
                0x00000000        0x8 src/ASF/sam/drivers/usart/usart.o
 .text.usart_start_tx_break
                0x00000000        0x8 src/ASF/sam/drivers/usart/usart.o
 .text.usart_stop_tx_break
                0x00000000        0x8 src/ASF/sam/drivers/usart/usart.o
 .text.usart_start_rx_timeout
                0x00000000        0x8 src/ASF/sam/drivers/usart/usart.o
 .text.usart_restart_rx_timeout
                0x00000000        0x8 src/ASF/sam/drivers/usart/usart.o
 .text.usart_drive_RTS_pin_low
                0x00000000        0x8 src/ASF/sam/drivers/usart/usart.o
 .text.usart_drive_RTS_pin_high
                0x00000000        0x8 src/ASF/sam/drivers/usart/usart.o
 .text.usart_spi_force_chip_select
                0x00000000        0x8 src/ASF/sam/drivers/usart/usart.o
 .text.usart_spi_release_chip_select
                0x00000000        0x8 src/ASF/sam/drivers/usart/usart.o
 .text.usart_is_tx_ready
                0x00000000        0x8 src/ASF/sam/drivers/usart/usart.o
 .text.usart_is_tx_empty
                0x00000000        0x8 src/ASF/sam/drivers/usart/usart.o
 .text.usart_is_rx_ready
                0x00000000        0x8 src/ASF/sam/drivers/usart/usart.o
 .text.usart_send_address
                0x00000000       0x28 src/ASF/sam/drivers/usart/usart.o
 .text.usart_putchar
                0x00000000       0x10 src/ASF/sam/drivers/usart/usart.o
 .text.usart_write_line
                0x00000000       0x1c src/ASF/sam/drivers/usart/usart.o
 .text.usart_getchar
                0x00000000       0x12 src/ASF/sam/drivers/usart/usart.o
 .text.usart_enable_writeprotect
                0x00000000        0xc src/ASF/sam/drivers/usart/usart.o
 .text.usart_disable_writeprotect
                0x00000000        0xc src/ASF/sam/drivers/usart/usart.o
 .text.usart_get_writeprotect_status
                0x00000000       0x10 src/ASF/sam/drivers/usart/usart.o
 .text.usart_set_sleepwalking
                0x00000000       0x20 src/ASF/sam/drivers/usart/usart.o
 .bss.cpu_irq_critical_section_counter
                0x00000000        0x4 src/ASF/sam/drivers/usart/usart.o
 .bss.cpu_irq_prev_interrupt_state
                0x00000000        0x1 src/ASF/sam/drivers/usart/usart.o
 .bss.ul_reg_val.8625
                0x00000000        0x4 src/ASF/sam/drivers/usart/usart.o
 .bss.ul_reg_val.8647
                0x00000000        0x4 src/ASF/sam/drivers/usart/usart.o
 .bss.ul_reg_val.8674
                0x00000000        0x4 src/ASF/sam/drivers/usart/usart.o
 .bss.ul_reg_val.8685
                0x00000000        0x4 src/ASF/sam/drivers/usart/usart.o
 .text          0x00000000        0x0 src/ASF/thirdparty/freertos/freertos-8.0.1/Source/croutine.o
 .data          0x00000000        0x0 src/ASF/thirdparty/freertos/freertos-8.0.1/Source/croutine.o
 .bss           0x00000000        0x0 src/ASF/thirdparty/freertos/freertos-8.0.1/Source/croutine.o
 .text.xCoRoutineCreate
                0x00000000       0xcc src/ASF/thirdparty/freertos/freertos-8.0.1/Source/croutine.o
 .text.vCoRoutineAddToDelayedList
                0x00000000       0x58 src/ASF/thirdparty/freertos/freertos-8.0.1/Source/croutine.o
 .text.vCoRoutineSchedule
                0x00000000      0x168 src/ASF/thirdparty/freertos/freertos-8.0.1/Source/croutine.o
 .text.xCoRoutineRemoveFromEventList
                0x00000000       0x3c src/ASF/thirdparty/freertos/freertos-8.0.1/Source/croutine.o
 .bss.pxCurrentCoRoutine
                0x00000000        0x4 src/ASF/thirdparty/freertos/freertos-8.0.1/Source/croutine.o
 .bss.pxDelayedCoRoutineList
                0x00000000        0x4 src/ASF/thirdparty/freertos/freertos-8.0.1/Source/croutine.o
 .bss.pxOverflowDelayedCoRoutineList
                0x00000000        0x4 src/ASF/thirdparty/freertos/freertos-8.0.1/Source/croutine.o
 .bss.pxReadyCoRoutineLists
                0x00000000       0x28 src/ASF/thirdparty/freertos/freertos-8.0.1/Source/croutine.o
 .bss.uxTopCoRoutineReadyPriority
                0x00000000        0x4 src/ASF/thirdparty/freertos/freertos-8.0.1/Source/croutine.o
 .bss.xCoRoutineTickCount
                0x00000000        0x4 src/ASF/thirdparty/freertos/freertos-8.0.1/Source/croutine.o
 .bss.xDelayedCoRoutineList1
                0x00000000       0x14 src/ASF/thirdparty/freertos/freertos-8.0.1/Source/croutine.o
 .bss.xDelayedCoRoutineList2
                0x00000000       0x14 src/ASF/thirdparty/freertos/freertos-8.0.1/Source/croutine.o
 .bss.xLastTickCount
                0x00000000        0x4 src/ASF/thirdparty/freertos/freertos-8.0.1/Source/croutine.o
 .bss.xPassedTicks
                0x00000000        0x4 src/ASF/thirdparty/freertos/freertos-8.0.1/Source/croutine.o
 .bss.xPendingReadyCoRoutineList
                0x00000000       0x14 src/ASF/thirdparty/freertos/freertos-8.0.1/Source/croutine.o
 .comment       0x00000000       0x5a src/ASF/thirdparty/freertos/freertos-8.0.1/Source/croutine.o
 .ARM.attributes
                0x00000000       0x37 src/ASF/thirdparty/freertos/freertos-8.0.1/Source/croutine.o
 .text          0x00000000        0x0 src/ASF/thirdparty/freertos/freertos-8.0.1/Source/event_groups.o
 .data          0x00000000        0x0 src/ASF/thirdparty/freertos/freertos-8.0.1/Source/event_groups.o
 .bss           0x00000000        0x0 src/ASF/thirdparty/freertos/freertos-8.0.1/Source/event_groups.o
 .text.xEventGroupCreate
                0x00000000       0x24 src/ASF/thirdparty/freertos/freertos-8.0.1/Source/event_groups.o
 .text.xEventGroupWaitBits
                0x00000000       0xf0 src/ASF/thirdparty/freertos/freertos-8.0.1/Source/event_groups.o
 .text.xEventGroupClearBits
                0x00000000       0x34 src/ASF/thirdparty/freertos/freertos-8.0.1/Source/event_groups.o
 .text.xEventGroupGetBitsFromISR
                0x00000000       0x1c src/ASF/thirdparty/freertos/freertos-8.0.1/Source/event_groups.o
 .text.xEventGroupSetBits
                0x00000000       0x78 src/ASF/thirdparty/freertos/freertos-8.0.1/Source/event_groups.o
 .text.xEventGroupSync
                0x00000000       0xc4 src/ASF/thirdparty/freertos/freertos-8.0.1/Source/event_groups.o
 .text.vEventGroupDelete
                0x00000000       0x48 src/ASF/thirdparty/freertos/freertos-8.0.1/Source/event_groups.o
 .text.vEventGroupSetBitsCallback
                0x00000000        0x8 src/ASF/thirdparty/freertos/freertos-8.0.1/Source/event_groups.o
 .text.vEventGroupClearBitsCallback
                0x00000000        0x8 src/ASF/thirdparty/freertos/freertos-8.0.1/Source/event_groups.o
 .comment       0x00000000       0x5a src/ASF/thirdparty/freertos/freertos-8.0.1/Source/event_groups.o
 .ARM.attributes
                0x00000000       0x37 src/ASF/thirdparty/freertos/freertos-8.0.1/Source/event_groups.o
 .text          0x00000000        0x0 src/ASF/thirdparty/freertos/freertos-8.0.1/Source/list.o
 .data          0x00000000        0x0 src/ASF/thirdparty/freertos/freertos-8.0.1/Source/list.o
 .bss           0x00000000        0x0 src/ASF/thirdparty/freertos/freertos-8.0.1/Source/list.o
 .text          0x00000000        0x0 src/ASF/thirdparty/freertos/freertos-8.0.1/Source/portable/GCC/ARM_CM4F/port.o
 .data          0x00000000        0x0 src/ASF/thirdparty/freertos/freertos-8.0.1/Source/portable/GCC/ARM_CM4F/port.o
 .bss           0x00000000        0x0 src/ASF/thirdparty/freertos/freertos-8.0.1/Source/portable/GCC/ARM_CM4F/port.o
 .text.vPortEndScheduler
                0x00000000       0x1c src/ASF/thirdparty/freertos/freertos-8.0.1/Source/portable/GCC/ARM_CM4F/port.o
 .text          0x00000000        0x0 src/ASF/thirdparty/freertos/freertos-8.0.1/Source/portable/MemMang/heap_2.o
 .data          0x00000000        0x0 src/ASF/thirdparty/freertos/freertos-8.0.1/Source/portable/MemMang/heap_2.o
 .bss           0x00000000        0x0 src/ASF/thirdparty/freertos/freertos-8.0.1/Source/portable/MemMang/heap_2.o
 .text.xPortGetFreeHeapSize
                0x00000000        0xc src/ASF/thirdparty/freertos/freertos-8.0.1/Source/portable/MemMang/heap_2.o
 .text.vPortInitialiseBlocks
                0x00000000        0x2 src/ASF/thirdparty/freertos/freertos-8.0.1/Source/portable/MemMang/heap_2.o
 .text          0x00000000        0x0 src/ASF/thirdparty/freertos/freertos-8.0.1/Source/queue.o
 .data          0x00000000        0x0 src/ASF/thirdparty/freertos/freertos-8.0.1/Source/queue.o
 .bss           0x00000000        0x0 src/ASF/thirdparty/freertos/freertos-8.0.1/Source/queue.o
 .text.xQueueCreateCountingSemaphore
                0x00000000       0x34 src/ASF/thirdparty/freertos/freertos-8.0.1/Source/queue.o
 .text.xQueueCreateMutex
                0x00000000       0x5c src/ASF/thirdparty/freertos/freertos-8.0.1/Source/queue.o
 .text.xQueueGiveMutexRecursive
                0x00000000       0x3c src/ASF/thirdparty/freertos/freertos-8.0.1/Source/queue.o
 .text.xQueueTakeMutexRecursive
                0x00000000       0x48 src/ASF/thirdparty/freertos/freertos-8.0.1/Source/queue.o
 .text.xQueueReceiveFromISR
                0x00000000       0x84 src/ASF/thirdparty/freertos/freertos-8.0.1/Source/queue.o
 .text.xQueuePeekFromISR
                0x00000000       0x54 src/ASF/thirdparty/freertos/freertos-8.0.1/Source/queue.o
 .text.uxQueueMessagesWaiting
                0x00000000       0x28 src/ASF/thirdparty/freertos/freertos-8.0.1/Source/queue.o
 .text.uxQueueSpacesAvailable
                0x00000000       0x2c src/ASF/thirdparty/freertos/freertos-8.0.1/Source/queue.o
 .text.uxQueueMessagesWaitingFromISR
                0x00000000       0x14 src/ASF/thirdparty/freertos/freertos-8.0.1/Source/queue.o
 .text.vQueueDelete
                0x00000000       0x28 src/ASF/thirdparty/freertos/freertos-8.0.1/Source/queue.o
 .text.xQueueIsQueueEmptyFromISR
                0x00000000       0x18 src/ASF/thirdparty/freertos/freertos-8.0.1/Source/queue.o
 .text.xQueueIsQueueFullFromISR
                0x00000000       0x1c src/ASF/thirdparty/freertos/freertos-8.0.1/Source/queue.o
 .text.xQueueCreateSet
                0x00000000        0xc src/ASF/thirdparty/freertos/freertos-8.0.1/Source/queue.o
 .text.xQueueAddToSet
                0x00000000       0x2c src/ASF/thirdparty/freertos/freertos-8.0.1/Source/queue.o
 .text.xQueueRemoveFromSet
                0x00000000       0x28 src/ASF/thirdparty/freertos/freertos-8.0.1/Source/queue.o
 .text.xQueueSelectFromSet
                0x00000000       0x1c src/ASF/thirdparty/freertos/freertos-8.0.1/Source/queue.o
 .text.xQueueSelectFromSetFromISR
                0x00000000       0x1c src/ASF/thirdparty/freertos/freertos-8.0.1/Source/queue.o
 .text          0x00000000        0x0 src/ASF/thirdparty/freertos/freertos-8.0.1/Source/tasks.o
 .data          0x00000000        0x0 src/ASF/thirdparty/freertos/freertos-8.0.1/Source/tasks.o
 .bss           0x00000000        0x0 src/ASF/thirdparty/freertos/freertos-8.0.1/Source/tasks.o
 .text.prvTaskIsTaskSuspended
                0x00000000       0x34 src/ASF/thirdparty/freertos/freertos-8.0.1/Source/tasks.o
 .text.vTaskDelete
                0x00000000       0xa4 src/ASF/thirdparty/freertos/freertos-8.0.1/Source/tasks.o
 .text.uxTaskPriorityGet
                0x00000000       0x24 src/ASF/thirdparty/freertos/freertos-8.0.1/Source/tasks.o
 .text.vTaskPrioritySet
                0x00000000       0xbc src/ASF/thirdparty/freertos/freertos-8.0.1/Source/tasks.o
 .text.vTaskResume
                0x00000000       0x84 src/ASF/thirdparty/freertos/freertos-8.0.1/Source/tasks.o
 .text.xTaskResumeFromISR
                0x00000000       0x9c src/ASF/thirdparty/freertos/freertos-8.0.1/Source/tasks.o
 .text.vTaskEndScheduler
                0x00000000       0x20 src/ASF/thirdparty/freertos/freertos-8.0.1/Source/tasks.o
 .text.xTaskGetTickCountFromISR
                0x00000000       0x28 src/ASF/thirdparty/freertos/freertos-8.0.1/Source/tasks.o
 .text.uxTaskGetNumberOfTasks
                0x00000000        0xc src/ASF/thirdparty/freertos/freertos-8.0.1/Source/tasks.o
 .text.vTaskDelayUntil
                0x00000000       0x8c src/ASF/thirdparty/freertos/freertos-8.0.1/Source/tasks.o
 .text.vTaskDelay
                0x00000000       0x60 src/ASF/thirdparty/freertos/freertos-8.0.1/Source/tasks.o
 .text.vTaskSuspend
                0x00000000       0xb4 src/ASF/thirdparty/freertos/freertos-8.0.1/Source/tasks.o
 .text.vTaskPlaceOnUnorderedEventList
                0x00000000       0x74 src/ASF/thirdparty/freertos/freertos-8.0.1/Source/tasks.o
 .text.xTaskRemoveFromUnorderedEventList
                0x00000000       0x78 src/ASF/thirdparty/freertos/freertos-8.0.1/Source/tasks.o
 .text.uxTaskResetEventItemValue
                0x00000000       0x18 src/ASF/thirdparty/freertos/freertos-8.0.1/Source/tasks.o
 .text          0x00000000        0x0 src/ASF/thirdparty/freertos/freertos-8.0.1/Source/timers.o
 .data          0x00000000        0x0 src/ASF/thirdparty/freertos/freertos-8.0.1/Source/timers.o
 .bss           0x00000000        0x0 src/ASF/thirdparty/freertos/freertos-8.0.1/Source/timers.o
 .text.xTimerCreate
                0x00000000       0x4c src/ASF/thirdparty/freertos/freertos-8.0.1/Source/timers.o
 .text.pcTimerGetTimerName
                0x00000000        0x4 src/ASF/thirdparty/freertos/freertos-8.0.1/Source/timers.o
 .text.xTimerIsTimerActive
                0x00000000       0x20 src/ASF/thirdparty/freertos/freertos-8.0.1/Source/timers.o
 .text.pvTimerGetTimerID
                0x00000000        0x4 src/ASF/thirdparty/freertos/freertos-8.0.1/Source/timers.o
 .text          0x00000000        0x0 src/inv/inv_i2c.o
 .data          0x00000000        0x0 src/inv/inv_i2c.o
 .bss           0x00000000        0x0 src/inv/inv_i2c.o
 .text.i2c_master_initialize
                0x00000000       0x48 src/inv/inv_i2c.o
 .text.i2c_master_deinit
                0x00000000       0x24 src/inv/inv_i2c.o
 .text.i2c_master_read_register
                0x00000000       0x38 src/inv/inv_i2c.o
 .text.i2c_master_write_register
                0x00000000       0x30 src/inv/inv_i2c.o
 .bss.cpu_irq_critical_section_counter
                0x00000000        0x4 src/inv/inv_i2c.o
 .bss.cpu_irq_prev_interrupt_state
                0x00000000        0x1 src/inv/inv_i2c.o
 .comment       0x00000000       0x5a src/inv/inv_i2c.o
 .ARM.attributes
                0x00000000       0x37 src/inv/inv_i2c.o
 COMMON         0x00000000       0x34 src/inv/inv_i2c.o
 .text          0x00000000        0x0 src/inv/inv_spi.o
 .data          0x00000000        0x0 src/inv/inv_spi.o
 .bss           0x00000000        0x0 src/inv/inv_spi.o
 .text.spi_master_deinit
                0x00000000       0x1c src/inv/inv_spi.o
 .bss.cpu_irq_critical_section_counter
                0x00000000        0x4 src/inv/inv_spi.o
 .bss.cpu_irq_prev_interrupt_state
                0x00000000        0x1 src/inv/inv_spi.o
 .text          0x00000000        0x0 src/inv/inv_uart.o
 .data          0x00000000        0x0 src/inv/inv_uart.o
 .bss           0x00000000        0x0 src/inv/inv_uart.o
 .text.uart_main_dma_puts
                0x00000000       0x70 src/inv/inv_uart.o
 .bss.cpu_irq_critical_section_counter
                0x00000000        0x4 src/inv/inv_uart.o
 .bss.cpu_irq_prev_interrupt_state
                0x00000000        0x1 src/inv/inv_uart.o
 .bss.gpio_level_0
                0x00000000        0x1 src/inv/inv_uart.o
 .bss.main_rx_buf_ind
                0x00000000        0x1 src/inv/inv_uart.o
 COMMON         0x00000000        0xc src/inv/inv_uart.o
 .text          0x00000000        0x0 src/ASF/common/utils/stdio/write.o
 .data          0x00000000        0x0 src/ASF/common/utils/stdio/write.o
 .bss           0x00000000        0x0 src/ASF/common/utils/stdio/write.o
 .bss.cpu_irq_critical_section_counter
                0x00000000        0x4 src/ASF/common/utils/stdio/write.o
 .bss.cpu_irq_prev_interrupt_state
                0x00000000        0x1 src/ASF/common/utils/stdio/write.o
 .text          0x00000000        0x0 src/ASF/common/services/serial/usart_serial.o
 .data          0x00000000        0x0 src/ASF/common/services/serial/usart_serial.o
 .bss           0x00000000        0x0 src/ASF/common/services/serial/usart_serial.o
 .text.usart_serial_write_packet
                0x00000000      0x108 src/ASF/common/services/serial/usart_serial.o
 .text.usart_serial_read_packet
                0x00000000      0x108 src/ASF/common/services/serial/usart_serial.o
 .bss.cpu_irq_critical_section_counter
                0x00000000        0x4 src/ASF/common/services/serial/usart_serial.o
 .bss.cpu_irq_prev_interrupt_state
                0x00000000        0x1 src/ASF/common/services/serial/usart_serial.o
 .comment       0x00000000       0x5a src/ASF/common/services/serial/usart_serial.o
 .ARM.attributes
                0x00000000       0x37 src/ASF/common/services/serial/usart_serial.o
 .text          0x00000000        0x0 src/ASF/common/services/delay/sam/cycle_counter.o
 .data          0x00000000        0x0 src/ASF/common/services/delay/sam/cycle_counter.o
 .bss           0x00000000        0x0 src/ASF/common/services/delay/sam/cycle_counter.o
 .bss.cpu_irq_critical_section_counter
                0x00000000        0x4 src/ASF/common/services/delay/sam/cycle_counter.o
 .bss.cpu_irq_prev_interrupt_state
                0x00000000        0x1 src/ASF/common/services/delay/sam/cycle_counter.o
 .text          0x00000000        0x0 src/ASF/sam/drivers/flexcom/flexcom.o
 .data          0x00000000        0x0 src/ASF/sam/drivers/flexcom/flexcom.o
 .bss           0x00000000        0x0 src/ASF/sam/drivers/flexcom/flexcom.o
 .text.flexcom_disable
                0x00000000       0xd4 src/ASF/sam/drivers/flexcom/flexcom.o
 .text.flexcom_get_opmode
                0x00000000        0xa src/ASF/sam/drivers/flexcom/flexcom.o
 .text.flexcom_write
                0x00000000        0x4 src/ASF/sam/drivers/flexcom/flexcom.o
 .text.flexcom_read
                0x00000000        0x6 src/ASF/sam/drivers/flexcom/flexcom.o
 .bss.cpu_irq_critical_section_counter
                0x00000000        0x4 src/ASF/sam/drivers/flexcom/flexcom.o
 .bss.cpu_irq_prev_interrupt_state
                0x00000000        0x1 src/ASF/sam/drivers/flexcom/flexcom.o
 .text          0x00000000        0x0 src/ASF/sam/drivers/pdc/pdc.o
 .data          0x00000000        0x0 src/ASF/sam/drivers/pdc/pdc.o
 .bss           0x00000000        0x0 src/ASF/sam/drivers/pdc/pdc.o
 .text.pdc_tx_init
                0x00000000       0x16 src/ASF/sam/drivers/pdc/pdc.o
 .text.pdc_rx_init
                0x00000000       0x16 src/ASF/sam/drivers/pdc/pdc.o
 .text.pdc_rx_clear_cnt
                0x00000000        0x8 src/ASF/sam/drivers/pdc/pdc.o
 .text.pdc_enable_transfer
                0x00000000        0xc src/ASF/sam/drivers/pdc/pdc.o
 .text.pdc_disable_transfer
                0x00000000       0x10 src/ASF/sam/drivers/pdc/pdc.o
 .text.pdc_read_status
                0x00000000        0x4 src/ASF/sam/drivers/pdc/pdc.o
 .text.pdc_read_rx_ptr
                0x00000000        0x4 src/ASF/sam/drivers/pdc/pdc.o
 .text.pdc_read_rx_counter
                0x00000000        0x4 src/ASF/sam/drivers/pdc/pdc.o
 .text.pdc_read_tx_ptr
                0x00000000        0x4 src/ASF/sam/drivers/pdc/pdc.o
 .text.pdc_read_tx_counter
                0x00000000        0x4 src/ASF/sam/drivers/pdc/pdc.o
 .text.pdc_read_rx_next_ptr
                0x00000000        0x4 src/ASF/sam/drivers/pdc/pdc.o
 .text.pdc_read_rx_next_counter
                0x00000000        0x4 src/ASF/sam/drivers/pdc/pdc.o
 .text.pdc_read_tx_next_ptr
                0x00000000        0x4 src/ASF/sam/drivers/pdc/pdc.o
 .text.pdc_read_tx_next_counter
                0x00000000        0x4 src/ASF/sam/drivers/pdc/pdc.o
 .bss.cpu_irq_critical_section_counter
                0x00000000        0x4 src/ASF/sam/drivers/pdc/pdc.o
 .bss.cpu_irq_prev_interrupt_state
                0x00000000        0x1 src/ASF/sam/drivers/pdc/pdc.o
 .comment       0x00000000       0x5a src/ASF/sam/drivers/pdc/pdc.o
 .ARM.attributes
                0x00000000       0x37 src/ASF/sam/drivers/pdc/pdc.o
 .text          0x00000000        0x0 src/ASF/sam/drivers/rtc/rtc.o
 .data          0x00000000        0x0 src/ASF/sam/drivers/rtc/rtc.o
 .bss           0x00000000        0x0 src/ASF/sam/drivers/rtc/rtc.o
 .text.rtc_set_hour_mode
                0x00000000       0x12 src/ASF/sam/drivers/rtc/rtc.o
 .text.rtc_get_hour_mode
                0x00000000        0x8 src/ASF/sam/drivers/rtc/rtc.o
 .text.rtc_enable_interrupt
                0x00000000        0x4 src/ASF/sam/drivers/rtc/rtc.o
 .text.rtc_disable_interrupt
                0x00000000        0x4 src/ASF/sam/drivers/rtc/rtc.o
 .text.rtc_get_interrupt_mask
                0x00000000        0x4 src/ASF/sam/drivers/rtc/rtc.o
 .text.rtc_get_time
                0x00000000       0x48 src/ASF/sam/drivers/rtc/rtc.o
 .text.rtc_set_time
                0x00000000       0x70 src/ASF/sam/drivers/rtc/rtc.o
 .text.rtc_set_time_alarm
                0x00000000       0x78 src/ASF/sam/drivers/rtc/rtc.o
 .text.rtc_get_date
                0x00000000       0x5e src/ASF/sam/drivers/rtc/rtc.o
 .text.rtc_set_date
                0x00000000       0x86 src/ASF/sam/drivers/rtc/rtc.o
 .text.rtc_set_date_alarm
                0x00000000       0x4c src/ASF/sam/drivers/rtc/rtc.o
 .text.rtc_clear_time_alarm
                0x00000000        0x6 src/ASF/sam/drivers/rtc/rtc.o
 .text.rtc_clear_date_alarm
                0x00000000        0xc src/ASF/sam/drivers/rtc/rtc.o
 .text.rtc_get_status
                0x00000000        0x4 src/ASF/sam/drivers/rtc/rtc.o
 .text.rtc_clear_status
                0x00000000        0x4 src/ASF/sam/drivers/rtc/rtc.o
 .text.rtc_get_valid_entry
                0x00000000        0x4 src/ASF/sam/drivers/rtc/rtc.o
 .text.rtc_set_time_event
                0x00000000       0x16 src/ASF/sam/drivers/rtc/rtc.o
 .text.rtc_set_calendar_event
                0x00000000       0x16 src/ASF/sam/drivers/rtc/rtc.o
 .text.rtc_set_calendar_mode
                0x00000000       0x12 src/ASF/sam/drivers/rtc/rtc.o
 .text.rtc_get_calendar_mode
                0x00000000        0x8 src/ASF/sam/drivers/rtc/rtc.o
 .text.rtc_set_calibration
                0x00000000       0x2c src/ASF/sam/drivers/rtc/rtc.o
 .text.rtc_set_waveform
                0x00000000       0xf0 src/ASF/sam/drivers/rtc/rtc.o
 .text.rtc_get_milliseconds
                0x00000000        0xa src/ASF/sam/drivers/rtc/rtc.o
 .bss.cpu_irq_critical_section_counter
                0x00000000        0x4 src/ASF/sam/drivers/rtc/rtc.o
 .bss.cpu_irq_prev_interrupt_state
                0x00000000        0x1 src/ASF/sam/drivers/rtc/rtc.o
 .comment       0x00000000       0x5a src/ASF/sam/drivers/rtc/rtc.o
 .ARM.attributes
                0x00000000       0x37 src/ASF/sam/drivers/rtc/rtc.o
 .text          0x00000000        0x0 src/ASF/common/services/clock/samg/sysclk.o
 .data          0x00000000        0x0 src/ASF/common/services/clock/samg/sysclk.o
 .bss           0x00000000        0x0 src/ASF/common/services/clock/samg/sysclk.o
 .text.sysclk_set_prescalers
                0x00000000       0x18 src/ASF/common/services/clock/samg/sysclk.o
 .text.sysclk_set_source
                0x00000000       0x38 src/ASF/common/services/clock/samg/sysclk.o
 .bss.cpu_irq_critical_section_counter
                0x00000000        0x4 src/ASF/common/services/clock/samg/sysclk.o
 .bss.cpu_irq_prev_interrupt_state
                0x00000000        0x1 src/ASF/common/services/clock/samg/sysclk.o
 .text          0x00000000        0x0 src/ASF/common/utils/interrupt/interrupt_sam_nvic.o
 .data          0x00000000        0x0 src/ASF/common/utils/interrupt/interrupt_sam_nvic.o
 .bss           0x00000000        0x0 src/ASF/common/utils/interrupt/interrupt_sam_nvic.o
 .text.cpu_irq_enter_critical
                0x00000000       0x30 src/ASF/common/utils/interrupt/interrupt_sam_nvic.o
 .text.cpu_irq_leave_critical
                0x00000000       0x2c src/ASF/common/utils/interrupt/interrupt_sam_nvic.o
 .bss.cpu_irq_critical_section_counter
                0x00000000        0x4 src/ASF/common/utils/interrupt/interrupt_sam_nvic.o
 .bss.cpu_irq_prev_interrupt_state
                0x00000000        0x1 src/ASF/common/utils/interrupt/interrupt_sam_nvic.o
 .text          0x00000000        0x0 src/ASF/sam/boards/samg55_xplained_pro/board_init.o
 .data          0x00000000        0x0 src/ASF/sam/boards/samg55_xplained_pro/board_init.o
 .bss           0x00000000        0x0 src/ASF/sam/boards/samg55_xplained_pro/board_init.o
 .text.system_board_init_I2C
                0x00000000       0xdc src/ASF/sam/boards/samg55_xplained_pro/board_init.o
 .bss.cpu_irq_critical_section_counter
                0x00000000        0x4 src/ASF/sam/boards/samg55_xplained_pro/board_init.o
 .bss.cpu_irq_prev_interrupt_state
                0x00000000        0x1 src/ASF/sam/boards/samg55_xplained_pro/board_init.o
 .text          0x00000000        0x0 src/ASF/sam/drivers/efc/efc.o
 .data          0x00000000        0x0 src/ASF/sam/drivers/efc/efc.o
 .bss           0x00000000        0x0 src/ASF/sam/drivers/efc/efc.o
 .text.efc_get_flash_access_mode
                0x00000000        0x8 src/ASF/sam/drivers/efc/efc.o
 .text.efc_get_wait_state
                0x00000000        0x8 src/ASF/sam/drivers/efc/efc.o
 .text.efc_get_status
                0x00000000        0x4 src/ASF/sam/drivers/efc/efc.o
 .text.efc_get_result
                0x00000000        0x4 src/ASF/sam/drivers/efc/efc.o
 .text.efc_init
                0x00000000       0x1c src/ASF/sam/drivers/efc/efc.o
 .text.efc_enable_cloe
                0x00000000       0x10 src/ASF/sam/drivers/efc/efc.o
 .text.efc_disable_cloe
                0x00000000       0x10 src/ASF/sam/drivers/efc/efc.o
 .text.efc_enable_frdy_interrupt
                0x00000000       0x10 src/ASF/sam/drivers/efc/efc.o
 .text.efc_disable_frdy_interrupt
                0x00000000       0x10 src/ASF/sam/drivers/efc/efc.o
 .text.efc_set_flash_access_mode
                0x00000000       0x10 src/ASF/sam/drivers/efc/efc.o
 .text.efc_set_wait_state
                0x00000000       0x18 src/ASF/sam/drivers/efc/efc.o
 .text.efc_perform_command
                0x00000000       0x58 src/ASF/sam/drivers/efc/efc.o
 .bss.cpu_irq_critical_section_counter
                0x00000000        0x4 src/ASF/sam/drivers/efc/efc.o
 .bss.cpu_irq_prev_interrupt_state
                0x00000000        0x1 src/ASF/sam/drivers/efc/efc.o
 .text          0x00000000        0x0 src/ASF/sam/drivers/pmc/pmc.o
 .data          0x00000000        0x0 src/ASF/sam/drivers/pmc/pmc.o
 .bss           0x00000000        0x0 src/ASF/sam/drivers/pmc/pmc.o
 .text.pmc_mck_set_prescaler
                0x00000000       0x18 src/ASF/sam/drivers/pmc/pmc.o
 .text.pmc_mck_set_source
                0x00000000       0x18 src/ASF/sam/drivers/pmc/pmc.o
 .text.pmc_switch_mck_to_sclk
                0x00000000       0x40 src/ASF/sam/drivers/pmc/pmc.o
 .text.pmc_switch_mck_to_mainck
                0x00000000       0x44 src/ASF/sam/drivers/pmc/pmc.o
 .text.pmc_switch_mck_to_pllbck
                0x00000000       0x40 src/ASF/sam/drivers/pmc/pmc.o
 .text.pmc_switch_mainck_to_fastrc
                0x00000000       0x44 src/ASF/sam/drivers/pmc/pmc.o
 .text.pmc_osc_enable_fastrc
                0x00000000       0x34 src/ASF/sam/drivers/pmc/pmc.o
 .text.pmc_osc_disable_fastrc
                0x00000000       0x18 src/ASF/sam/drivers/pmc/pmc.o
 .text.pmc_osc_is_ready_fastrc
                0x00000000       0x10 src/ASF/sam/drivers/pmc/pmc.o
 .text.pmc_osc_enable_main_xtal
                0x00000000       0x24 src/ASF/sam/drivers/pmc/pmc.o
 .text.pmc_osc_bypass_main_xtal
                0x00000000       0x18 src/ASF/sam/drivers/pmc/pmc.o
 .text.pmc_osc_disable_main_xtal
                0x00000000       0x14 src/ASF/sam/drivers/pmc/pmc.o
 .text.pmc_osc_is_bypassed_main_xtal
                0x00000000       0x10 src/ASF/sam/drivers/pmc/pmc.o
 .text.pmc_osc_is_ready_main_xtal
                0x00000000       0x10 src/ASF/sam/drivers/pmc/pmc.o
 .text.pmc_switch_mainck_to_xtal
                0x00000000       0x48 src/ASF/sam/drivers/pmc/pmc.o
 .text.pmc_osc_disable_xtal
                0x00000000       0x20 src/ASF/sam/drivers/pmc/pmc.o
 .text.pmc_osc_is_ready_mainck
                0x00000000       0x10 src/ASF/sam/drivers/pmc/pmc.o
 .text.pmc_mainck_osc_select
                0x00000000       0x1c src/ASF/sam/drivers/pmc/pmc.o
 .text.pmc_enable_pllack
                0x00000000       0x2c src/ASF/sam/drivers/pmc/pmc.o
 .text.pmc_enable_pllbck
                0x00000000       0x2c src/ASF/sam/drivers/pmc/pmc.o
 .text.pmc_disable_pllbck
                0x00000000        0xc src/ASF/sam/drivers/pmc/pmc.o
 .text.pmc_is_locked_pllbck
                0x00000000       0x10 src/ASF/sam/drivers/pmc/pmc.o
 .text.pmc_disable_periph_clk
                0x00000000       0x40 src/ASF/sam/drivers/pmc/pmc.o
 .text.pmc_enable_all_periph_clk
                0x00000000       0x18 src/ASF/sam/drivers/pmc/pmc.o
 .text.pmc_disable_all_periph_clk
                0x00000000       0x18 src/ASF/sam/drivers/pmc/pmc.o
 .text.pmc_is_periph_clk_enabled
                0x00000000       0x20 src/ASF/sam/drivers/pmc/pmc.o
 .text.pmc_pck_set_prescaler
                0x00000000       0x2c src/ASF/sam/drivers/pmc/pmc.o
 .text.pmc_pck_set_source
                0x00000000       0x2c src/ASF/sam/drivers/pmc/pmc.o
 .text.pmc_switch_pck_to_sclk
                0x00000000       0x2c src/ASF/sam/drivers/pmc/pmc.o
 .text.pmc_switch_pck_to_mainck
                0x00000000       0x30 src/ASF/sam/drivers/pmc/pmc.o
 .text.pmc_switch_pck_to_pllack
                0x00000000       0x30 src/ASF/sam/drivers/pmc/pmc.o
 .text.pmc_switch_pck_to_pllbck
                0x00000000       0x30 src/ASF/sam/drivers/pmc/pmc.o
 .text.pmc_enable_all_pck
                0x00000000       0x10 src/ASF/sam/drivers/pmc/pmc.o
 .text.pmc_disable_all_pck
                0x00000000       0x10 src/ASF/sam/drivers/pmc/pmc.o
 .text.pmc_is_pck_enabled
                0x00000000       0x1c src/ASF/sam/drivers/pmc/pmc.o
 .text.pmc_enable_udpck
                0x00000000        0xc src/ASF/sam/drivers/pmc/pmc.o
 .text.pmc_disable_udpck
                0x00000000        0xc src/ASF/sam/drivers/pmc/pmc.o
 .text.pmc_switch_uhpck_to_pllack
                0x00000000       0x10 src/ASF/sam/drivers/pmc/pmc.o
 .text.pmc_switch_udpck_to_pllack
                0x00000000        0x8 src/ASF/sam/drivers/pmc/pmc.o
 .text.pmc_switch_uhpck_to_pllbck
                0x00000000       0x14 src/ASF/sam/drivers/pmc/pmc.o
 .text.pmc_switch_udpck_to_pllbck
                0x00000000        0x8 src/ASF/sam/drivers/pmc/pmc.o
 .text.pmc_enable_uhpck
                0x00000000        0xc src/ASF/sam/drivers/pmc/pmc.o
 .text.pmc_enable_interrupt
                0x00000000        0xc src/ASF/sam/drivers/pmc/pmc.o
 .text.pmc_disable_interrupt
                0x00000000        0xc src/ASF/sam/drivers/pmc/pmc.o
 .text.pmc_get_interrupt_mask
                0x00000000        0xc src/ASF/sam/drivers/pmc/pmc.o
 .text.pmc_get_status
                0x00000000        0xc src/ASF/sam/drivers/pmc/pmc.o
 .text.pmc_set_fast_startup_input
                0x00000000       0x14 src/ASF/sam/drivers/pmc/pmc.o
 .text.pmc_clr_fast_startup_input
                0x00000000       0x14 src/ASF/sam/drivers/pmc/pmc.o
 .text.pmc_enable_sleepmode
                0x00000000       0x30 src/ASF/sam/drivers/pmc/pmc.o
 .text.pmc_set_flash_in_wait_mode
                0x00000000        0xc src/ASF/sam/drivers/pmc/pmc.o
 .text.pmc_enable_waitmode
                0x00000000       0x3c src/ASF/sam/drivers/pmc/pmc.o
 .text.pmc_enable_backupmode
                0x00000000       0x28 src/ASF/sam/drivers/pmc/pmc.o
 .text.pmc_enable_clock_failure_detector
                0x00000000       0x14 src/ASF/sam/drivers/pmc/pmc.o
 .text.pmc_disable_clock_failure_detector
                0x00000000       0x14 src/ASF/sam/drivers/pmc/pmc.o
 .text.pmc_set_writeprotect
                0x00000000       0x1c src/ASF/sam/drivers/pmc/pmc.o
 .text.pmc_get_writeprotect_status
                0x00000000        0xc src/ASF/sam/drivers/pmc/pmc.o
 .text.pmc_disable_sleepwalking
                0x00000000       0x20 src/ASF/sam/drivers/pmc/pmc.o
 .text.pmc_enable_sleepwalking
                0x00000000       0x3c src/ASF/sam/drivers/pmc/pmc.o
 .text.pmc_get_sleepwalking_status0
                0x00000000        0xc src/ASF/sam/drivers/pmc/pmc.o
 .text.pmc_get_active_status0
                0x00000000        0xc src/ASF/sam/drivers/pmc/pmc.o
 .bss.cpu_irq_critical_section_counter
                0x00000000        0x4 src/ASF/sam/drivers/pmc/pmc.o
 .bss.cpu_irq_prev_interrupt_state
                0x00000000        0x1 src/ASF/sam/drivers/pmc/pmc.o
 .data.ul_flash_in_wait_mode
                0x00000000        0x4 src/ASF/sam/drivers/pmc/pmc.o
 .text          0x00000000        0x0 src/ASF/sam/drivers/pmc/sleep.o
 .data          0x00000000        0x0 src/ASF/sam/drivers/pmc/sleep.o
 .bss           0x00000000        0x0 src/ASF/sam/drivers/pmc/sleep.o
 .text.pmc_sleep
                0x00000000      0x220 src/ASF/sam/drivers/pmc/sleep.o
 .text.pmc_is_wakeup_clocks_restored
                0x00000000       0x10 src/ASF/sam/drivers/pmc/sleep.o
 .text.pmc_wait_wakeup_clocks_restore
                0x00000000       0x2c src/ASF/sam/drivers/pmc/sleep.o
 .bss.b_is_sleep_clock_used
                0x00000000        0x1 src/ASF/sam/drivers/pmc/sleep.o
 .bss.callback_clocks_restored
                0x00000000        0x4 src/ASF/sam/drivers/pmc/sleep.o
 .bss.cpu_irq_critical_section_counter
                0x00000000        0x4 src/ASF/sam/drivers/pmc/sleep.o
 .bss.cpu_irq_prev_interrupt_state
                0x00000000        0x1 src/ASF/sam/drivers/pmc/sleep.o
 .comment       0x00000000       0x5a src/ASF/sam/drivers/pmc/sleep.o
 .ARM.attributes
                0x00000000       0x37 src/ASF/sam/drivers/pmc/sleep.o
 .text          0x00000000        0x0 src/ASF/sam/drivers/supc/supc.o
 .data          0x00000000        0x0 src/ASF/sam/drivers/supc/supc.o
 .bss           0x00000000        0x0 src/ASF/sam/drivers/supc/supc.o
 .text.supc_switch_sclk_to_32kxtal
                0x00000000       0x26 src/ASF/sam/drivers/supc/supc.o
 .text.supc_enable_brownout_detector
                0x00000000       0x12 src/ASF/sam/drivers/supc/supc.o
 .text.supc_disable_brownout_detector
                0x00000000       0x16 src/ASF/sam/drivers/supc/supc.o
 .text.supc_enable_brownout_reset
                0x00000000       0x16 src/ASF/sam/drivers/supc/supc.o
 .text.supc_disable_brownout_reset
                0x00000000       0x12 src/ASF/sam/drivers/supc/supc.o
 .text.supc_set_monitor_threshold
                0x00000000       0x10 src/ASF/sam/drivers/supc/supc.o
 .text.supc_set_monitor_sampling_period
                0x00000000       0x10 src/ASF/sam/drivers/supc/supc.o
 .text.supc_enable_monitor_reset
                0x00000000        0xa src/ASF/sam/drivers/supc/supc.o
 .text.supc_disable_monitor_reset
                0x00000000        0xa src/ASF/sam/drivers/supc/supc.o
 .text.supc_enable_monitor_interrupt
                0x00000000        0xa src/ASF/sam/drivers/supc/supc.o
 .text.supc_disable_monitor_interrupt
                0x00000000        0xa src/ASF/sam/drivers/supc/supc.o
 .text.supc_set_wakeup_mode
                0x00000000        0x4 src/ASF/sam/drivers/supc/supc.o
 .text.supc_set_wakeup_inputs
                0x00000000        0x6 src/ASF/sam/drivers/supc/supc.o
 .text.supc_get_status
                0x00000000        0x4 src/ASF/sam/drivers/supc/supc.o
 .text.supc_set_regulator_trim_factory
                0x00000000        0xe src/ASF/sam/drivers/supc/supc.o
 .bss.cpu_irq_critical_section_counter
                0x00000000        0x4 src/ASF/sam/drivers/supc/supc.o
 .bss.cpu_irq_prev_interrupt_state
                0x00000000        0x1 src/ASF/sam/drivers/supc/supc.o
 .text          0x00000000        0x0 src/ASF/sam/utils/cmsis/samg/samg55/source/templates/gcc/startup_samg55.o
 .data          0x00000000        0x0 src/ASF/sam/utils/cmsis/samg/samg55/source/templates/gcc/startup_samg55.o
 .bss           0x00000000        0x0 src/ASF/sam/utils/cmsis/samg/samg55/source/templates/gcc/startup_samg55.o
 .bss.cpu_irq_critical_section_counter
                0x00000000        0x4 src/ASF/sam/utils/cmsis/samg/samg55/source/templates/gcc/startup_samg55.o
 .bss.cpu_irq_prev_interrupt_state
                0x00000000        0x1 src/ASF/sam/utils/cmsis/samg/samg55/source/templates/gcc/startup_samg55.o
 .text          0x00000000        0x0 src/ASF/sam/utils/cmsis/samg/samg55/source/templates/system_samg55.o
 .data          0x00000000        0x0 src/ASF/sam/utils/cmsis/samg/samg55/source/templates/system_samg55.o
 .bss           0x00000000        0x0 src/ASF/sam/utils/cmsis/samg/samg55/source/templates/system_samg55.o
 .text.SystemInit
                0x00000000       0x3c src/ASF/sam/utils/cmsis/samg/samg55/source/templates/system_samg55.o
 .text          0x00000000        0x0 src/ASF/sam/utils/syscalls/gcc/syscalls.o
 .data          0x00000000        0x0 src/ASF/sam/utils/syscalls/gcc/syscalls.o
 .bss           0x00000000        0x0 src/ASF/sam/utils/syscalls/gcc/syscalls.o
 .text.link     0x00000000        0x6 src/ASF/sam/utils/syscalls/gcc/syscalls.o
 .text._exit    0x00000000        0x4 src/ASF/sam/utils/syscalls/gcc/syscalls.o
 .text._kill    0x00000000        0x2 src/ASF/sam/utils/syscalls/gcc/syscalls.o
 .text._getpid  0x00000000        0x6 src/ASF/sam/utils/syscalls/gcc/syscalls.o
 .text          0x00000000        0x0 src/inv/protocol_functions.o
 .data          0x00000000        0x0 src/inv/protocol_functions.o
 .bss           0x00000000        0x0 src/inv/protocol_functions.o
 .text.IAM20685_crc_calculatefast
                0x00000000       0x90 src/inv/protocol_functions.o
 .text.IAM20685_crc_calculate
                0x00000000       0x36 src/inv/protocol_functions.o
 .text.spi3_crc_calculate
                0x00000000        0x8 src/inv/protocol_functions.o
 .bss.cpu_irq_critical_section_counter
                0x00000000        0x4 src/inv/protocol_functions.o
 .bss.cpu_irq_prev_interrupt_state
                0x00000000        0x1 src/inv/protocol_functions.o
 .text          0x00000000        0x0 src/main.o
 .data          0x00000000        0x0 src/main.o
 .bss           0x00000000        0x0 src/main.o
 .text.vDMATask
                0x00000000       0x28 src/main.o
 .bss.cpu_irq_critical_section_counter
                0x00000000        0x4 src/main.o
 .bss.cpu_irq_prev_interrupt_state
                0x00000000        0x1 src/main.o
 .data.UI_IF    0x00000000        0x4 src/main.o
 .text          0x00000000        0x0 c:/program files (x86)/atmel/studio/7.0/toolchain/arm/arm-gnu-toolchain/bin/../lib/gcc/arm-none-eabi/6.3.1/../../../../arm-none-eabi/lib/thumb/v7e-m\libc.a(lib_a-exit.o)
 .data          0x00000000        0x0 c:/program files (x86)/atmel/studio/7.0/toolchain/arm/arm-gnu-toolchain/bin/../lib/gcc/arm-none-eabi/6.3.1/../../../../arm-none-eabi/lib/thumb/v7e-m\libc.a(lib_a-exit.o)
 .bss           0x00000000        0x0 c:/program files (x86)/atmel/studio/7.0/toolchain/arm/arm-gnu-toolchain/bin/../lib/gcc/arm-none-eabi/6.3.1/../../../../arm-none-eabi/lib/thumb/v7e-m\libc.a(lib_a-exit.o)
 .text.exit     0x00000000       0x20 c:/program files (x86)/atmel/studio/7.0/toolchain/arm/arm-gnu-toolchain/bin/../lib/gcc/arm-none-eabi/6.3.1/../../../../arm-none-eabi/lib/thumb/v7e-m\libc.a(lib_a-exit.o)
 .debug_frame   0x00000000       0x28 c:/program files (x86)/atmel/studio/7.0/toolchain/arm/arm-gnu-toolchain/bin/../lib/gcc/arm-none-eabi/6.3.1/../../../../arm-none-eabi/lib/thumb/v7e-m\libc.a(lib_a-exit.o)
 .ARM.attributes
                0x00000000       0x2e c:/program files (x86)/atmel/studio/7.0/toolchain/arm/arm-gnu-toolchain/bin/../lib/gcc/arm-none-eabi/6.3.1/../../../../arm-none-eabi/lib/thumb/v7e-m\libc.a(lib_a-exit.o)
 .text          0x00000000        0x0 c:/program files (x86)/atmel/studio/7.0/toolchain/arm/arm-gnu-toolchain/bin/../lib/gcc/arm-none-eabi/6.3.1/../../../../arm-none-eabi/lib/thumb/v7e-m\libc.a(lib_a-impure.o)
 .data          0x00000000        0x0 c:/program files (x86)/atmel/studio/7.0/toolchain/arm/arm-gnu-toolchain/bin/../lib/gcc/arm-none-eabi/6.3.1/../../../../arm-none-eabi/lib/thumb/v7e-m\libc.a(lib_a-impure.o)
 .bss           0x00000000        0x0 c:/program files (x86)/atmel/studio/7.0/toolchain/arm/arm-gnu-toolchain/bin/../lib/gcc/arm-none-eabi/6.3.1/../../../../arm-none-eabi/lib/thumb/v7e-m\libc.a(lib_a-impure.o)
 .text          0x00000000        0x0 c:/program files (x86)/atmel/studio/7.0/toolchain/arm/arm-gnu-toolchain/bin/../lib/gcc/arm-none-eabi/6.3.1/../../../../arm-none-eabi/lib/thumb/v7e-m\libc.a(lib_a-init.o)
 .data          0x00000000        0x0 c:/program files (x86)/atmel/studio/7.0/toolchain/arm/arm-gnu-toolchain/bin/../lib/gcc/arm-none-eabi/6.3.1/../../../../arm-none-eabi/lib/thumb/v7e-m\libc.a(lib_a-init.o)
 .bss           0x00000000        0x0 c:/program files (x86)/atmel/studio/7.0/toolchain/arm/arm-gnu-toolchain/bin/../lib/gcc/arm-none-eabi/6.3.1/../../../../arm-none-eabi/lib/thumb/v7e-m\libc.a(lib_a-init.o)
 .text          0x00000000        0x0 c:/program files (x86)/atmel/studio/7.0/toolchain/arm/arm-gnu-toolchain/bin/../lib/gcc/arm-none-eabi/6.3.1/../../../../arm-none-eabi/lib/thumb/v7e-m\libc.a(lib_a-iprintf.o)
 .data          0x00000000        0x0 c:/program files (x86)/atmel/studio/7.0/toolchain/arm/arm-gnu-toolchain/bin/../lib/gcc/arm-none-eabi/6.3.1/../../../../arm-none-eabi/lib/thumb/v7e-m\libc.a(lib_a-iprintf.o)
 .bss           0x00000000        0x0 c:/program files (x86)/atmel/studio/7.0/toolchain/arm/arm-gnu-toolchain/bin/../lib/gcc/arm-none-eabi/6.3.1/../../../../arm-none-eabi/lib/thumb/v7e-m\libc.a(lib_a-iprintf.o)
 .text._iprintf_r
                0x00000000       0x20 c:/program files (x86)/atmel/studio/7.0/toolchain/arm/arm-gnu-toolchain/bin/../lib/gcc/arm-none-eabi/6.3.1/../../../../arm-none-eabi/lib/thumb/v7e-m\libc.a(lib_a-iprintf.o)
 .data          0x00000000        0x0 c:/program files (x86)/atmel/studio/7.0/toolchain/arm/arm-gnu-toolchain/bin/../lib/gcc/arm-none-eabi/6.3.1/../../../../arm-none-eabi/lib/thumb/v7e-m\libc.a(lib_a-memcpy.o)
 .bss           0x00000000        0x0 c:/program files (x86)/atmel/studio/7.0/toolchain/arm/arm-gnu-toolchain/bin/../lib/gcc/arm-none-eabi/6.3.1/../../../../arm-none-eabi/lib/thumb/v7e-m\libc.a(lib_a-memcpy.o)
 .text          0x00000000        0x0 c:/program files (x86)/atmel/studio/7.0/toolchain/arm/arm-gnu-toolchain/bin/../lib/gcc/arm-none-eabi/6.3.1/../../../../arm-none-eabi/lib/thumb/v7e-m\libc.a(lib_a-memset.o)
 .data          0x00000000        0x0 c:/program files (x86)/atmel/studio/7.0/toolchain/arm/arm-gnu-toolchain/bin/../lib/gcc/arm-none-eabi/6.3.1/../../../../arm-none-eabi/lib/thumb/v7e-m\libc.a(lib_a-memset.o)
 .bss           0x00000000        0x0 c:/program files (x86)/atmel/studio/7.0/toolchain/arm/arm-gnu-toolchain/bin/../lib/gcc/arm-none-eabi/6.3.1/../../../../arm-none-eabi/lib/thumb/v7e-m\libc.a(lib_a-memset.o)
 .text          0x00000000        0x0 c:/program files (x86)/atmel/studio/7.0/toolchain/arm/arm-gnu-toolchain/bin/../lib/gcc/arm-none-eabi/6.3.1/../../../../arm-none-eabi/lib/thumb/v7e-m\libc.a(lib_a-setbuf.o)
 .data          0x00000000        0x0 c:/program files (x86)/atmel/studio/7.0/toolchain/arm/arm-gnu-toolchain/bin/../lib/gcc/arm-none-eabi/6.3.1/../../../../arm-none-eabi/lib/thumb/v7e-m\libc.a(lib_a-setbuf.o)
 .bss           0x00000000        0x0 c:/program files (x86)/atmel/studio/7.0/toolchain/arm/arm-gnu-toolchain/bin/../lib/gcc/arm-none-eabi/6.3.1/../../../../arm-none-eabi/lib/thumb/v7e-m\libc.a(lib_a-setbuf.o)
 .text          0x00000000        0x0 c:/program files (x86)/atmel/studio/7.0/toolchain/arm/arm-gnu-toolchain/bin/../lib/gcc/arm-none-eabi/6.3.1/../../../../arm-none-eabi/lib/thumb/v7e-m\libc.a(lib_a-setvbuf.o)
 .data          0x00000000        0x0 c:/program files (x86)/atmel/studio/7.0/toolchain/arm/arm-gnu-toolchain/bin/../lib/gcc/arm-none-eabi/6.3.1/../../../../arm-none-eabi/lib/thumb/v7e-m\libc.a(lib_a-setvbuf.o)
 .bss           0x00000000        0x0 c:/program files (x86)/atmel/studio/7.0/toolchain/arm/arm-gnu-toolchain/bin/../lib/gcc/arm-none-eabi/6.3.1/../../../../arm-none-eabi/lib/thumb/v7e-m\libc.a(lib_a-setvbuf.o)
 .text          0x00000000        0x0 c:/program files (x86)/atmel/studio/7.0/toolchain/arm/arm-gnu-toolchain/bin/../lib/gcc/arm-none-eabi/6.3.1/../../../../arm-none-eabi/lib/thumb/v7e-m\libc.a(lib_a-vfiprintf.o)
 .data          0x00000000        0x0 c:/program files (x86)/atmel/studio/7.0/toolchain/arm/arm-gnu-toolchain/bin/../lib/gcc/arm-none-eabi/6.3.1/../../../../arm-none-eabi/lib/thumb/v7e-m\libc.a(lib_a-vfiprintf.o)
 .bss           0x00000000        0x0 c:/program files (x86)/atmel/studio/7.0/toolchain/arm/arm-gnu-toolchain/bin/../lib/gcc/arm-none-eabi/6.3.1/../../../../arm-none-eabi/lib/thumb/v7e-m\libc.a(lib_a-vfiprintf.o)
 .text.__sprint_r
                0x00000000       0x14 c:/program files (x86)/atmel/studio/7.0/toolchain/arm/arm-gnu-toolchain/bin/../lib/gcc/arm-none-eabi/6.3.1/../../../../arm-none-eabi/lib/thumb/v7e-m\libc.a(lib_a-vfiprintf.o)
 .text.vfiprintf
                0x00000000       0x18 c:/program files (x86)/atmel/studio/7.0/toolchain/arm/arm-gnu-toolchain/bin/../lib/gcc/arm-none-eabi/6.3.1/../../../../arm-none-eabi/lib/thumb/v7e-m\libc.a(lib_a-vfiprintf.o)
 .text          0x00000000        0x0 c:/program files (x86)/atmel/studio/7.0/toolchain/arm/arm-gnu-toolchain/bin/../lib/gcc/arm-none-eabi/6.3.1/../../../../arm-none-eabi/lib/thumb/v7e-m\libc.a(lib_a-wsetup.o)
 .data          0x00000000        0x0 c:/program files (x86)/atmel/studio/7.0/toolchain/arm/arm-gnu-toolchain/bin/../lib/gcc/arm-none-eabi/6.3.1/../../../../arm-none-eabi/lib/thumb/v7e-m\libc.a(lib_a-wsetup.o)
 .bss           0x00000000        0x0 c:/program files (x86)/atmel/studio/7.0/toolchain/arm/arm-gnu-toolchain/bin/../lib/gcc/arm-none-eabi/6.3.1/../../../../arm-none-eabi/lib/thumb/v7e-m\libc.a(lib_a-wsetup.o)
 .text          0x00000000        0x0 c:/program files (x86)/atmel/studio/7.0/toolchain/arm/arm-gnu-toolchain/bin/../lib/gcc/arm-none-eabi/6.3.1/../../../../arm-none-eabi/lib/thumb/v7e-m\libc.a(lib_a-__call_atexit.o)
 .data          0x00000000        0x0 c:/program files (x86)/atmel/studio/7.0/toolchain/arm/arm-gnu-toolchain/bin/../lib/gcc/arm-none-eabi/6.3.1/../../../../arm-none-eabi/lib/thumb/v7e-m\libc.a(lib_a-__call_atexit.o)
 .bss           0x00000000        0x0 c:/program files (x86)/atmel/studio/7.0/toolchain/arm/arm-gnu-toolchain/bin/../lib/gcc/arm-none-eabi/6.3.1/../../../../arm-none-eabi/lib/thumb/v7e-m\libc.a(lib_a-__call_atexit.o)
 .text.__call_exitprocs
                0x00000000       0xe8 c:/program files (x86)/atmel/studio/7.0/toolchain/arm/arm-gnu-toolchain/bin/../lib/gcc/arm-none-eabi/6.3.1/../../../../arm-none-eabi/lib/thumb/v7e-m\libc.a(lib_a-__call_atexit.o)
 .text          0x00000000        0x0 c:/program files (x86)/atmel/studio/7.0/toolchain/arm/arm-gnu-toolchain/bin/../lib/gcc/arm-none-eabi/6.3.1/../../../../arm-none-eabi/lib/thumb/v7e-m\libc.a(lib_a-atexit.o)
 .data          0x00000000        0x0 c:/program files (x86)/atmel/studio/7.0/toolchain/arm/arm-gnu-toolchain/bin/../lib/gcc/arm-none-eabi/6.3.1/../../../../arm-none-eabi/lib/thumb/v7e-m\libc.a(lib_a-atexit.o)
 .bss           0x00000000        0x0 c:/program files (x86)/atmel/studio/7.0/toolchain/arm/arm-gnu-toolchain/bin/../lib/gcc/arm-none-eabi/6.3.1/../../../../arm-none-eabi/lib/thumb/v7e-m\libc.a(lib_a-atexit.o)
 .text          0x00000000        0x0 c:/program files (x86)/atmel/studio/7.0/toolchain/arm/arm-gnu-toolchain/bin/../lib/gcc/arm-none-eabi/6.3.1/../../../../arm-none-eabi/lib/thumb/v7e-m\libc.a(lib_a-fflush.o)
 .data          0x00000000        0x0 c:/program files (x86)/atmel/studio/7.0/toolchain/arm/arm-gnu-toolchain/bin/../lib/gcc/arm-none-eabi/6.3.1/../../../../arm-none-eabi/lib/thumb/v7e-m\libc.a(lib_a-fflush.o)
 .bss           0x00000000        0x0 c:/program files (x86)/atmel/studio/7.0/toolchain/arm/arm-gnu-toolchain/bin/../lib/gcc/arm-none-eabi/6.3.1/../../../../arm-none-eabi/lib/thumb/v7e-m\libc.a(lib_a-fflush.o)
 .text.fflush   0x00000000       0x24 c:/program files (x86)/atmel/studio/7.0/toolchain/arm/arm-gnu-toolchain/bin/../lib/gcc/arm-none-eabi/6.3.1/../../../../arm-none-eabi/lib/thumb/v7e-m\libc.a(lib_a-fflush.o)
 .text          0x00000000        0x0 c:/program files (x86)/atmel/studio/7.0/toolchain/arm/arm-gnu-toolchain/bin/../lib/gcc/arm-none-eabi/6.3.1/../../../../arm-none-eabi/lib/thumb/v7e-m\libc.a(lib_a-findfp.o)
 .data          0x00000000        0x0 c:/program files (x86)/atmel/studio/7.0/toolchain/arm/arm-gnu-toolchain/bin/../lib/gcc/arm-none-eabi/6.3.1/../../../../arm-none-eabi/lib/thumb/v7e-m\libc.a(lib_a-findfp.o)
 .bss           0x00000000        0x0 c:/program files (x86)/atmel/studio/7.0/toolchain/arm/arm-gnu-toolchain/bin/../lib/gcc/arm-none-eabi/6.3.1/../../../../arm-none-eabi/lib/thumb/v7e-m\libc.a(lib_a-findfp.o)
 .text.__fp_lock
                0x00000000       0x1c c:/program files (x86)/atmel/studio/7.0/toolchain/arm/arm-gnu-toolchain/bin/../lib/gcc/arm-none-eabi/6.3.1/../../../../arm-none-eabi/lib/thumb/v7e-m\libc.a(lib_a-findfp.o)
 .text.__fp_unlock
                0x00000000       0x1c c:/program files (x86)/atmel/studio/7.0/toolchain/arm/arm-gnu-toolchain/bin/../lib/gcc/arm-none-eabi/6.3.1/../../../../arm-none-eabi/lib/thumb/v7e-m\libc.a(lib_a-findfp.o)
 .text.__sfmoreglue
                0x00000000       0x30 c:/program files (x86)/atmel/studio/7.0/toolchain/arm/arm-gnu-toolchain/bin/../lib/gcc/arm-none-eabi/6.3.1/../../../../arm-none-eabi/lib/thumb/v7e-m\libc.a(lib_a-findfp.o)
 .text._cleanup
                0x00000000       0x14 c:/program files (x86)/atmel/studio/7.0/toolchain/arm/arm-gnu-toolchain/bin/../lib/gcc/arm-none-eabi/6.3.1/../../../../arm-none-eabi/lib/thumb/v7e-m\libc.a(lib_a-findfp.o)
 .text.__sfp    0x00000000       0xa8 c:/program files (x86)/atmel/studio/7.0/toolchain/arm/arm-gnu-toolchain/bin/../lib/gcc/arm-none-eabi/6.3.1/../../../../arm-none-eabi/lib/thumb/v7e-m\libc.a(lib_a-findfp.o)
 .text.__sinit_lock_acquire
                0x00000000        0xc c:/program files (x86)/atmel/studio/7.0/toolchain/arm/arm-gnu-toolchain/bin/../lib/gcc/arm-none-eabi/6.3.1/../../../../arm-none-eabi/lib/thumb/v7e-m\libc.a(lib_a-findfp.o)
 .text.__sinit_lock_release
                0x00000000        0xc c:/program files (x86)/atmel/studio/7.0/toolchain/arm/arm-gnu-toolchain/bin/../lib/gcc/arm-none-eabi/6.3.1/../../../../arm-none-eabi/lib/thumb/v7e-m\libc.a(lib_a-findfp.o)
 .text.__fp_lock_all
                0x00000000       0x24 c:/program files (x86)/atmel/studio/7.0/toolchain/arm/arm-gnu-toolchain/bin/../lib/gcc/arm-none-eabi/6.3.1/../../../../arm-none-eabi/lib/thumb/v7e-m\libc.a(lib_a-findfp.o)
 .text.__fp_unlock_all
                0x00000000       0x24 c:/program files (x86)/atmel/studio/7.0/toolchain/arm/arm-gnu-toolchain/bin/../lib/gcc/arm-none-eabi/6.3.1/../../../../arm-none-eabi/lib/thumb/v7e-m\libc.a(lib_a-findfp.o)
 .text          0x00000000        0x0 c:/program files (x86)/atmel/studio/7.0/toolchain/arm/arm-gnu-toolchain/bin/../lib/gcc/arm-none-eabi/6.3.1/../../../../arm-none-eabi/lib/thumb/v7e-m\libc.a(lib_a-fini.o)
 .data          0x00000000        0x0 c:/program files (x86)/atmel/studio/7.0/toolchain/arm/arm-gnu-toolchain/bin/../lib/gcc/arm-none-eabi/6.3.1/../../../../arm-none-eabi/lib/thumb/v7e-m\libc.a(lib_a-fini.o)
 .bss           0x00000000        0x0 c:/program files (x86)/atmel/studio/7.0/toolchain/arm/arm-gnu-toolchain/bin/../lib/gcc/arm-none-eabi/6.3.1/../../../../arm-none-eabi/lib/thumb/v7e-m\libc.a(lib_a-fini.o)
 .text          0x00000000        0x0 c:/program files (x86)/atmel/studio/7.0/toolchain/arm/arm-gnu-toolchain/bin/../lib/gcc/arm-none-eabi/6.3.1/../../../../arm-none-eabi/lib/thumb/v7e-m\libc.a(lib_a-fputwc.o)
 .data          0x00000000        0x0 c:/program files (x86)/atmel/studio/7.0/toolchain/arm/arm-gnu-toolchain/bin/../lib/gcc/arm-none-eabi/6.3.1/../../../../arm-none-eabi/lib/thumb/v7e-m\libc.a(lib_a-fputwc.o)
 .bss           0x00000000        0x0 c:/program files (x86)/atmel/studio/7.0/toolchain/arm/arm-gnu-toolchain/bin/../lib/gcc/arm-none-eabi/6.3.1/../../../../arm-none-eabi/lib/thumb/v7e-m\libc.a(lib_a-fputwc.o)
 .text.fputwc   0x00000000       0x28 c:/program files (x86)/atmel/studio/7.0/toolchain/arm/arm-gnu-toolchain/bin/../lib/gcc/arm-none-eabi/6.3.1/../../../../arm-none-eabi/lib/thumb/v7e-m\libc.a(lib_a-fputwc.o)
 .text          0x00000000        0x0 c:/program files (x86)/atmel/studio/7.0/toolchain/arm/arm-gnu-toolchain/bin/../lib/gcc/arm-none-eabi/6.3.1/../../../../arm-none-eabi/lib/thumb/v7e-m\libc.a(lib_a-freer.o)
 .data          0x00000000        0x0 c:/program files (x86)/atmel/studio/7.0/toolchain/arm/arm-gnu-toolchain/bin/../lib/gcc/arm-none-eabi/6.3.1/../../../../arm-none-eabi/lib/thumb/v7e-m\libc.a(lib_a-freer.o)
 .bss           0x00000000        0x0 c:/program files (x86)/atmel/studio/7.0/toolchain/arm/arm-gnu-toolchain/bin/../lib/gcc/arm-none-eabi/6.3.1/../../../../arm-none-eabi/lib/thumb/v7e-m\libc.a(lib_a-freer.o)
 .text          0x00000000        0x0 c:/program files (x86)/atmel/studio/7.0/toolchain/arm/arm-gnu-toolchain/bin/../lib/gcc/arm-none-eabi/6.3.1/../../../../arm-none-eabi/lib/thumb/v7e-m\libc.a(lib_a-fvwrite.o)
 .data          0x00000000        0x0 c:/program files (x86)/atmel/studio/7.0/toolchain/arm/arm-gnu-toolchain/bin/../lib/gcc/arm-none-eabi/6.3.1/../../../../arm-none-eabi/lib/thumb/v7e-m\libc.a(lib_a-fvwrite.o)
 .bss           0x00000000        0x0 c:/program files (x86)/atmel/studio/7.0/toolchain/arm/arm-gnu-toolchain/bin/../lib/gcc/arm-none-eabi/6.3.1/../../../../arm-none-eabi/lib/thumb/v7e-m\libc.a(lib_a-fvwrite.o)
 .text          0x00000000        0x0 c:/program files (x86)/atmel/studio/7.0/toolchain/arm/arm-gnu-toolchain/bin/../lib/gcc/arm-none-eabi/6.3.1/../../../../arm-none-eabi/lib/thumb/v7e-m\libc.a(lib_a-fwalk.o)
 .data          0x00000000        0x0 c:/program files (x86)/atmel/studio/7.0/toolchain/arm/arm-gnu-toolchain/bin/../lib/gcc/arm-none-eabi/6.3.1/../../../../arm-none-eabi/lib/thumb/v7e-m\libc.a(lib_a-fwalk.o)
 .bss           0x00000000        0x0 c:/program files (x86)/atmel/studio/7.0/toolchain/arm/arm-gnu-toolchain/bin/../lib/gcc/arm-none-eabi/6.3.1/../../../../arm-none-eabi/lib/thumb/v7e-m\libc.a(lib_a-fwalk.o)
 .text._fwalk   0x00000000       0x4c c:/program files (x86)/atmel/studio/7.0/toolchain/arm/arm-gnu-toolchain/bin/../lib/gcc/arm-none-eabi/6.3.1/../../../../arm-none-eabi/lib/thumb/v7e-m\libc.a(lib_a-fwalk.o)
 .text          0x00000000        0x0 c:/program files (x86)/atmel/studio/7.0/toolchain/arm/arm-gnu-toolchain/bin/../lib/gcc/arm-none-eabi/6.3.1/../../../../arm-none-eabi/lib/thumb/v7e-m\libc.a(lib_a-locale.o)
 .data          0x00000000        0x0 c:/program files (x86)/atmel/studio/7.0/toolchain/arm/arm-gnu-toolchain/bin/../lib/gcc/arm-none-eabi/6.3.1/../../../../arm-none-eabi/lib/thumb/v7e-m\libc.a(lib_a-locale.o)
 .bss           0x00000000        0x0 c:/program files (x86)/atmel/studio/7.0/toolchain/arm/arm-gnu-toolchain/bin/../lib/gcc/arm-none-eabi/6.3.1/../../../../arm-none-eabi/lib/thumb/v7e-m\libc.a(lib_a-locale.o)
 .text._setlocale_r
                0x00000000       0x40 c:/program files (x86)/atmel/studio/7.0/toolchain/arm/arm-gnu-toolchain/bin/../lib/gcc/arm-none-eabi/6.3.1/../../../../arm-none-eabi/lib/thumb/v7e-m\libc.a(lib_a-locale.o)
 .text.__locale_ctype_ptr_l
                0x00000000        0x8 c:/program files (x86)/atmel/studio/7.0/toolchain/arm/arm-gnu-toolchain/bin/../lib/gcc/arm-none-eabi/6.3.1/../../../../arm-none-eabi/lib/thumb/v7e-m\libc.a(lib_a-locale.o)
 .text.__locale_ctype_ptr
                0x00000000       0x1c c:/program files (x86)/atmel/studio/7.0/toolchain/arm/arm-gnu-toolchain/bin/../lib/gcc/arm-none-eabi/6.3.1/../../../../arm-none-eabi/lib/thumb/v7e-m\libc.a(lib_a-locale.o)
 .text.setlocale
                0x00000000       0x10 c:/program files (x86)/atmel/studio/7.0/toolchain/arm/arm-gnu-toolchain/bin/../lib/gcc/arm-none-eabi/6.3.1/../../../../arm-none-eabi/lib/thumb/v7e-m\libc.a(lib_a-locale.o)
 .bss._PathLocale
                0x00000000        0x4 c:/program files (x86)/atmel/studio/7.0/toolchain/arm/arm-gnu-toolchain/bin/../lib/gcc/arm-none-eabi/6.3.1/../../../../arm-none-eabi/lib/thumb/v7e-m\libc.a(lib_a-locale.o)
 .text          0x00000000        0x0 c:/program files (x86)/atmel/studio/7.0/toolchain/arm/arm-gnu-toolchain/bin/../lib/gcc/arm-none-eabi/6.3.1/../../../../arm-none-eabi/lib/thumb/v7e-m\libc.a(lib_a-lock.o)
 .data          0x00000000        0x0 c:/program files (x86)/atmel/studio/7.0/toolchain/arm/arm-gnu-toolchain/bin/../lib/gcc/arm-none-eabi/6.3.1/../../../../arm-none-eabi/lib/thumb/v7e-m\libc.a(lib_a-lock.o)
 .bss           0x00000000        0x0 c:/program files (x86)/atmel/studio/7.0/toolchain/arm/arm-gnu-toolchain/bin/../lib/gcc/arm-none-eabi/6.3.1/../../../../arm-none-eabi/lib/thumb/v7e-m\libc.a(lib_a-lock.o)
 .text.__retarget_lock_init
                0x00000000        0x4 c:/program files (x86)/atmel/studio/7.0/toolchain/arm/arm-gnu-toolchain/bin/../lib/gcc/arm-none-eabi/6.3.1/../../../../arm-none-eabi/lib/thumb/v7e-m\libc.a(lib_a-lock.o)
 .text.__retarget_lock_close
                0x00000000        0x4 c:/program files (x86)/atmel/studio/7.0/toolchain/arm/arm-gnu-toolchain/bin/../lib/gcc/arm-none-eabi/6.3.1/../../../../arm-none-eabi/lib/thumb/v7e-m\libc.a(lib_a-lock.o)
 .text.__retarget_lock_acquire
                0x00000000        0x4 c:/program files (x86)/atmel/studio/7.0/toolchain/arm/arm-gnu-toolchain/bin/../lib/gcc/arm-none-eabi/6.3.1/../../../../arm-none-eabi/lib/thumb/v7e-m\libc.a(lib_a-lock.o)
 .text.__retarget_lock_try_acquire
                0x00000000        0x4 c:/program files (x86)/atmel/studio/7.0/toolchain/arm/arm-gnu-toolchain/bin/../lib/gcc/arm-none-eabi/6.3.1/../../../../arm-none-eabi/lib/thumb/v7e-m\libc.a(lib_a-lock.o)
 .text.__retarget_lock_try_acquire_recursive
                0x00000000        0x4 c:/program files (x86)/atmel/studio/7.0/toolchain/arm/arm-gnu-toolchain/bin/../lib/gcc/arm-none-eabi/6.3.1/../../../../arm-none-eabi/lib/thumb/v7e-m\libc.a(lib_a-lock.o)
 .text.__retarget_lock_release
                0x00000000        0x4 c:/program files (x86)/atmel/studio/7.0/toolchain/arm/arm-gnu-toolchain/bin/../lib/gcc/arm-none-eabi/6.3.1/../../../../arm-none-eabi/lib/thumb/v7e-m\libc.a(lib_a-lock.o)
 .text          0x00000000        0x0 c:/program files (x86)/atmel/studio/7.0/toolchain/arm/arm-gnu-toolchain/bin/../lib/gcc/arm-none-eabi/6.3.1/../../../../arm-none-eabi/lib/thumb/v7e-m\libc.a(lib_a-makebuf.o)
 .data          0x00000000        0x0 c:/program files (x86)/atmel/studio/7.0/toolchain/arm/arm-gnu-toolchain/bin/../lib/gcc/arm-none-eabi/6.3.1/../../../../arm-none-eabi/lib/thumb/v7e-m\libc.a(lib_a-makebuf.o)
 .bss           0x00000000        0x0 c:/program files (x86)/atmel/studio/7.0/toolchain/arm/arm-gnu-toolchain/bin/../lib/gcc/arm-none-eabi/6.3.1/../../../../arm-none-eabi/lib/thumb/v7e-m\libc.a(lib_a-makebuf.o)
 .text          0x00000000        0x0 c:/program files (x86)/atmel/studio/7.0/toolchain/arm/arm-gnu-toolchain/bin/../lib/gcc/arm-none-eabi/6.3.1/../../../../arm-none-eabi/lib/thumb/v7e-m\libc.a(lib_a-malloc.o)
 .data          0x00000000        0x0 c:/program files (x86)/atmel/studio/7.0/toolchain/arm/arm-gnu-toolchain/bin/../lib/gcc/arm-none-eabi/6.3.1/../../../../arm-none-eabi/lib/thumb/v7e-m\libc.a(lib_a-malloc.o)
 .bss           0x00000000        0x0 c:/program files (x86)/atmel/studio/7.0/toolchain/arm/arm-gnu-toolchain/bin/../lib/gcc/arm-none-eabi/6.3.1/../../../../arm-none-eabi/lib/thumb/v7e-m\libc.a(lib_a-malloc.o)
 .text.free     0x00000000       0x10 c:/program files (x86)/atmel/studio/7.0/toolchain/arm/arm-gnu-toolchain/bin/../lib/gcc/arm-none-eabi/6.3.1/../../../../arm-none-eabi/lib/thumb/v7e-m\libc.a(lib_a-malloc.o)
 .text          0x00000000        0x0 c:/program files (x86)/atmel/studio/7.0/toolchain/arm/arm-gnu-toolchain/bin/../lib/gcc/arm-none-eabi/6.3.1/../../../../arm-none-eabi/lib/thumb/v7e-m\libc.a(lib_a-mallocr.o)
 .data          0x00000000        0x0 c:/program files (x86)/atmel/studio/7.0/toolchain/arm/arm-gnu-toolchain/bin/../lib/gcc/arm-none-eabi/6.3.1/../../../../arm-none-eabi/lib/thumb/v7e-m\libc.a(lib_a-mallocr.o)
 .bss           0x00000000        0x0 c:/program files (x86)/atmel/studio/7.0/toolchain/arm/arm-gnu-toolchain/bin/../lib/gcc/arm-none-eabi/6.3.1/../../../../arm-none-eabi/lib/thumb/v7e-m\libc.a(lib_a-mallocr.o)
 .text          0x00000000        0x0 c:/program files (x86)/atmel/studio/7.0/toolchain/arm/arm-gnu-toolchain/bin/../lib/gcc/arm-none-eabi/6.3.1/../../../../arm-none-eabi/lib/thumb/v7e-m\libc.a(lib_a-mbtowc_r.o)
 .data          0x00000000        0x0 c:/program files (x86)/atmel/studio/7.0/toolchain/arm/arm-gnu-toolchain/bin/../lib/gcc/arm-none-eabi/6.3.1/../../../../arm-none-eabi/lib/thumb/v7e-m\libc.a(lib_a-mbtowc_r.o)
 .bss           0x00000000        0x0 c:/program files (x86)/atmel/studio/7.0/toolchain/arm/arm-gnu-toolchain/bin/../lib/gcc/arm-none-eabi/6.3.1/../../../../arm-none-eabi/lib/thumb/v7e-m\libc.a(lib_a-mbtowc_r.o)
 .text._mbtowc_r
                0x00000000       0x24 c:/program files (x86)/atmel/studio/7.0/toolchain/arm/arm-gnu-toolchain/bin/../lib/gcc/arm-none-eabi/6.3.1/../../../../arm-none-eabi/lib/thumb/v7e-m\libc.a(lib_a-mbtowc_r.o)
 .data          0x00000000        0x0 c:/program files (x86)/atmel/studio/7.0/toolchain/arm/arm-gnu-toolchain/bin/../lib/gcc/arm-none-eabi/6.3.1/../../../../arm-none-eabi/lib/thumb/v7e-m\libc.a(lib_a-memchr.o)
 .bss           0x00000000        0x0 c:/program files (x86)/atmel/studio/7.0/toolchain/arm/arm-gnu-toolchain/bin/../lib/gcc/arm-none-eabi/6.3.1/../../../../arm-none-eabi/lib/thumb/v7e-m\libc.a(lib_a-memchr.o)
 .text          0x00000000        0x0 c:/program files (x86)/atmel/studio/7.0/toolchain/arm/arm-gnu-toolchain/bin/../lib/gcc/arm-none-eabi/6.3.1/../../../../arm-none-eabi/lib/thumb/v7e-m\libc.a(lib_a-memmove.o)
 .data          0x00000000        0x0 c:/program files (x86)/atmel/studio/7.0/toolchain/arm/arm-gnu-toolchain/bin/../lib/gcc/arm-none-eabi/6.3.1/../../../../arm-none-eabi/lib/thumb/v7e-m\libc.a(lib_a-memmove.o)
 .bss           0x00000000        0x0 c:/program files (x86)/atmel/studio/7.0/toolchain/arm/arm-gnu-toolchain/bin/../lib/gcc/arm-none-eabi/6.3.1/../../../../arm-none-eabi/lib/thumb/v7e-m\libc.a(lib_a-memmove.o)
 .text          0x00000000        0x0 c:/program files (x86)/atmel/studio/7.0/toolchain/arm/arm-gnu-toolchain/bin/../lib/gcc/arm-none-eabi/6.3.1/../../../../arm-none-eabi/lib/thumb/v7e-m\libc.a(lib_a-mlock.o)
 .data          0x00000000        0x0 c:/program files (x86)/atmel/studio/7.0/toolchain/arm/arm-gnu-toolchain/bin/../lib/gcc/arm-none-eabi/6.3.1/../../../../arm-none-eabi/lib/thumb/v7e-m\libc.a(lib_a-mlock.o)
 .bss           0x00000000        0x0 c:/program files (x86)/atmel/studio/7.0/toolchain/arm/arm-gnu-toolchain/bin/../lib/gcc/arm-none-eabi/6.3.1/../../../../arm-none-eabi/lib/thumb/v7e-m\libc.a(lib_a-mlock.o)
 .text          0x00000000        0x0 c:/program files (x86)/atmel/studio/7.0/toolchain/arm/arm-gnu-toolchain/bin/../lib/gcc/arm-none-eabi/6.3.1/../../../../arm-none-eabi/lib/thumb/v7e-m\libc.a(lib_a-reallocr.o)
 .data          0x00000000        0x0 c:/program files (x86)/atmel/studio/7.0/toolchain/arm/arm-gnu-toolchain/bin/../lib/gcc/arm-none-eabi/6.3.1/../../../../arm-none-eabi/lib/thumb/v7e-m\libc.a(lib_a-reallocr.o)
 .bss           0x00000000        0x0 c:/program files (x86)/atmel/studio/7.0/toolchain/arm/arm-gnu-toolchain/bin/../lib/gcc/arm-none-eabi/6.3.1/../../../../arm-none-eabi/lib/thumb/v7e-m\libc.a(lib_a-reallocr.o)
 .text          0x00000000        0x0 c:/program files (x86)/atmel/studio/7.0/toolchain/arm/arm-gnu-toolchain/bin/../lib/gcc/arm-none-eabi/6.3.1/../../../../arm-none-eabi/lib/thumb/v7e-m\libc.a(lib_a-sbrkr.o)
 .data          0x00000000        0x0 c:/program files (x86)/atmel/studio/7.0/toolchain/arm/arm-gnu-toolchain/bin/../lib/gcc/arm-none-eabi/6.3.1/../../../../arm-none-eabi/lib/thumb/v7e-m\libc.a(lib_a-sbrkr.o)
 .bss           0x00000000        0x0 c:/program files (x86)/atmel/studio/7.0/toolchain/arm/arm-gnu-toolchain/bin/../lib/gcc/arm-none-eabi/6.3.1/../../../../arm-none-eabi/lib/thumb/v7e-m\libc.a(lib_a-sbrkr.o)
 .text          0x00000000        0x0 c:/program files (x86)/atmel/studio/7.0/toolchain/arm/arm-gnu-toolchain/bin/../lib/gcc/arm-none-eabi/6.3.1/../../../../arm-none-eabi/lib/thumb/v7e-m\libc.a(lib_a-stdio.o)
 .data          0x00000000        0x0 c:/program files (x86)/atmel/studio/7.0/toolchain/arm/arm-gnu-toolchain/bin/../lib/gcc/arm-none-eabi/6.3.1/../../../../arm-none-eabi/lib/thumb/v7e-m\libc.a(lib_a-stdio.o)
 .bss           0x00000000        0x0 c:/program files (x86)/atmel/studio/7.0/toolchain/arm/arm-gnu-toolchain/bin/../lib/gcc/arm-none-eabi/6.3.1/../../../../arm-none-eabi/lib/thumb/v7e-m\libc.a(lib_a-stdio.o)
 .text.__seofread
                0x00000000        0x4 c:/program files (x86)/atmel/studio/7.0/toolchain/arm/arm-gnu-toolchain/bin/../lib/gcc/arm-none-eabi/6.3.1/../../../../arm-none-eabi/lib/thumb/v7e-m\libc.a(lib_a-stdio.o)
 .text          0x00000000      0x2dc c:/program files (x86)/atmel/studio/7.0/toolchain/arm/arm-gnu-toolchain/bin/../lib/gcc/arm-none-eabi/6.3.1/../../../../arm-none-eabi/lib/thumb/v7e-m\libc.a(lib_a-strcmp.o)
 .data          0x00000000        0x0 c:/program files (x86)/atmel/studio/7.0/toolchain/arm/arm-gnu-toolchain/bin/../lib/gcc/arm-none-eabi/6.3.1/../../../../arm-none-eabi/lib/thumb/v7e-m\libc.a(lib_a-strcmp.o)
 .bss           0x00000000        0x0 c:/program files (x86)/atmel/studio/7.0/toolchain/arm/arm-gnu-toolchain/bin/../lib/gcc/arm-none-eabi/6.3.1/../../../../arm-none-eabi/lib/thumb/v7e-m\libc.a(lib_a-strcmp.o)
 .debug_frame   0x00000000       0x68 c:/program files (x86)/atmel/studio/7.0/toolchain/arm/arm-gnu-toolchain/bin/../lib/gcc/arm-none-eabi/6.3.1/../../../../arm-none-eabi/lib/thumb/v7e-m\libc.a(lib_a-strcmp.o)
 .ARM.attributes
                0x00000000       0x1c c:/program files (x86)/atmel/studio/7.0/toolchain/arm/arm-gnu-toolchain/bin/../lib/gcc/arm-none-eabi/6.3.1/../../../../arm-none-eabi/lib/thumb/v7e-m\libc.a(lib_a-strcmp.o)
 .data          0x00000000        0x0 c:/program files (x86)/atmel/studio/7.0/toolchain/arm/arm-gnu-toolchain/bin/../lib/gcc/arm-none-eabi/6.3.1/../../../../arm-none-eabi/lib/thumb/v7e-m\libc.a(lib_a-strlen.o)
 .bss           0x00000000        0x0 c:/program files (x86)/atmel/studio/7.0/toolchain/arm/arm-gnu-toolchain/bin/../lib/gcc/arm-none-eabi/6.3.1/../../../../arm-none-eabi/lib/thumb/v7e-m\libc.a(lib_a-strlen.o)
 .text          0x00000000        0x0 c:/program files (x86)/atmel/studio/7.0/toolchain/arm/arm-gnu-toolchain/bin/../lib/gcc/arm-none-eabi/6.3.1/../../../../arm-none-eabi/lib/thumb/v7e-m\libc.a(lib_a-wbuf.o)
 .data          0x00000000        0x0 c:/program files (x86)/atmel/studio/7.0/toolchain/arm/arm-gnu-toolchain/bin/../lib/gcc/arm-none-eabi/6.3.1/../../../../arm-none-eabi/lib/thumb/v7e-m\libc.a(lib_a-wbuf.o)
 .bss           0x00000000        0x0 c:/program files (x86)/atmel/studio/7.0/toolchain/arm/arm-gnu-toolchain/bin/../lib/gcc/arm-none-eabi/6.3.1/../../../../arm-none-eabi/lib/thumb/v7e-m\libc.a(lib_a-wbuf.o)
 .text.__swbuf  0x00000000       0x10 c:/program files (x86)/atmel/studio/7.0/toolchain/arm/arm-gnu-toolchain/bin/../lib/gcc/arm-none-eabi/6.3.1/../../../../arm-none-eabi/lib/thumb/v7e-m\libc.a(lib_a-wbuf.o)
 .text          0x00000000        0x0 c:/program files (x86)/atmel/studio/7.0/toolchain/arm/arm-gnu-toolchain/bin/../lib/gcc/arm-none-eabi/6.3.1/../../../../arm-none-eabi/lib/thumb/v7e-m\libc.a(lib_a-wcrtomb.o)
 .data          0x00000000        0x0 c:/program files (x86)/atmel/studio/7.0/toolchain/arm/arm-gnu-toolchain/bin/../lib/gcc/arm-none-eabi/6.3.1/../../../../arm-none-eabi/lib/thumb/v7e-m\libc.a(lib_a-wcrtomb.o)
 .bss           0x00000000        0x0 c:/program files (x86)/atmel/studio/7.0/toolchain/arm/arm-gnu-toolchain/bin/../lib/gcc/arm-none-eabi/6.3.1/../../../../arm-none-eabi/lib/thumb/v7e-m\libc.a(lib_a-wcrtomb.o)
 .text.wcrtomb  0x00000000       0x4c c:/program files (x86)/atmel/studio/7.0/toolchain/arm/arm-gnu-toolchain/bin/../lib/gcc/arm-none-eabi/6.3.1/../../../../arm-none-eabi/lib/thumb/v7e-m\libc.a(lib_a-wcrtomb.o)
 .text          0x00000000        0x0 c:/program files (x86)/atmel/studio/7.0/toolchain/arm/arm-gnu-toolchain/bin/../lib/gcc/arm-none-eabi/6.3.1/../../../../arm-none-eabi/lib/thumb/v7e-m\libc.a(lib_a-wctomb_r.o)
 .data          0x00000000        0x0 c:/program files (x86)/atmel/studio/7.0/toolchain/arm/arm-gnu-toolchain/bin/../lib/gcc/arm-none-eabi/6.3.1/../../../../arm-none-eabi/lib/thumb/v7e-m\libc.a(lib_a-wctomb_r.o)
 .bss           0x00000000        0x0 c:/program files (x86)/atmel/studio/7.0/toolchain/arm/arm-gnu-toolchain/bin/../lib/gcc/arm-none-eabi/6.3.1/../../../../arm-none-eabi/lib/thumb/v7e-m\libc.a(lib_a-wctomb_r.o)
 .text._wctomb_r
                0x00000000       0x24 c:/program files (x86)/atmel/studio/7.0/toolchain/arm/arm-gnu-toolchain/bin/../lib/gcc/arm-none-eabi/6.3.1/../../../../arm-none-eabi/lib/thumb/v7e-m\libc.a(lib_a-wctomb_r.o)
 .text          0x00000000        0x0 c:/program files (x86)/atmel/studio/7.0/toolchain/arm/arm-gnu-toolchain/bin/../lib/gcc/arm-none-eabi/6.3.1/../../../../arm-none-eabi/lib/thumb/v7e-m\libc.a(lib_a-writer.o)
 .data          0x00000000        0x0 c:/program files (x86)/atmel/studio/7.0/toolchain/arm/arm-gnu-toolchain/bin/../lib/gcc/arm-none-eabi/6.3.1/../../../../arm-none-eabi/lib/thumb/v7e-m\libc.a(lib_a-writer.o)
 .bss           0x00000000        0x0 c:/program files (x86)/atmel/studio/7.0/toolchain/arm/arm-gnu-toolchain/bin/../lib/gcc/arm-none-eabi/6.3.1/../../../../arm-none-eabi/lib/thumb/v7e-m\libc.a(lib_a-writer.o)
 .text          0x00000000        0x0 c:/program files (x86)/atmel/studio/7.0/toolchain/arm/arm-gnu-toolchain/bin/../lib/gcc/arm-none-eabi/6.3.1/../../../../arm-none-eabi/lib/thumb/v7e-m\libc.a(lib_a-__atexit.o)
 .data          0x00000000        0x0 c:/program files (x86)/atmel/studio/7.0/toolchain/arm/arm-gnu-toolchain/bin/../lib/gcc/arm-none-eabi/6.3.1/../../../../arm-none-eabi/lib/thumb/v7e-m\libc.a(lib_a-__atexit.o)
 .bss           0x00000000        0x0 c:/program files (x86)/atmel/studio/7.0/toolchain/arm/arm-gnu-toolchain/bin/../lib/gcc/arm-none-eabi/6.3.1/../../../../arm-none-eabi/lib/thumb/v7e-m\libc.a(lib_a-__atexit.o)
 .text          0x00000000        0x0 c:/program files (x86)/atmel/studio/7.0/toolchain/arm/arm-gnu-toolchain/bin/../lib/gcc/arm-none-eabi/6.3.1/../../../../arm-none-eabi/lib/thumb/v7e-m\libc.a(lib_a-closer.o)
 .data          0x00000000        0x0 c:/program files (x86)/atmel/studio/7.0/toolchain/arm/arm-gnu-toolchain/bin/../lib/gcc/arm-none-eabi/6.3.1/../../../../arm-none-eabi/lib/thumb/v7e-m\libc.a(lib_a-closer.o)
 .bss           0x00000000        0x0 c:/program files (x86)/atmel/studio/7.0/toolchain/arm/arm-gnu-toolchain/bin/../lib/gcc/arm-none-eabi/6.3.1/../../../../arm-none-eabi/lib/thumb/v7e-m\libc.a(lib_a-closer.o)
 .text          0x00000000        0x0 c:/program files (x86)/atmel/studio/7.0/toolchain/arm/arm-gnu-toolchain/bin/../lib/gcc/arm-none-eabi/6.3.1/../../../../arm-none-eabi/lib/thumb/v7e-m\libc.a(lib_a-ctype_.o)
 .data          0x00000000        0x0 c:/program files (x86)/atmel/studio/7.0/toolchain/arm/arm-gnu-toolchain/bin/../lib/gcc/arm-none-eabi/6.3.1/../../../../arm-none-eabi/lib/thumb/v7e-m\libc.a(lib_a-ctype_.o)
 .bss           0x00000000        0x0 c:/program files (x86)/atmel/studio/7.0/toolchain/arm/arm-gnu-toolchain/bin/../lib/gcc/arm-none-eabi/6.3.1/../../../../arm-none-eabi/lib/thumb/v7e-m\libc.a(lib_a-ctype_.o)
 .text          0x00000000        0x0 c:/program files (x86)/atmel/studio/7.0/toolchain/arm/arm-gnu-toolchain/bin/../lib/gcc/arm-none-eabi/6.3.1/../../../../arm-none-eabi/lib/thumb/v7e-m\libc.a(lib_a-fclose.o)
 .data          0x00000000        0x0 c:/program files (x86)/atmel/studio/7.0/toolchain/arm/arm-gnu-toolchain/bin/../lib/gcc/arm-none-eabi/6.3.1/../../../../arm-none-eabi/lib/thumb/v7e-m\libc.a(lib_a-fclose.o)
 .bss           0x00000000        0x0 c:/program files (x86)/atmel/studio/7.0/toolchain/arm/arm-gnu-toolchain/bin/../lib/gcc/arm-none-eabi/6.3.1/../../../../arm-none-eabi/lib/thumb/v7e-m\libc.a(lib_a-fclose.o)
 .text.fclose   0x00000000       0x10 c:/program files (x86)/atmel/studio/7.0/toolchain/arm/arm-gnu-toolchain/bin/../lib/gcc/arm-none-eabi/6.3.1/../../../../arm-none-eabi/lib/thumb/v7e-m\libc.a(lib_a-fclose.o)
 .text          0x00000000        0x0 c:/program files (x86)/atmel/studio/7.0/toolchain/arm/arm-gnu-toolchain/bin/../lib/gcc/arm-none-eabi/6.3.1/../../../../arm-none-eabi/lib/thumb/v7e-m\libc.a(lib_a-fstatr.o)
 .data          0x00000000        0x0 c:/program files (x86)/atmel/studio/7.0/toolchain/arm/arm-gnu-toolchain/bin/../lib/gcc/arm-none-eabi/6.3.1/../../../../arm-none-eabi/lib/thumb/v7e-m\libc.a(lib_a-fstatr.o)
 .bss           0x00000000        0x0 c:/program files (x86)/atmel/studio/7.0/toolchain/arm/arm-gnu-toolchain/bin/../lib/gcc/arm-none-eabi/6.3.1/../../../../arm-none-eabi/lib/thumb/v7e-m\libc.a(lib_a-fstatr.o)
 .text          0x00000000        0x0 c:/program files (x86)/atmel/studio/7.0/toolchain/arm/arm-gnu-toolchain/bin/../lib/gcc/arm-none-eabi/6.3.1/../../../../arm-none-eabi/lib/thumb/v7e-m\libc.a(lib_a-isattyr.o)
 .data          0x00000000        0x0 c:/program files (x86)/atmel/studio/7.0/toolchain/arm/arm-gnu-toolchain/bin/../lib/gcc/arm-none-eabi/6.3.1/../../../../arm-none-eabi/lib/thumb/v7e-m\libc.a(lib_a-isattyr.o)
 .bss           0x00000000        0x0 c:/program files (x86)/atmel/studio/7.0/toolchain/arm/arm-gnu-toolchain/bin/../lib/gcc/arm-none-eabi/6.3.1/../../../../arm-none-eabi/lib/thumb/v7e-m\libc.a(lib_a-isattyr.o)
 .text          0x00000000        0x0 c:/program files (x86)/atmel/studio/7.0/toolchain/arm/arm-gnu-toolchain/bin/../lib/gcc/arm-none-eabi/6.3.1/../../../../arm-none-eabi/lib/thumb/v7e-m\libc.a(lib_a-lseekr.o)
 .data          0x00000000        0x0 c:/program files (x86)/atmel/studio/7.0/toolchain/arm/arm-gnu-toolchain/bin/../lib/gcc/arm-none-eabi/6.3.1/../../../../arm-none-eabi/lib/thumb/v7e-m\libc.a(lib_a-lseekr.o)
 .bss           0x00000000        0x0 c:/program files (x86)/atmel/studio/7.0/toolchain/arm/arm-gnu-toolchain/bin/../lib/gcc/arm-none-eabi/6.3.1/../../../../arm-none-eabi/lib/thumb/v7e-m\libc.a(lib_a-lseekr.o)
 .text          0x00000000        0x0 c:/program files (x86)/atmel/studio/7.0/toolchain/arm/arm-gnu-toolchain/bin/../lib/gcc/arm-none-eabi/6.3.1/../../../../arm-none-eabi/lib/thumb/v7e-m\libc.a(lib_a-readr.o)
 .data          0x00000000        0x0 c:/program files (x86)/atmel/studio/7.0/toolchain/arm/arm-gnu-toolchain/bin/../lib/gcc/arm-none-eabi/6.3.1/../../../../arm-none-eabi/lib/thumb/v7e-m\libc.a(lib_a-readr.o)
 .bss           0x00000000        0x0 c:/program files (x86)/atmel/studio/7.0/toolchain/arm/arm-gnu-toolchain/bin/../lib/gcc/arm-none-eabi/6.3.1/../../../../arm-none-eabi/lib/thumb/v7e-m\libc.a(lib_a-readr.o)
 .text          0x00000000        0x0 c:/program files (x86)/atmel/studio/7.0/toolchain/arm/arm-gnu-toolchain/bin/../lib/gcc/arm-none-eabi/6.3.1/../../../../arm-none-eabi/lib/thumb/v7e-m\libc.a(lib_a-reent.o)
 .data          0x00000000        0x0 c:/program files (x86)/atmel/studio/7.0/toolchain/arm/arm-gnu-toolchain/bin/../lib/gcc/arm-none-eabi/6.3.1/../../../../arm-none-eabi/lib/thumb/v7e-m\libc.a(lib_a-reent.o)
 .bss           0x00000000        0x0 c:/program files (x86)/atmel/studio/7.0/toolchain/arm/arm-gnu-toolchain/bin/../lib/gcc/arm-none-eabi/6.3.1/../../../../arm-none-eabi/lib/thumb/v7e-m\libc.a(lib_a-reent.o)
 .text.cleanup_glue
                0x00000000       0x1c c:/program files (x86)/atmel/studio/7.0/toolchain/arm/arm-gnu-toolchain/bin/../lib/gcc/arm-none-eabi/6.3.1/../../../../arm-none-eabi/lib/thumb/v7e-m\libc.a(lib_a-reent.o)
 .text._reclaim_reent
                0x00000000       0x88 c:/program files (x86)/atmel/studio/7.0/toolchain/arm/arm-gnu-toolchain/bin/../lib/gcc/arm-none-eabi/6.3.1/../../../../arm-none-eabi/lib/thumb/v7e-m\libc.a(lib_a-reent.o)
 .data          0x00000000        0x0 c:/program files (x86)/atmel/studio/7.0/toolchain/arm/arm-gnu-toolchain/bin/../lib/gcc/arm-none-eabi/6.3.1/thumb/v7e-m\libgcc.a(_aeabi_uldivmod.o)
 .bss           0x00000000        0x0 c:/program files (x86)/atmel/studio/7.0/toolchain/arm/arm-gnu-toolchain/bin/../lib/gcc/arm-none-eabi/6.3.1/thumb/v7e-m\libgcc.a(_aeabi_uldivmod.o)
 .data          0x00000000        0x0 c:/program files (x86)/atmel/studio/7.0/toolchain/arm/arm-gnu-toolchain/bin/../lib/gcc/arm-none-eabi/6.3.1/thumb/v7e-m\libgcc.a(_udivmoddi4.o)
 .bss           0x00000000        0x0 c:/program files (x86)/atmel/studio/7.0/toolchain/arm/arm-gnu-toolchain/bin/../lib/gcc/arm-none-eabi/6.3.1/thumb/v7e-m\libgcc.a(_udivmoddi4.o)
 .ARM.extab     0x00000000        0x0 c:/program files (x86)/atmel/studio/7.0/toolchain/arm/arm-gnu-toolchain/bin/../lib/gcc/arm-none-eabi/6.3.1/thumb/v7e-m\libgcc.a(_udivmoddi4.o)
 .data          0x00000000        0x0 c:/program files (x86)/atmel/studio/7.0/toolchain/arm/arm-gnu-toolchain/bin/../lib/gcc/arm-none-eabi/6.3.1/thumb/v7e-m\libgcc.a(_dvmd_tls.o)
 .bss           0x00000000        0x0 c:/program files (x86)/atmel/studio/7.0/toolchain/arm/arm-gnu-toolchain/bin/../lib/gcc/arm-none-eabi/6.3.1/thumb/v7e-m\libgcc.a(_dvmd_tls.o)
 .text          0x00000000        0x0 c:/program files (x86)/atmel/studio/7.0/toolchain/arm/arm-gnu-toolchain/bin/../lib/gcc/arm-none-eabi/6.3.1/thumb/v7e-m/crtend.o
 .data          0x00000000        0x0 c:/program files (x86)/atmel/studio/7.0/toolchain/arm/arm-gnu-toolchain/bin/../lib/gcc/arm-none-eabi/6.3.1/thumb/v7e-m/crtend.o
 .bss           0x00000000        0x0 c:/program files (x86)/atmel/studio/7.0/toolchain/arm/arm-gnu-toolchain/bin/../lib/gcc/arm-none-eabi/6.3.1/thumb/v7e-m/crtend.o
 .eh_frame      0x00000000        0x4 c:/program files (x86)/atmel/studio/7.0/toolchain/arm/arm-gnu-toolchain/bin/../lib/gcc/arm-none-eabi/6.3.1/thumb/v7e-m/crtend.o
 .jcr           0x00000000        0x4 c:/program files (x86)/atmel/studio/7.0/toolchain/arm/arm-gnu-toolchain/bin/../lib/gcc/arm-none-eabi/6.3.1/thumb/v7e-m/crtend.o
 .ARM.attributes
                0x00000000       0x2e c:/program files (x86)/atmel/studio/7.0/toolchain/arm/arm-gnu-toolchain/bin/../lib/gcc/arm-none-eabi/6.3.1/thumb/v7e-m/crtend.o
 .text          0x00000000        0x0 c:/program files (x86)/atmel/studio/7.0/toolchain/arm/arm-gnu-toolchain/bin/../lib/gcc/arm-none-eabi/6.3.1/thumb/v7e-m/crtn.o
 .data          0x00000000        0x0 c:/program files (x86)/atmel/studio/7.0/toolchain/arm/arm-gnu-toolchain/bin/../lib/gcc/arm-none-eabi/6.3.1/thumb/v7e-m/crtn.o
 .bss           0x00000000        0x0 c:/program files (x86)/atmel/studio/7.0/toolchain/arm/arm-gnu-toolchain/bin/../lib/gcc/arm-none-eabi/6.3.1/thumb/v7e-m/crtn.o

Memory Configuration

Name             Origin             Length             Attributes
rom              0x00400000         0x00080000         xr
ram              0x20000000         0x00028000         xrw
*default*        0x00000000         0xffffffff

Linker script and memory map

LOAD c:/program files (x86)/atmel/studio/7.0/toolchain/arm/arm-gnu-toolchain/bin/../lib/gcc/arm-none-eabi/6.3.1/thumb/v7e-m/crti.o
LOAD c:/program files (x86)/atmel/studio/7.0/toolchain/arm/arm-gnu-toolchain/bin/../lib/gcc/arm-none-eabi/6.3.1/thumb/v7e-m/crtbegin.o
LOAD c:/program files (x86)/atmel/studio/7.0/toolchain/arm/arm-gnu-toolchain/bin/../lib/gcc/arm-none-eabi/6.3.1/../../../../arm-none-eabi/lib/thumb/v7e-m/crt0.o
LOAD src/ASF/common/services/sleepmgr/sam/sleepmgr.o
LOAD src/ASF/common/utils/stdio/read.o
LOAD src/ASF/sam/drivers/pio/pio.o
LOAD src/ASF/sam/drivers/pio/pio_handler.o
LOAD src/ASF/sam/drivers/spi/spi.o
LOAD src/ASF/sam/drivers/twi/twi.o
LOAD src/ASF/sam/drivers/usart/usart.o
LOAD src/ASF/thirdparty/freertos/freertos-8.0.1/Source/croutine.o
LOAD src/ASF/thirdparty/freertos/freertos-8.0.1/Source/event_groups.o
LOAD src/ASF/thirdparty/freertos/freertos-8.0.1/Source/list.o
LOAD src/ASF/thirdparty/freertos/freertos-8.0.1/Source/portable/GCC/ARM_CM4F/port.o
LOAD src/ASF/thirdparty/freertos/freertos-8.0.1/Source/portable/MemMang/heap_2.o
LOAD src/ASF/thirdparty/freertos/freertos-8.0.1/Source/queue.o
LOAD src/ASF/thirdparty/freertos/freertos-8.0.1/Source/tasks.o
LOAD src/ASF/thirdparty/freertos/freertos-8.0.1/Source/timers.o
LOAD src/inv/inv_i2c.o
LOAD src/inv/inv_spi.o
LOAD src/inv/inv_uart.o
LOAD src/ASF/common/utils/stdio/write.o
LOAD src/ASF/common/services/serial/usart_serial.o
LOAD src/ASF/common/services/delay/sam/cycle_counter.o
LOAD src/ASF/sam/drivers/flexcom/flexcom.o
LOAD src/ASF/sam/drivers/pdc/pdc.o
LOAD src/ASF/sam/drivers/rtc/rtc.o
LOAD src/ASF/common/services/clock/samg/sysclk.o
LOAD src/ASF/common/utils/interrupt/interrupt_sam_nvic.o
LOAD src/ASF/sam/boards/samg55_xplained_pro/board_init.o
LOAD src/ASF/sam/drivers/efc/efc.o
LOAD src/ASF/sam/drivers/pmc/pmc.o
LOAD src/ASF/sam/drivers/pmc/sleep.o
LOAD src/ASF/sam/drivers/supc/supc.o
LOAD src/ASF/sam/utils/cmsis/samg/samg55/source/templates/gcc/startup_samg55.o
LOAD src/ASF/sam/utils/cmsis/samg/samg55/source/templates/system_samg55.o
LOAD src/ASF/sam/utils/syscalls/gcc/syscalls.o
LOAD src/inv/protocol_functions.o
LOAD src/main.o
START GROUP
LOAD ../src/ASF/thirdparty/CMSIS/Lib/GCC\libarm_cortexM4lf_math_softfp.a
LOAD c:/program files (x86)/atmel/studio/7.0/toolchain/arm/arm-gnu-toolchain/bin/../lib/gcc/arm-none-eabi/6.3.1/../../../../arm-none-eabi/lib/thumb/v7e-m\libm.a
END GROUP
START GROUP
LOAD c:/program files (x86)/atmel/studio/7.0/toolchain/arm/arm-gnu-toolchain/bin/../lib/gcc/arm-none-eabi/6.3.1/thumb/v7e-m\libgcc.a
LOAD c:/program files (x86)/atmel/studio/7.0/toolchain/arm/arm-gnu-toolchain/bin/../lib/gcc/arm-none-eabi/6.3.1/../../../../arm-none-eabi/lib/thumb/v7e-m\libc.a
END GROUP
LOAD c:/program files (x86)/atmel/studio/7.0/toolchain/arm/arm-gnu-toolchain/bin/../lib/gcc/arm-none-eabi/6.3.1/thumb/v7e-m/crtend.o
LOAD c:/program files (x86)/atmel/studio/7.0/toolchain/arm/arm-gnu-toolchain/bin/../lib/gcc/arm-none-eabi/6.3.1/thumb/v7e-m/crtn.o
                0x00003000                __stack_size__ = DEFINED (__stack_size__)?__stack_size__:0x3000
                0x20027ffc                __ram_end__ = ((ORIGIN (ram) + LENGTH (ram)) - 0x4)

.text           0x00400000     0x6cc8
                0x00400000                . = ALIGN (0x4)
                0x00400000                _sfixed = .
 *(.vectors .vectors.*)
 .vectors       0x00400000      0x148 src/ASF/sam/utils/cmsis/samg/samg55/source/templates/gcc/startup_samg55.o
                0x00400000                exception_table
 *(.text .text.* .gnu.linkonce.t.*)
 .text          0x00400148       0x6c c:/program files (x86)/atmel/studio/7.0/toolchain/arm/arm-gnu-toolchain/bin/../lib/gcc/arm-none-eabi/6.3.1/thumb/v7e-m/crtbegin.o
 .text._read    0x004001b4       0x40 src/ASF/common/utils/stdio/read.o
                0x004001b4                _read
 .text.pio_set_peripheral
                0x004001f4       0x58 src/ASF/sam/drivers/pio/pio.o
                0x004001f4                pio_set_peripheral
 .text.pio_set_input
                0x0040024c       0x2c src/ASF/sam/drivers/pio/pio.o
                0x0040024c                pio_set_input
 .text.pio_set_output
                0x00400278       0x24 src/ASF/sam/drivers/pio/pio.o
                0x00400278                pio_set_output
 .text.pio_configure
                0x0040029c       0x74 src/ASF/sam/drivers/pio/pio.o
                0x0040029c                pio_configure
 .text.pio_enable_interrupt
                0x00400310        0x4 src/ASF/sam/drivers/pio/pio.o
                0x00400310                pio_enable_interrupt
 .text.pio_disable_interrupt
                0x00400314        0x4 src/ASF/sam/drivers/pio/pio.o
                0x00400314                pio_disable_interrupt
 .text.pio_get_interrupt_status
                0x00400318        0x4 src/ASF/sam/drivers/pio/pio.o
                0x00400318                pio_get_interrupt_status
 .text.pio_get_interrupt_mask
                0x0040031c        0x4 src/ASF/sam/drivers/pio/pio.o
                0x0040031c                pio_get_interrupt_mask
 .text.pio_set_additional_interrupt_mode
                0x00400320       0x28 src/ASF/sam/drivers/pio/pio.o
                0x00400320                pio_set_additional_interrupt_mode
 .text.pio_configure_interrupt
                0x00400348        0x8 src/ASF/sam/drivers/pio/pio.o
                0x00400348                pio_configure_interrupt
 .text.pio_handler_process
                0x00400350       0x4c src/ASF/sam/drivers/pio/pio_handler.o
                0x00400350                pio_handler_process
 .text.pio_handler_set
                0x0040039c       0x6c src/ASF/sam/drivers/pio/pio_handler.o
                0x0040039c                pio_handler_set
 .text.PIOA_Handler
                0x00400408       0x10 src/ASF/sam/drivers/pio/pio_handler.o
                0x00400408                PIOA_Handler
 .text.PIOB_Handler
                0x00400418       0x10 src/ASF/sam/drivers/pio/pio_handler.o
                0x00400418                PIOB_Handler
 .text.pio_handler_set_priority
                0x00400428       0x84 src/ASF/sam/drivers/pio/pio_handler.o
                0x00400428                pio_handler_set_priority
 .text.spi_set_peripheral_chip_select_value
                0x004004ac       0x16 src/ASF/sam/drivers/spi/spi.o
                0x004004ac                spi_set_peripheral_chip_select_value
 *fill*         0x004004c2        0x2 
 .text.spi_read
                0x004004c4       0x34 src/ASF/sam/drivers/spi/spi.o
                0x004004c4                spi_read
 .text.spi_write
                0x004004f8       0x2e src/ASF/sam/drivers/spi/spi.o
                0x004004f8                spi_write
 .text.spi_set_clock_polarity
                0x00400526       0x16 src/ASF/sam/drivers/spi/spi.o
                0x00400526                spi_set_clock_polarity
 .text.spi_set_clock_phase
                0x0040053c       0x16 src/ASF/sam/drivers/spi/spi.o
                0x0040053c                spi_set_clock_phase
 .text.spi_set_bits_per_transfer
                0x00400552       0x14 src/ASF/sam/drivers/spi/spi.o
                0x00400552                spi_set_bits_per_transfer
 .text.spi_set_baudrate_div
                0x00400566       0x20 src/ASF/sam/drivers/spi/spi.o
                0x00400566                spi_set_baudrate_div
 .text.spi_set_transfer_delay
                0x00400586       0x1a src/ASF/sam/drivers/spi/spi.o
                0x00400586                spi_set_transfer_delay
 .text.usart_set_async_baudrate
                0x004005a0       0x4a src/ASF/sam/drivers/usart/usart.o
                0x004005a0                usart_set_async_baudrate
 *fill*         0x004005ea        0x2 
 .text.usart_reset
                0x004005ec       0x28 src/ASF/sam/drivers/usart/usart.o
                0x004005ec                usart_reset
 .text.usart_init_rs232
                0x00400614       0x44 src/ASF/sam/drivers/usart/usart.o
                0x00400614                usart_init_rs232
 .text.usart_enable_tx
                0x00400658        0x6 src/ASF/sam/drivers/usart/usart.o
                0x00400658                usart_enable_tx
 .text.usart_enable_rx
                0x0040065e        0x6 src/ASF/sam/drivers/usart/usart.o
                0x0040065e                usart_enable_rx
 .text.usart_enable_interrupt
                0x00400664        0x4 src/ASF/sam/drivers/usart/usart.o
                0x00400664                usart_enable_interrupt
 .text.usart_get_status
                0x00400668        0x4 src/ASF/sam/drivers/usart/usart.o
                0x00400668                usart_get_status
 .text.usart_write
                0x0040066c       0x12 src/ASF/sam/drivers/usart/usart.o
                0x0040066c                usart_write
 .text.usart_read
                0x0040067e       0x16 src/ASF/sam/drivers/usart/usart.o
                0x0040067e                usart_read
 .text.usart_get_pdc_base
                0x00400694       0x88 src/ASF/sam/drivers/usart/usart.o
                0x00400694                usart_get_pdc_base
 .text.vListInitialise
                0x0040071c       0x16 src/ASF/thirdparty/freertos/freertos-8.0.1/Source/list.o
                0x0040071c                vListInitialise
 .text.vListInitialiseItem
                0x00400732        0x6 src/ASF/thirdparty/freertos/freertos-8.0.1/Source/list.o
                0x00400732                vListInitialiseItem
 .text.vListInsertEnd
                0x00400738       0x18 src/ASF/thirdparty/freertos/freertos-8.0.1/Source/list.o
                0x00400738                vListInsertEnd
 .text.vListInsert
                0x00400750       0x2e src/ASF/thirdparty/freertos/freertos-8.0.1/Source/list.o
                0x00400750                vListInsert
 .text.uxListRemove
                0x0040077e       0x24 src/ASF/thirdparty/freertos/freertos-8.0.1/Source/list.o
                0x0040077e                uxListRemove
 *fill*         0x004007a2        0x2 
 .text.prvPortStartFirstTask
                0x004007a4       0x1c src/ASF/thirdparty/freertos/freertos-8.0.1/Source/portable/GCC/ARM_CM4F/port.o
 .text.vPortEnableVFP
                0x004007c0       0x14 src/ASF/thirdparty/freertos/freertos-8.0.1/Source/portable/GCC/ARM_CM4F/port.o
 .text.pxPortInitialiseStack
                0x004007d4       0x24 src/ASF/thirdparty/freertos/freertos-8.0.1/Source/portable/GCC/ARM_CM4F/port.o
                0x004007d4                pxPortInitialiseStack
 .text.SVC_Handler
                0x004007f8       0x20 src/ASF/thirdparty/freertos/freertos-8.0.1/Source/portable/GCC/ARM_CM4F/port.o
                0x004007f8                SVC_Handler
 .text.vPortYield
                0x00400818       0x18 src/ASF/thirdparty/freertos/freertos-8.0.1/Source/portable/GCC/ARM_CM4F/port.o
                0x00400818                vPortYield
 .text.ulPortSetInterruptMask
                0x00400830       0x10 src/ASF/thirdparty/freertos/freertos-8.0.1/Source/portable/GCC/ARM_CM4F/port.o
                0x00400830                ulPortSetInterruptMask
 .text.prvTaskExitError
                0x00400840       0x1c src/ASF/thirdparty/freertos/freertos-8.0.1/Source/portable/GCC/ARM_CM4F/port.o
 .text.vPortEnterCritical
                0x0040085c       0x20 src/ASF/thirdparty/freertos/freertos-8.0.1/Source/portable/GCC/ARM_CM4F/port.o
                0x0040085c                vPortEnterCritical
 .text.vPortClearInterruptMask
                0x0040087c        0x6 src/ASF/thirdparty/freertos/freertos-8.0.1/Source/portable/GCC/ARM_CM4F/port.o
                0x0040087c                vPortClearInterruptMask
 *fill*         0x00400882        0x2 
 .text.vPortExitCritical
                0x00400884       0x2c src/ASF/thirdparty/freertos/freertos-8.0.1/Source/portable/GCC/ARM_CM4F/port.o
                0x00400884                vPortExitCritical
 .text.PendSV_Handler
                0x004008b0       0x58 src/ASF/thirdparty/freertos/freertos-8.0.1/Source/portable/GCC/ARM_CM4F/port.o
                0x004008b0                PendSV_Handler
 .text.SysTick_Handler
                0x00400908       0x30 src/ASF/thirdparty/freertos/freertos-8.0.1/Source/portable/GCC/ARM_CM4F/port.o
                0x00400908                SysTick_Handler
 .text.vPortSetupTimerInterrupt
                0x00400938       0x14 src/ASF/thirdparty/freertos/freertos-8.0.1/Source/portable/GCC/ARM_CM4F/port.o
                0x00400938                vPortSetupTimerInterrupt
 .text.xPortStartScheduler
                0x0040094c       0xb8 src/ASF/thirdparty/freertos/freertos-8.0.1/Source/portable/GCC/ARM_CM4F/port.o
                0x0040094c                xPortStartScheduler
 .text.vPortValidateInterruptPriority
                0x00400a04       0x48 src/ASF/thirdparty/freertos/freertos-8.0.1/Source/portable/GCC/ARM_CM4F/port.o
                0x00400a04                vPortValidateInterruptPriority
 .text.pvPortMalloc
                0x00400a4c       0xc4 src/ASF/thirdparty/freertos/freertos-8.0.1/Source/portable/MemMang/heap_2.o
                0x00400a4c                pvPortMalloc
 .text.vPortFree
                0x00400b10       0x4c src/ASF/thirdparty/freertos/freertos-8.0.1/Source/portable/MemMang/heap_2.o
                0x00400b10                vPortFree
 .text.prvCopyDataToQueue
                0x00400b5c       0x70 src/ASF/thirdparty/freertos/freertos-8.0.1/Source/queue.o
 .text.prvNotifyQueueSetContainer
                0x00400bcc       0x54 src/ASF/thirdparty/freertos/freertos-8.0.1/Source/queue.o
 .text.unlikely.prvCopyDataFromQueue
                0x00400c20       0x2c src/ASF/thirdparty/freertos/freertos-8.0.1/Source/queue.o
 .text.prvUnlockQueue
                0x00400c4c       0x98 src/ASF/thirdparty/freertos/freertos-8.0.1/Source/queue.o
 .text.xQueueGenericReset
                0x00400ce4       0x78 src/ASF/thirdparty/freertos/freertos-8.0.1/Source/queue.o
                0x00400ce4                xQueueGenericReset
 .text.xQueueGenericCreate
                0x00400d5c       0x50 src/ASF/thirdparty/freertos/freertos-8.0.1/Source/queue.o
                0x00400d5c                xQueueGenericCreate
 .text.xQueueGenericSend
                0x00400dac      0x158 src/ASF/thirdparty/freertos/freertos-8.0.1/Source/queue.o
                0x00400dac                xQueueGenericSend
 .text.xQueueGenericSendFromISR
                0x00400f04       0xb4 src/ASF/thirdparty/freertos/freertos-8.0.1/Source/queue.o
                0x00400f04                xQueueGenericSendFromISR
 .text.xQueueGenericReceive
                0x00400fb8      0x164 src/ASF/thirdparty/freertos/freertos-8.0.1/Source/queue.o
                0x00400fb8                xQueueGenericReceive
 .text.vQueueWaitForMessageRestricted
                0x0040111c       0x4c src/ASF/thirdparty/freertos/freertos-8.0.1/Source/queue.o
                0x0040111c                vQueueWaitForMessageRestricted
 .text.prvResetNextTaskUnblockTime
                0x00401168       0x24 src/ASF/thirdparty/freertos/freertos-8.0.1/Source/tasks.o
 .text.prvAddCurrentTaskToDelayedList
                0x0040118c       0x50 src/ASF/thirdparty/freertos/freertos-8.0.1/Source/tasks.o
 .text.xTaskGenericCreate
                0x004011dc      0x1cc src/ASF/thirdparty/freertos/freertos-8.0.1/Source/tasks.o
                0x004011dc                xTaskGenericCreate
 .text.vTaskStartScheduler
                0x004013a8       0x6c src/ASF/thirdparty/freertos/freertos-8.0.1/Source/tasks.o
                0x004013a8                vTaskStartScheduler
 .text.vTaskSuspendAll
                0x00401414       0x10 src/ASF/thirdparty/freertos/freertos-8.0.1/Source/tasks.o
                0x00401414                vTaskSuspendAll
 .text.xTaskGetTickCount
                0x00401424       0x20 src/ASF/thirdparty/freertos/freertos-8.0.1/Source/tasks.o
                0x00401424                xTaskGetTickCount
 .text.xTaskIncrementTick
                0x00401444      0x128 src/ASF/thirdparty/freertos/freertos-8.0.1/Source/tasks.o
                0x00401444                xTaskIncrementTick
 .text.xTaskResumeAll
                0x0040156c       0xe8 src/ASF/thirdparty/freertos/freertos-8.0.1/Source/tasks.o
                0x0040156c                xTaskResumeAll
 .text.prvIdleTask
                0x00401654       0x80 src/ASF/thirdparty/freertos/freertos-8.0.1/Source/tasks.o
 .text.vTaskSwitchContext
                0x004016d4       0x74 src/ASF/thirdparty/freertos/freertos-8.0.1/Source/tasks.o
                0x004016d4                vTaskSwitchContext
 .text.vTaskPlaceOnEventList
                0x00401748       0x60 src/ASF/thirdparty/freertos/freertos-8.0.1/Source/tasks.o
                0x00401748                vTaskPlaceOnEventList
 .text.vTaskPlaceOnEventListRestricted
                0x004017a8       0x44 src/ASF/thirdparty/freertos/freertos-8.0.1/Source/tasks.o
                0x004017a8                vTaskPlaceOnEventListRestricted
 .text.xTaskRemoveFromEventList
                0x004017ec       0x80 src/ASF/thirdparty/freertos/freertos-8.0.1/Source/tasks.o
                0x004017ec                xTaskRemoveFromEventList
 .text.vTaskSetTimeOutState
                0x0040186c       0x24 src/ASF/thirdparty/freertos/freertos-8.0.1/Source/tasks.o
                0x0040186c                vTaskSetTimeOutState
 .text.xTaskCheckForTimeOut
                0x00401890       0x6c src/ASF/thirdparty/freertos/freertos-8.0.1/Source/tasks.o
                0x00401890                xTaskCheckForTimeOut
 .text.vTaskMissedYield
                0x004018fc        0xc src/ASF/thirdparty/freertos/freertos-8.0.1/Source/tasks.o
                0x004018fc                vTaskMissedYield
 .text.xTaskGetCurrentTaskHandle
                0x00401908        0xc src/ASF/thirdparty/freertos/freertos-8.0.1/Source/tasks.o
                0x00401908                xTaskGetCurrentTaskHandle
 .text.xTaskGetSchedulerState
                0x00401914       0x20 src/ASF/thirdparty/freertos/freertos-8.0.1/Source/tasks.o
                0x00401914                xTaskGetSchedulerState
 .text.vTaskPriorityInherit
                0x00401934       0x7c src/ASF/thirdparty/freertos/freertos-8.0.1/Source/tasks.o
                0x00401934                vTaskPriorityInherit
 .text.vTaskPriorityDisinherit
                0x004019b0       0x54 src/ASF/thirdparty/freertos/freertos-8.0.1/Source/tasks.o
                0x004019b0                vTaskPriorityDisinherit
 .text.prvCheckForValidListAndQueue
                0x00401a04       0x6c src/ASF/thirdparty/freertos/freertos-8.0.1/Source/timers.o
 .text.prvInsertTimerInActiveList
                0x00401a70       0x40 src/ASF/thirdparty/freertos/freertos-8.0.1/Source/timers.o
 .text.xTimerCreateTimerTask
                0x00401ab0       0x4c src/ASF/thirdparty/freertos/freertos-8.0.1/Source/timers.o
                0x00401ab0                xTimerCreateTimerTask
 .text.xTimerGenericCommand
                0x00401afc       0x50 src/ASF/thirdparty/freertos/freertos-8.0.1/Source/timers.o
                0x00401afc                xTimerGenericCommand
 .text.prvSwitchTimerLists
                0x00401b4c       0x7c src/ASF/thirdparty/freertos/freertos-8.0.1/Source/timers.o
 .text.prvTimerTask
                0x00401bc8      0x1a8 src/ASF/thirdparty/freertos/freertos-8.0.1/Source/timers.o
 .text.spi_master_init1
                0x00401d70       0xa8 src/inv/inv_spi.o
                0x00401d70                spi_master_init1
 .text.spi_master_init
                0x00401e18       0xa8 src/inv/inv_spi.o
                0x00401e18                spi_master_init
 .text.spi_master_write_register
                0x00401ec0       0x70 src/inv/inv_spi.o
                0x00401ec0                spi_master_write_register
 .text.spi_master_read_register
                0x00401f30       0x78 src/inv/inv_spi.o
                0x00401f30                spi_master_read_register
 .text.usart_serial_getchar
                0x00401fa8       0xe4 src/inv/inv_uart.o
 .text.usart_serial_putchar
                0x0040208c       0xd0 src/inv/inv_uart.o
 .text.usart_serial_init.constprop.2
                0x0040215c       0x64 src/inv/inv_uart.o
 .text.configure_console
                0x004021c0       0xa4 src/inv/inv_uart.o
                0x004021c0                configure_console
 .text.FLEXCOM0_Handler
                0x00402264       0x60 src/inv/inv_uart.o
                0x00402264                FLEXCOM0_Handler
 .text._write   0x004022c4       0x44 src/ASF/common/utils/stdio/write.o
                0x004022c4                _write
 .text.flexcom_enable
                0x00402308       0xf0 src/ASF/sam/drivers/flexcom/flexcom.o
                0x00402308                flexcom_enable
 .text.flexcom_set_opmode
                0x004023f8        0x4 src/ASF/sam/drivers/flexcom/flexcom.o
                0x004023f8                flexcom_set_opmode
 .text.sysclk_init
                0x004023fc       0xac src/ASF/common/services/clock/samg/sysclk.o
                0x004023fc                sysclk_init
 .text.ioport_set_pin_mode
                0x004024a8       0x64 src/ASF/sam/boards/samg55_xplained_pro/board_init.o
 .text.system_board_init
                0x0040250c      0x100 src/ASF/sam/boards/samg55_xplained_pro/board_init.o
                0x0040250c                board_init
                0x0040250c                system_board_init
 .text.pmc_switch_mck_to_pllack
                0x0040260c       0x44 src/ASF/sam/drivers/pmc/pmc.o
                0x0040260c                pmc_switch_mck_to_pllack
 .text.pmc_switch_sclk_to_32kxtal
                0x00402650       0x20 src/ASF/sam/drivers/pmc/pmc.o
                0x00402650                pmc_switch_sclk_to_32kxtal
 .text.pmc_osc_is_ready_32kxtal
                0x00402670       0x1c src/ASF/sam/drivers/pmc/pmc.o
                0x00402670                pmc_osc_is_ready_32kxtal
 .text.pmc_disable_pllack
                0x0040268c        0xc src/ASF/sam/drivers/pmc/pmc.o
                0x0040268c                pmc_disable_pllack
 .text.pmc_is_locked_pllack
                0x00402698       0x10 src/ASF/sam/drivers/pmc/pmc.o
                0x00402698                pmc_is_locked_pllack
 .text.pmc_enable_periph_clk
                0x004026a8       0x40 src/ASF/sam/drivers/pmc/pmc.o
                0x004026a8                pmc_enable_periph_clk
 .text.pmc_switch_pck_to_mck
                0x004026e8       0x30 src/ASF/sam/drivers/pmc/pmc.o
                0x004026e8                pmc_switch_pck_to_mck
 .text.pmc_enable_pck
                0x00402718       0x14 src/ASF/sam/drivers/pmc/pmc.o
                0x00402718                pmc_enable_pck
 .text.pmc_disable_pck
                0x0040272c       0x14 src/ASF/sam/drivers/pmc/pmc.o
                0x0040272c                pmc_disable_pck
 .text.supc_set_regulator_trim_user
                0x00402740       0x1a src/ASF/sam/drivers/supc/supc.o
                0x00402740                supc_set_regulator_trim_user
 .text.Dummy_Handler
                0x0040275a        0x2 src/ASF/sam/utils/cmsis/samg/samg55/source/templates/gcc/startup_samg55.o
                0x0040275a                FLEXCOM1_Handler
                0x0040275a                DebugMon_Handler
                0x0040275a                HardFault_Handler
                0x0040275a                TC2_Handler
                0x0040275a                FLEXCOM4_Handler
                0x0040275a                NMI_Handler
                0x0040275a                ADC_Handler
                0x0040275a                CRCCU_Handler
                0x0040275a                RTT_Handler
                0x0040275a                FLEXCOM6_Handler
                0x0040275a                RTC_Handler
                0x0040275a                UsageFault_Handler
                0x0040275a                PDMIC1_Handler
                0x0040275a                WDT_Handler
                0x0040275a                TC4_Handler
                0x0040275a                TC1_Handler
                0x0040275a                TC3_Handler
                0x0040275a                ARM_Handler
                0x0040275a                Dummy_Handler
                0x0040275a                MEM2MEM_Handler
                0x0040275a                PMC_Handler
                0x0040275a                PDMIC0_Handler
                0x0040275a                MemManage_Handler
                0x0040275a                SUPC_Handler
                0x0040275a                UHP_Handler
                0x0040275a                EFC_Handler
                0x0040275a                FLEXCOM7_Handler
                0x0040275a                I2SC0_Handler
                0x0040275a                I2SC1_Handler
                0x0040275a                FLEXCOM2_Handler
                0x0040275a                UDP_Handler
                0x0040275a                FLEXCOM3_Handler
                0x0040275a                BusFault_Handler
                0x0040275a                RSTC_Handler
                0x0040275a                TC0_Handler
                0x0040275a                FLEXCOM5_Handler
                0x0040275a                TC5_Handler
 .text.Reset_Handler
                0x0040275c       0xbc src/ASF/sam/utils/cmsis/samg/samg55/source/templates/gcc/startup_samg55.o
                0x0040275c                Reset_Handler
 .text.SystemCoreClockUpdate
                0x00402818       0xb4 src/ASF/sam/utils/cmsis/samg/samg55/source/templates/system_samg55.o
                0x00402818                SystemCoreClockUpdate
 .text.system_init_flash
                0x004028cc       0x64 src/ASF/sam/utils/cmsis/samg/samg55/source/templates/system_samg55.o
                0x004028cc                system_init_flash
 .text._sbrk    0x00402930       0x2c src/ASF/sam/utils/syscalls/gcc/syscalls.o
                0x00402930                _sbrk
 .text._close   0x0040295c        0x6 src/ASF/sam/utils/syscalls/gcc/syscalls.o
                0x0040295c                _close
 .text._fstat   0x00402962        0xa src/ASF/sam/utils/syscalls/gcc/syscalls.o
                0x00402962                _fstat
 .text._isatty  0x0040296c        0x4 src/ASF/sam/utils/syscalls/gcc/syscalls.o
                0x0040296c                _isatty
 .text._lseek   0x00402970        0x4 src/ASF/sam/utils/syscalls/gcc/syscalls.o
                0x00402970                _lseek
 .text.ext_interrupt_handler
                0x00402974       0x20 src/inv/protocol_functions.o
                0x00402974                ext_interrupt_handler
 .text.ext_int_initialize
                0x00402994       0x60 src/inv/protocol_functions.o
                0x00402994                ext_int_initialize
 .text.IAM20685_chipunlock
                0x004029f4      0x124 src/inv/protocol_functions.o
                0x004029f4                IAM20685_chipunlock
 .text.IAM20685_writeunlock
                0x00402b18       0xe4 src/inv/protocol_functions.o
                0x00402b18                IAM20685_writeunlock
 .text.IAM20685
                0x00402bfc      0x354 src/inv/protocol_functions.o
                0x00402bfc                IAM20685
 .text.IAM20685_McLaren_seq1
                0x00402f50      0x550 src/inv/protocol_functions.o
                0x00402f50                IAM20685_McLaren_seq1
 .text.IAM20685_McLaren_seq2
                0x004034a0      0x53c src/inv/protocol_functions.o
                0x004034a0                IAM20685_McLaren_seq2
 .text.processUartData
                0x004039dc       0x48 src/inv/protocol_functions.o
                0x004039dc                processUartData
 .text.vMainTask
                0x00403a24        0xc src/main.o
                0x00403a24                vMainTask
 .text.vSensorIntPB03Task
                0x00403a30       0x2c src/main.o
                0x00403a30                vSensorIntPB03Task
 .text.startup.main
                0x00403a5c       0xb0 src/main.o
                0x00403a5c                main
 .text.__libc_init_array
                0x00403b0c       0x50 c:/program files (x86)/atmel/studio/7.0/toolchain/arm/arm-gnu-toolchain/bin/../lib/gcc/arm-none-eabi/6.3.1/../../../../arm-none-eabi/lib/thumb/v7e-m\libc.a(lib_a-init.o)
                0x00403b0c                __libc_init_array
 .text.iprintf  0x00403b5c       0x28 c:/program files (x86)/atmel/studio/7.0/toolchain/arm/arm-gnu-toolchain/bin/../lib/gcc/arm-none-eabi/6.3.1/../../../../arm-none-eabi/lib/thumb/v7e-m\libc.a(lib_a-iprintf.o)
                0x00403b5c                iprintf
 .text          0x00403b84      0x134 c:/program files (x86)/atmel/studio/7.0/toolchain/arm/arm-gnu-toolchain/bin/../lib/gcc/arm-none-eabi/6.3.1/../../../../arm-none-eabi/lib/thumb/v7e-m\libc.a(lib_a-memcpy.o)
                0x00403b84                memcpy
 .text.memset   0x00403cb8       0x9c c:/program files (x86)/atmel/studio/7.0/toolchain/arm/arm-gnu-toolchain/bin/../lib/gcc/arm-none-eabi/6.3.1/../../../../arm-none-eabi/lib/thumb/v7e-m\libc.a(lib_a-memset.o)
                0x00403cb8                memset
 .text.setbuf   0x00403d54       0x10 c:/program files (x86)/atmel/studio/7.0/toolchain/arm/arm-gnu-toolchain/bin/../lib/gcc/arm-none-eabi/6.3.1/../../../../arm-none-eabi/lib/thumb/v7e-m\libc.a(lib_a-setbuf.o)
                0x00403d54                setbuf
 .text.setvbuf  0x00403d64      0x190 c:/program files (x86)/atmel/studio/7.0/toolchain/arm/arm-gnu-toolchain/bin/../lib/gcc/arm-none-eabi/6.3.1/../../../../arm-none-eabi/lib/thumb/v7e-m\libc.a(lib_a-setvbuf.o)
                0x00403d64                setvbuf
 .text.__sprint_r.part.0
                0x00403ef4       0x80 c:/program files (x86)/atmel/studio/7.0/toolchain/arm/arm-gnu-toolchain/bin/../lib/gcc/arm-none-eabi/6.3.1/../../../../arm-none-eabi/lib/thumb/v7e-m\libc.a(lib_a-vfiprintf.o)
 .text._vfiprintf_r
                0x00403f74      0xc90 c:/program files (x86)/atmel/studio/7.0/toolchain/arm/arm-gnu-toolchain/bin/../lib/gcc/arm-none-eabi/6.3.1/../../../../arm-none-eabi/lib/thumb/v7e-m\libc.a(lib_a-vfiprintf.o)
                0x00403f74                _vfiprintf_r
 .text.__sbprintf
                0x00404c04       0x84 c:/program files (x86)/atmel/studio/7.0/toolchain/arm/arm-gnu-toolchain/bin/../lib/gcc/arm-none-eabi/6.3.1/../../../../arm-none-eabi/lib/thumb/v7e-m\libc.a(lib_a-vfiprintf.o)
 .text.__swsetup_r
                0x00404c88       0xc8 c:/program files (x86)/atmel/studio/7.0/toolchain/arm/arm-gnu-toolchain/bin/../lib/gcc/arm-none-eabi/6.3.1/../../../../arm-none-eabi/lib/thumb/v7e-m\libc.a(lib_a-wsetup.o)
                0x00404c88                __swsetup_r
 .text.startup.register_fini
                0x00404d50       0x14 c:/program files (x86)/atmel/studio/7.0/toolchain/arm/arm-gnu-toolchain/bin/../lib/gcc/arm-none-eabi/6.3.1/../../../../arm-none-eabi/lib/thumb/v7e-m\libc.a(lib_a-__call_atexit.o)
 .text.atexit   0x00404d64        0xc c:/program files (x86)/atmel/studio/7.0/toolchain/arm/arm-gnu-toolchain/bin/../lib/gcc/arm-none-eabi/6.3.1/../../../../arm-none-eabi/lib/thumb/v7e-m\libc.a(lib_a-atexit.o)
                0x00404d64                atexit
 .text.__sflush_r
                0x00404d70      0x140 c:/program files (x86)/atmel/studio/7.0/toolchain/arm/arm-gnu-toolchain/bin/../lib/gcc/arm-none-eabi/6.3.1/../../../../arm-none-eabi/lib/thumb/v7e-m\libc.a(lib_a-fflush.o)
                0x00404d70                __sflush_r
 .text._fflush_r
                0x00404eb0       0x54 c:/program files (x86)/atmel/studio/7.0/toolchain/arm/arm-gnu-toolchain/bin/../lib/gcc/arm-none-eabi/6.3.1/../../../../arm-none-eabi/lib/thumb/v7e-m\libc.a(lib_a-fflush.o)
                0x00404eb0                _fflush_r
 .text._cleanup_r
                0x00404f04        0xc c:/program files (x86)/atmel/studio/7.0/toolchain/arm/arm-gnu-toolchain/bin/../lib/gcc/arm-none-eabi/6.3.1/../../../../arm-none-eabi/lib/thumb/v7e-m\libc.a(lib_a-findfp.o)
                0x00404f04                _cleanup_r
 .text.std.isra.0
                0x00404f10       0x50 c:/program files (x86)/atmel/studio/7.0/toolchain/arm/arm-gnu-toolchain/bin/../lib/gcc/arm-none-eabi/6.3.1/../../../../arm-none-eabi/lib/thumb/v7e-m\libc.a(lib_a-findfp.o)
 .text.__sinit  0x00404f60       0x58 c:/program files (x86)/atmel/studio/7.0/toolchain/arm/arm-gnu-toolchain/bin/../lib/gcc/arm-none-eabi/6.3.1/../../../../arm-none-eabi/lib/thumb/v7e-m\libc.a(lib_a-findfp.o)
                0x00404f60                __sinit
 .text.__sfp_lock_acquire
                0x00404fb8        0xc c:/program files (x86)/atmel/studio/7.0/toolchain/arm/arm-gnu-toolchain/bin/../lib/gcc/arm-none-eabi/6.3.1/../../../../arm-none-eabi/lib/thumb/v7e-m\libc.a(lib_a-findfp.o)
                0x00404fb8                __sfp_lock_acquire
 .text.__sfp_lock_release
                0x00404fc4        0xc c:/program files (x86)/atmel/studio/7.0/toolchain/arm/arm-gnu-toolchain/bin/../lib/gcc/arm-none-eabi/6.3.1/../../../../arm-none-eabi/lib/thumb/v7e-m\libc.a(lib_a-findfp.o)
                0x00404fc4                __sfp_lock_release
 .text.__libc_fini_array
                0x00404fd0       0x34 c:/program files (x86)/atmel/studio/7.0/toolchain/arm/arm-gnu-toolchain/bin/../lib/gcc/arm-none-eabi/6.3.1/../../../../arm-none-eabi/lib/thumb/v7e-m\libc.a(lib_a-fini.o)
                0x00404fd0                __libc_fini_array
 .text.__fputwc
                0x00405004       0xa0 c:/program files (x86)/atmel/studio/7.0/toolchain/arm/arm-gnu-toolchain/bin/../lib/gcc/arm-none-eabi/6.3.1/../../../../arm-none-eabi/lib/thumb/v7e-m\libc.a(lib_a-fputwc.o)
                0x00405004                __fputwc
 .text._fputwc_r
                0x004050a4       0x68 c:/program files (x86)/atmel/studio/7.0/toolchain/arm/arm-gnu-toolchain/bin/../lib/gcc/arm-none-eabi/6.3.1/../../../../arm-none-eabi/lib/thumb/v7e-m\libc.a(lib_a-fputwc.o)
                0x004050a4                _fputwc_r
 .text._malloc_trim_r
                0x0040510c       0xa0 c:/program files (x86)/atmel/studio/7.0/toolchain/arm/arm-gnu-toolchain/bin/../lib/gcc/arm-none-eabi/6.3.1/../../../../arm-none-eabi/lib/thumb/v7e-m\libc.a(lib_a-freer.o)
                0x0040510c                _malloc_trim_r
 .text._free_r  0x004051ac      0x1cc c:/program files (x86)/atmel/studio/7.0/toolchain/arm/arm-gnu-toolchain/bin/../lib/gcc/arm-none-eabi/6.3.1/../../../../arm-none-eabi/lib/thumb/v7e-m\libc.a(lib_a-freer.o)
                0x004051ac                _free_r
 .text.__sfvwrite_r
                0x00405378      0x2f0 c:/program files (x86)/atmel/studio/7.0/toolchain/arm/arm-gnu-toolchain/bin/../lib/gcc/arm-none-eabi/6.3.1/../../../../arm-none-eabi/lib/thumb/v7e-m\libc.a(lib_a-fvwrite.o)
                0x00405378                __sfvwrite_r
 .text._fwalk_reent
                0x00405668       0x54 c:/program files (x86)/atmel/studio/7.0/toolchain/arm/arm-gnu-toolchain/bin/../lib/gcc/arm-none-eabi/6.3.1/../../../../arm-none-eabi/lib/thumb/v7e-m\libc.a(lib_a-fwalk.o)
                0x00405668                _fwalk_reent
 .text.__locale_mb_cur_max
                0x004056bc       0x1c c:/program files (x86)/atmel/studio/7.0/toolchain/arm/arm-gnu-toolchain/bin/../lib/gcc/arm-none-eabi/6.3.1/../../../../arm-none-eabi/lib/thumb/v7e-m\libc.a(lib_a-locale.o)
                0x004056bc                __locale_mb_cur_max
 .text.__retarget_lock_init_recursive
                0x004056d8        0x4 c:/program files (x86)/atmel/studio/7.0/toolchain/arm/arm-gnu-toolchain/bin/../lib/gcc/arm-none-eabi/6.3.1/../../../../arm-none-eabi/lib/thumb/v7e-m\libc.a(lib_a-lock.o)
                0x004056d8                __retarget_lock_init_recursive
 .text.__retarget_lock_close_recursive
                0x004056dc        0x4 c:/program files (x86)/atmel/studio/7.0/toolchain/arm/arm-gnu-toolchain/bin/../lib/gcc/arm-none-eabi/6.3.1/../../../../arm-none-eabi/lib/thumb/v7e-m\libc.a(lib_a-lock.o)
                0x004056dc                __retarget_lock_close_recursive
 .text.__retarget_lock_acquire_recursive
                0x004056e0        0x4 c:/program files (x86)/atmel/studio/7.0/toolchain/arm/arm-gnu-toolchain/bin/../lib/gcc/arm-none-eabi/6.3.1/../../../../arm-none-eabi/lib/thumb/v7e-m\libc.a(lib_a-lock.o)
                0x004056e0                __retarget_lock_acquire_recursive
 .text.__retarget_lock_release_recursive
                0x004056e4        0x4 c:/program files (x86)/atmel/studio/7.0/toolchain/arm/arm-gnu-toolchain/bin/../lib/gcc/arm-none-eabi/6.3.1/../../../../arm-none-eabi/lib/thumb/v7e-m\libc.a(lib_a-lock.o)
                0x004056e4                __retarget_lock_release_recursive
 .text.__swhatbuf_r
                0x004056e8       0x5c c:/program files (x86)/atmel/studio/7.0/toolchain/arm/arm-gnu-toolchain/bin/../lib/gcc/arm-none-eabi/6.3.1/../../../../arm-none-eabi/lib/thumb/v7e-m\libc.a(lib_a-makebuf.o)
                0x004056e8                __swhatbuf_r
 .text.__smakebuf_r
                0x00405744       0x94 c:/program files (x86)/atmel/studio/7.0/toolchain/arm/arm-gnu-toolchain/bin/../lib/gcc/arm-none-eabi/6.3.1/../../../../arm-none-eabi/lib/thumb/v7e-m\libc.a(lib_a-makebuf.o)
                0x00405744                __smakebuf_r
 .text.malloc   0x004057d8       0x10 c:/program files (x86)/atmel/studio/7.0/toolchain/arm/arm-gnu-toolchain/bin/../lib/gcc/arm-none-eabi/6.3.1/../../../../arm-none-eabi/lib/thumb/v7e-m\libc.a(lib_a-malloc.o)
                0x004057d8                malloc
 .text._malloc_r
                0x004057e8      0x560 c:/program files (x86)/atmel/studio/7.0/toolchain/arm/arm-gnu-toolchain/bin/../lib/gcc/arm-none-eabi/6.3.1/../../../../arm-none-eabi/lib/thumb/v7e-m\libc.a(lib_a-mallocr.o)
                0x004057e8                _malloc_r
 .text.__ascii_mbtowc
                0x00405d48       0x2c c:/program files (x86)/atmel/studio/7.0/toolchain/arm/arm-gnu-toolchain/bin/../lib/gcc/arm-none-eabi/6.3.1/../../../../arm-none-eabi/lib/thumb/v7e-m\libc.a(lib_a-mbtowc_r.o)
                0x00405d48                __ascii_mbtowc
 *fill*         0x00405d74        0xc 
 .text          0x00405d80       0xa0 c:/program files (x86)/atmel/studio/7.0/toolchain/arm/arm-gnu-toolchain/bin/../lib/gcc/arm-none-eabi/6.3.1/../../../../arm-none-eabi/lib/thumb/v7e-m\libc.a(lib_a-memchr.o)
                0x00405d80                memchr
 .text.memmove  0x00405e20       0xc8 c:/program files (x86)/atmel/studio/7.0/toolchain/arm/arm-gnu-toolchain/bin/../lib/gcc/arm-none-eabi/6.3.1/../../../../arm-none-eabi/lib/thumb/v7e-m\libc.a(lib_a-memmove.o)
                0x00405e20                memmove
 .text.__malloc_lock
                0x00405ee8        0xc c:/program files (x86)/atmel/studio/7.0/toolchain/arm/arm-gnu-toolchain/bin/../lib/gcc/arm-none-eabi/6.3.1/../../../../arm-none-eabi/lib/thumb/v7e-m\libc.a(lib_a-mlock.o)
                0x00405ee8                __malloc_lock
 .text.__malloc_unlock
                0x00405ef4        0xc c:/program files (x86)/atmel/studio/7.0/toolchain/arm/arm-gnu-toolchain/bin/../lib/gcc/arm-none-eabi/6.3.1/../../../../arm-none-eabi/lib/thumb/v7e-m\libc.a(lib_a-mlock.o)
                0x00405ef4                __malloc_unlock
 .text._realloc_r
                0x00405f00      0x34c c:/program files (x86)/atmel/studio/7.0/toolchain/arm/arm-gnu-toolchain/bin/../lib/gcc/arm-none-eabi/6.3.1/../../../../arm-none-eabi/lib/thumb/v7e-m\libc.a(lib_a-reallocr.o)
                0x00405f00                _realloc_r
 .text._sbrk_r  0x0040624c       0x24 c:/program files (x86)/atmel/studio/7.0/toolchain/arm/arm-gnu-toolchain/bin/../lib/gcc/arm-none-eabi/6.3.1/../../../../arm-none-eabi/lib/thumb/v7e-m\libc.a(lib_a-sbrkr.o)
                0x0040624c                _sbrk_r
 .text.__sread  0x00406270       0x24 c:/program files (x86)/atmel/studio/7.0/toolchain/arm/arm-gnu-toolchain/bin/../lib/gcc/arm-none-eabi/6.3.1/../../../../arm-none-eabi/lib/thumb/v7e-m\libc.a(lib_a-stdio.o)
                0x00406270                __sread
 .text.__swrite
                0x00406294       0x3c c:/program files (x86)/atmel/studio/7.0/toolchain/arm/arm-gnu-toolchain/bin/../lib/gcc/arm-none-eabi/6.3.1/../../../../arm-none-eabi/lib/thumb/v7e-m\libc.a(lib_a-stdio.o)
                0x00406294                __swrite
 .text.__sseek  0x004062d0       0x20 c:/program files (x86)/atmel/studio/7.0/toolchain/arm/arm-gnu-toolchain/bin/../lib/gcc/arm-none-eabi/6.3.1/../../../../arm-none-eabi/lib/thumb/v7e-m\libc.a(lib_a-stdio.o)
                0x004062d0                __sseek
 .text.__sclose
                0x004062f0        0x8 c:/program files (x86)/atmel/studio/7.0/toolchain/arm/arm-gnu-toolchain/bin/../lib/gcc/arm-none-eabi/6.3.1/../../../../arm-none-eabi/lib/thumb/v7e-m\libc.a(lib_a-stdio.o)
                0x004062f0                __sclose
 *fill*         0x004062f8        0x8 
 .text          0x00406300       0xdc c:/program files (x86)/atmel/studio/7.0/toolchain/arm/arm-gnu-toolchain/bin/../lib/gcc/arm-none-eabi/6.3.1/../../../../arm-none-eabi/lib/thumb/v7e-m\libc.a(lib_a-strlen.o)
                0x00406300                strlen
 .text.__swbuf_r
                0x004063dc       0xb0 c:/program files (x86)/atmel/studio/7.0/toolchain/arm/arm-gnu-toolchain/bin/../lib/gcc/arm-none-eabi/6.3.1/../../../../arm-none-eabi/lib/thumb/v7e-m\libc.a(lib_a-wbuf.o)
                0x004063dc                __swbuf_r
 .text._wcrtomb_r
                0x0040648c       0x54 c:/program files (x86)/atmel/studio/7.0/toolchain/arm/arm-gnu-toolchain/bin/../lib/gcc/arm-none-eabi/6.3.1/../../../../arm-none-eabi/lib/thumb/v7e-m\libc.a(lib_a-wcrtomb.o)
                0x0040648c                _wcrtomb_r
 .text.__ascii_wctomb
                0x004064e0       0x1c c:/program files (x86)/atmel/studio/7.0/toolchain/arm/arm-gnu-toolchain/bin/../lib/gcc/arm-none-eabi/6.3.1/../../../../arm-none-eabi/lib/thumb/v7e-m\libc.a(lib_a-wctomb_r.o)
                0x004064e0                __ascii_wctomb
 .text._write_r
                0x004064fc       0x2c c:/program files (x86)/atmel/studio/7.0/toolchain/arm/arm-gnu-toolchain/bin/../lib/gcc/arm-none-eabi/6.3.1/../../../../arm-none-eabi/lib/thumb/v7e-m\libc.a(lib_a-writer.o)
                0x004064fc                _write_r
 .text.__register_exitproc
                0x00406528       0xc4 c:/program files (x86)/atmel/studio/7.0/toolchain/arm/arm-gnu-toolchain/bin/../lib/gcc/arm-none-eabi/6.3.1/../../../../arm-none-eabi/lib/thumb/v7e-m\libc.a(lib_a-__atexit.o)
                0x00406528                __register_exitproc
 .text._close_r
                0x004065ec       0x24 c:/program files (x86)/atmel/studio/7.0/toolchain/arm/arm-gnu-toolchain/bin/../lib/gcc/arm-none-eabi/6.3.1/../../../../arm-none-eabi/lib/thumb/v7e-m\libc.a(lib_a-closer.o)
                0x004065ec                _close_r
 .text._fclose_r
                0x00406610       0xc4 c:/program files (x86)/atmel/studio/7.0/toolchain/arm/arm-gnu-toolchain/bin/../lib/gcc/arm-none-eabi/6.3.1/../../../../arm-none-eabi/lib/thumb/v7e-m\libc.a(lib_a-fclose.o)
                0x00406610                _fclose_r
 .text._fstat_r
                0x004066d4       0x28 c:/program files (x86)/atmel/studio/7.0/toolchain/arm/arm-gnu-toolchain/bin/../lib/gcc/arm-none-eabi/6.3.1/../../../../arm-none-eabi/lib/thumb/v7e-m\libc.a(lib_a-fstatr.o)
                0x004066d4                _fstat_r
 .text._isatty_r
                0x004066fc       0x24 c:/program files (x86)/atmel/studio/7.0/toolchain/arm/arm-gnu-toolchain/bin/../lib/gcc/arm-none-eabi/6.3.1/../../../../arm-none-eabi/lib/thumb/v7e-m\libc.a(lib_a-isattyr.o)
                0x004066fc                _isatty_r
 .text._lseek_r
                0x00406720       0x2c c:/program files (x86)/atmel/studio/7.0/toolchain/arm/arm-gnu-toolchain/bin/../lib/gcc/arm-none-eabi/6.3.1/../../../../arm-none-eabi/lib/thumb/v7e-m\libc.a(lib_a-lseekr.o)
                0x00406720                _lseek_r
 .text._read_r  0x0040674c       0x2c c:/program files (x86)/atmel/studio/7.0/toolchain/arm/arm-gnu-toolchain/bin/../lib/gcc/arm-none-eabi/6.3.1/../../../../arm-none-eabi/lib/thumb/v7e-m\libc.a(lib_a-readr.o)
                0x0040674c                _read_r
 .text          0x00406778       0x30 c:/program files (x86)/atmel/studio/7.0/toolchain/arm/arm-gnu-toolchain/bin/../lib/gcc/arm-none-eabi/6.3.1/thumb/v7e-m\libgcc.a(_aeabi_uldivmod.o)
                0x00406778                __aeabi_uldivmod
 .text          0x004067a8      0x2dc c:/program files (x86)/atmel/studio/7.0/toolchain/arm/arm-gnu-toolchain/bin/../lib/gcc/arm-none-eabi/6.3.1/thumb/v7e-m\libgcc.a(_udivmoddi4.o)
                0x004067a8                __udivmoddi4
 .text          0x00406a84        0x4 c:/program files (x86)/atmel/studio/7.0/toolchain/arm/arm-gnu-toolchain/bin/../lib/gcc/arm-none-eabi/6.3.1/thumb/v7e-m\libgcc.a(_dvmd_tls.o)
                0x00406a84                __aeabi_idiv0
                0x00406a84                __aeabi_ldiv0
 *(.glue_7t)
 .glue_7t       0x00406a88        0x0 linker stubs
 *(.glue_7)
 .glue_7        0x00406a88        0x0 linker stubs
 *(.rodata .rodata* .gnu.linkonce.r.*)
 .rodata.vTaskStartScheduler.str1.1
                0x00406a88        0x5 src/ASF/thirdparty/freertos/freertos-8.0.1/Source/tasks.o
 .rodata.xTimerCreateTimerTask.str1.1
                0x00406a8d        0x8 src/ASF/thirdparty/freertos/freertos-8.0.1/Source/timers.o
 *fill*         0x00406a95        0x3 
 .rodata        0x00406a98       0x10 src/inv/inv_uart.o
 .rodata.IAM20685.str1.1
                0x00406aa8       0x19 src/inv/protocol_functions.o
                                 0x37 (size before relaxing)
 .rodata.IAM20685_McLaren_seq1.str1.1
                0x00406ac1       0x2d src/inv/protocol_functions.o
 .rodata.IAM20685_McLaren_seq2.str1.1
                0x00406aee       0x2f src/inv/protocol_functions.o
 .rodata.main.str1.1
                0x00406b1d       0x1d src/main.o
 *fill*         0x00406b3a        0x2 
 .rodata._global_impure_ptr
                0x00406b3c        0x4 c:/program files (x86)/atmel/studio/7.0/toolchain/arm/arm-gnu-toolchain/bin/../lib/gcc/arm-none-eabi/6.3.1/../../../../arm-none-eabi/lib/thumb/v7e-m\libc.a(lib_a-impure.o)
                0x00406b3c                _global_impure_ptr
 .rodata._vfiprintf_r.str1.4
                0x00406b40       0x2f c:/program files (x86)/atmel/studio/7.0/toolchain/arm/arm-gnu-toolchain/bin/../lib/gcc/arm-none-eabi/6.3.1/../../../../arm-none-eabi/lib/thumb/v7e-m\libc.a(lib_a-vfiprintf.o)
 *fill*         0x00406b6f        0x1 
 .rodata.blanks.7217
                0x00406b70       0x10 c:/program files (x86)/atmel/studio/7.0/toolchain/arm/arm-gnu-toolchain/bin/../lib/gcc/arm-none-eabi/6.3.1/../../../../arm-none-eabi/lib/thumb/v7e-m\libc.a(lib_a-vfiprintf.o)
 .rodata.zeroes.7218
                0x00406b80       0x10 c:/program files (x86)/atmel/studio/7.0/toolchain/arm/arm-gnu-toolchain/bin/../lib/gcc/arm-none-eabi/6.3.1/../../../../arm-none-eabi/lib/thumb/v7e-m\libc.a(lib_a-vfiprintf.o)
 .rodata._setlocale_r.str1.4
                0x00406b90        0xa c:/program files (x86)/atmel/studio/7.0/toolchain/arm/arm-gnu-toolchain/bin/../lib/gcc/arm-none-eabi/6.3.1/../../../../arm-none-eabi/lib/thumb/v7e-m\libc.a(lib_a-locale.o)
                                  0xd (size before relaxing)
 *fill*         0x00406b9a        0x2 
 .rodata.str1.4
                0x00406b9c        0x4 c:/program files (x86)/atmel/studio/7.0/toolchain/arm/arm-gnu-toolchain/bin/../lib/gcc/arm-none-eabi/6.3.1/../../../../arm-none-eabi/lib/thumb/v7e-m\libc.a(lib_a-locale.o)
                                  0x2 (size before relaxing)
 .rodata._ctype_
                0x00406ba0      0x101 c:/program files (x86)/atmel/studio/7.0/toolchain/arm/arm-gnu-toolchain/bin/../lib/gcc/arm-none-eabi/6.3.1/../../../../arm-none-eabi/lib/thumb/v7e-m\libc.a(lib_a-ctype_.o)
                0x00406ba0                _ctype_
 *(.ARM.extab* .gnu.linkonce.armextab.*)
                0x00406ca4                . = ALIGN (0x4)
 *fill*         0x00406ca1        0x3 
 *(.init)
 .init          0x00406ca4        0x4 c:/program files (x86)/atmel/studio/7.0/toolchain/arm/arm-gnu-toolchain/bin/../lib/gcc/arm-none-eabi/6.3.1/thumb/v7e-m/crti.o
                0x00406ca4                _init
 .init          0x00406ca8        0x8 c:/program files (x86)/atmel/studio/7.0/toolchain/arm/arm-gnu-toolchain/bin/../lib/gcc/arm-none-eabi/6.3.1/thumb/v7e-m/crtn.o
                0x00406cb0                . = ALIGN (0x4)
                0x00406cb0                __preinit_array_start = .
 *(.preinit_array)
                0x00406cb0                __preinit_array_end = .
                0x00406cb0                . = ALIGN (0x4)
                0x00406cb0                __init_array_start = .
 *(SORT(.init_array.*))
 .init_array.00000
                0x00406cb0        0x4 c:/program files (x86)/atmel/studio/7.0/toolchain/arm/arm-gnu-toolchain/bin/../lib/gcc/arm-none-eabi/6.3.1/../../../../arm-none-eabi/lib/thumb/v7e-m\libc.a(lib_a-__call_atexit.o)
 *(.init_array)
 .init_array    0x00406cb4        0x4 c:/program files (x86)/atmel/studio/7.0/toolchain/arm/arm-gnu-toolchain/bin/../lib/gcc/arm-none-eabi/6.3.1/thumb/v7e-m/crtbegin.o
                0x00406cb8                __init_array_end = .
                0x00406cb8                . = ALIGN (0x4)
 *crtbegin.o(.ctors)
 *(EXCLUDE_FILE(*crtend.o) .ctors)
 *(SORT(.ctors.*))
 *crtend.o(.ctors)
                0x00406cb8                . = ALIGN (0x4)
 *(.fini)
 .fini          0x00406cb8        0x4 c:/program files (x86)/atmel/studio/7.0/toolchain/arm/arm-gnu-toolchain/bin/../lib/gcc/arm-none-eabi/6.3.1/thumb/v7e-m/crti.o
                0x00406cb8                _fini
 .fini          0x00406cbc        0x8 c:/program files (x86)/atmel/studio/7.0/toolchain/arm/arm-gnu-toolchain/bin/../lib/gcc/arm-none-eabi/6.3.1/thumb/v7e-m/crtn.o
                0x00406cc4                . = ALIGN (0x4)
                0x00406cc4                __fini_array_start = .
 *(.fini_array)
 .fini_array    0x00406cc4        0x4 c:/program files (x86)/atmel/studio/7.0/toolchain/arm/arm-gnu-toolchain/bin/../lib/gcc/arm-none-eabi/6.3.1/thumb/v7e-m/crtbegin.o
 *(SORT(.fini_array.*))
                0x00406cc8                __fini_array_end = .
 *crtbegin.o(.dtors)
 *(EXCLUDE_FILE(*crtend.o) .dtors)
 *(SORT(.dtors.*))
 *crtend.o(.dtors)
                0x00406cc8                . = ALIGN (0x4)
                0x00406cc8                _efixed = .
                [!provide]                PROVIDE (__exidx_start, .)

.vfp11_veneer   0x00406cc8        0x0
 .vfp11_veneer  0x00406cc8        0x0 linker stubs

.v4_bx          0x00406cc8        0x0
 .v4_bx         0x00406cc8        0x0 linker stubs

.iplt           0x00406cc8        0x0
 .iplt          0x00406cc8        0x0 c:/program files (x86)/atmel/studio/7.0/toolchain/arm/arm-gnu-toolchain/bin/../lib/gcc/arm-none-eabi/6.3.1/thumb/v7e-m/crtbegin.o

.ARM.exidx      0x00406cc8        0x8
 *(.ARM.exidx* .gnu.linkonce.armexidx.*)
 .ARM.exidx     0x00406cc8        0x8 c:/program files (x86)/atmel/studio/7.0/toolchain/arm/arm-gnu-toolchain/bin/../lib/gcc/arm-none-eabi/6.3.1/thumb/v7e-m\libgcc.a(_udivmoddi4.o)
                [!provide]                PROVIDE (__exidx_end, .)

.eh_frame       0x00406cd0        0x0
 .eh_frame      0x00406cd0        0x0 c:/program files (x86)/atmel/studio/7.0/toolchain/arm/arm-gnu-toolchain/bin/../lib/gcc/arm-none-eabi/6.3.1/thumb/v7e-m/crtbegin.o

.rel.dyn        0x00406cd0        0x0
 .rel.iplt      0x00406cd0        0x0 c:/program files (x86)/atmel/studio/7.0/toolchain/arm/arm-gnu-toolchain/bin/../lib/gcc/arm-none-eabi/6.3.1/thumb/v7e-m/crtbegin.o

.jcr            0x00406cd0        0x0
 .jcr           0x00406cd0        0x0 c:/program files (x86)/atmel/studio/7.0/toolchain/arm/arm-gnu-toolchain/bin/../lib/gcc/arm-none-eabi/6.3.1/thumb/v7e-m/crtbegin.o

.igot.plt       0x00406cd0        0x0
 .igot.plt      0x00406cd0        0x0 c:/program files (x86)/atmel/studio/7.0/toolchain/arm/arm-gnu-toolchain/bin/../lib/gcc/arm-none-eabi/6.3.1/thumb/v7e-m/crtbegin.o
                0x00406cd0                . = ALIGN (0x4)
                0x00406cd0                _etext = .

.relocate       0x20000000      0xa48 load address 0x00406cd0
                0x20000000                . = ALIGN (0x4)
                0x20000000                _srelocate = .
 *(.ramfunc .ramfunc.*)
 .ramfunc       0x20000000        0xa src/ASF/common/services/delay/sam/cycle_counter.o
                0x20000000                portable_delay_cycles
 *fill*         0x2000000a        0x2 
 .ramfunc       0x2000000c       0x78 src/ASF/sam/drivers/efc/efc.o
                0x2000000c                efc_perform_read_sequence
                0x20000068                efc_write_fmr
                0x2000006c                efc_perform_fcr
 *(.data .data.*)
 .data.uxCriticalNesting
                0x20000084        0x4 src/ASF/thirdparty/freertos/freertos-8.0.1/Source/portable/GCC/ARM_CM4F/port.o
 .data.xFreeBytesRemaining
                0x20000088        0x4 src/ASF/thirdparty/freertos/freertos-8.0.1/Source/portable/MemMang/heap_2.o
 .data.xNextTaskUnblockTime
                0x2000008c        0x4 src/ASF/thirdparty/freertos/freertos-8.0.1/Source/tasks.o
 .data.g_interrupt_enabled
                0x20000090        0x1 src/ASF/common/utils/interrupt/interrupt_sam_nvic.o
                0x20000090                g_interrupt_enabled
 *fill*         0x20000091        0x3 
 .data.SystemCoreClock
                0x20000094        0x4 src/ASF/sam/utils/cmsis/samg/samg55/source/templates/system_samg55.o
                0x20000094                SystemCoreClock
 .data._impure_ptr
                0x20000098        0x4 c:/program files (x86)/atmel/studio/7.0/toolchain/arm/arm-gnu-toolchain/bin/../lib/gcc/arm-none-eabi/6.3.1/../../../../arm-none-eabi/lib/thumb/v7e-m\libc.a(lib_a-impure.o)
                0x20000098                _impure_ptr
 *fill*         0x2000009c        0x4 
 .data.impure_data
                0x200000a0      0x428 c:/program files (x86)/atmel/studio/7.0/toolchain/arm/arm-gnu-toolchain/bin/../lib/gcc/arm-none-eabi/6.3.1/../../../../arm-none-eabi/lib/thumb/v7e-m\libc.a(lib_a-impure.o)
 .data.__atexit_recursive_mutex
                0x200004c8        0x4 c:/program files (x86)/atmel/studio/7.0/toolchain/arm/arm-gnu-toolchain/bin/../lib/gcc/arm-none-eabi/6.3.1/../../../../arm-none-eabi/lib/thumb/v7e-m\libc.a(lib_a-__call_atexit.o)
                0x200004c8                __atexit_recursive_mutex
 .data.__global_locale
                0x200004cc      0x16c c:/program files (x86)/atmel/studio/7.0/toolchain/arm/arm-gnu-toolchain/bin/../lib/gcc/arm-none-eabi/6.3.1/../../../../arm-none-eabi/lib/thumb/v7e-m\libc.a(lib_a-locale.o)
                0x200004cc                __global_locale
 .data.__malloc_av_
                0x20000638      0x408 c:/program files (x86)/atmel/studio/7.0/toolchain/arm/arm-gnu-toolchain/bin/../lib/gcc/arm-none-eabi/6.3.1/../../../../arm-none-eabi/lib/thumb/v7e-m\libc.a(lib_a-mallocr.o)
                0x20000638                __malloc_av_
 .data.__malloc_sbrk_base
                0x20000a40        0x4 c:/program files (x86)/atmel/studio/7.0/toolchain/arm/arm-gnu-toolchain/bin/../lib/gcc/arm-none-eabi/6.3.1/../../../../arm-none-eabi/lib/thumb/v7e-m\libc.a(lib_a-mallocr.o)
                0x20000a40                __malloc_sbrk_base
 .data.__malloc_trim_threshold
                0x20000a44        0x4 c:/program files (x86)/atmel/studio/7.0/toolchain/arm/arm-gnu-toolchain/bin/../lib/gcc/arm-none-eabi/6.3.1/../../../../arm-none-eabi/lib/thumb/v7e-m\libc.a(lib_a-mallocr.o)
                0x20000a44                __malloc_trim_threshold
                0x20000a48                . = ALIGN (0x4)
                0x20000a48                _erelocate = .

.bss            0x20000a48    0x1ae78 load address 0x00407718
                0x20000a48                . = ALIGN (0x4)
                0x20000a48                _sbss = .
                0x20000a48                _szero = .
 *(.bss .bss.*)
 .bss           0x20000a48       0x1c c:/program files (x86)/atmel/studio/7.0/toolchain/arm/arm-gnu-toolchain/bin/../lib/gcc/arm-none-eabi/6.3.1/thumb/v7e-m/crtbegin.o
 .bss.gs_interrupt_sources
                0x20000a64       0x70 src/ASF/sam/drivers/pio/pio_handler.o
 .bss.gs_ul_nb_sources
                0x20000ad4        0x4 src/ASF/sam/drivers/pio/pio_handler.o
 .bss.reg_value.8851
                0x20000ad8        0x4 src/ASF/sam/drivers/spi/spi.o
 .bss.ul_reg_val.8614
                0x20000adc        0x4 src/ASF/sam/drivers/usart/usart.o
 .bss.ucMaxSysCallPriority
                0x20000ae0        0x1 src/ASF/thirdparty/freertos/freertos-8.0.1/Source/portable/GCC/ARM_CM4F/port.o
 *fill*         0x20000ae1        0x3 
 .bss.ulMaxPRIGROUPValue
                0x20000ae4        0x4 src/ASF/thirdparty/freertos/freertos-8.0.1/Source/portable/GCC/ARM_CM4F/port.o
 .bss.ucHeap    0x20000ae8    0x12c00 src/ASF/thirdparty/freertos/freertos-8.0.1/Source/portable/MemMang/heap_2.o
 .bss.xEnd      0x200136e8        0x8 src/ASF/thirdparty/freertos/freertos-8.0.1/Source/portable/MemMang/heap_2.o
 .bss.xHeapHasBeenInitialised.6128
                0x200136f0        0x4 src/ASF/thirdparty/freertos/freertos-8.0.1/Source/portable/MemMang/heap_2.o
 .bss.xStart    0x200136f4        0x8 src/ASF/thirdparty/freertos/freertos-8.0.1/Source/portable/MemMang/heap_2.o
 .bss.pxCurrentTCB
                0x200136fc        0x4 src/ASF/thirdparty/freertos/freertos-8.0.1/Source/tasks.o
                0x200136fc                pxCurrentTCB
 .bss.pxDelayedTaskList
                0x20013700        0x4 src/ASF/thirdparty/freertos/freertos-8.0.1/Source/tasks.o
 .bss.pxOverflowDelayedTaskList
                0x20013704        0x4 src/ASF/thirdparty/freertos/freertos-8.0.1/Source/tasks.o
 .bss.pxReadyTasksLists
                0x20013708       0x64 src/ASF/thirdparty/freertos/freertos-8.0.1/Source/tasks.o
 .bss.uxCurrentNumberOfTasks
                0x2001376c        0x4 src/ASF/thirdparty/freertos/freertos-8.0.1/Source/tasks.o
 .bss.uxPendedTicks
                0x20013770        0x4 src/ASF/thirdparty/freertos/freertos-8.0.1/Source/tasks.o
 .bss.uxSchedulerSuspended
                0x20013774        0x4 src/ASF/thirdparty/freertos/freertos-8.0.1/Source/tasks.o
 .bss.uxTaskNumber
                0x20013778        0x4 src/ASF/thirdparty/freertos/freertos-8.0.1/Source/tasks.o
 .bss.uxTasksDeleted
                0x2001377c        0x4 src/ASF/thirdparty/freertos/freertos-8.0.1/Source/tasks.o
 .bss.uxTopReadyPriority
                0x20013780        0x4 src/ASF/thirdparty/freertos/freertos-8.0.1/Source/tasks.o
 .bss.xDelayedTaskList1
                0x20013784       0x14 src/ASF/thirdparty/freertos/freertos-8.0.1/Source/tasks.o
 .bss.xDelayedTaskList2
                0x20013798       0x14 src/ASF/thirdparty/freertos/freertos-8.0.1/Source/tasks.o
 .bss.xNumOfOverflows
                0x200137ac        0x4 src/ASF/thirdparty/freertos/freertos-8.0.1/Source/tasks.o
 .bss.xPendingReadyList
                0x200137b0       0x14 src/ASF/thirdparty/freertos/freertos-8.0.1/Source/tasks.o
 .bss.xSchedulerRunning
                0x200137c4        0x4 src/ASF/thirdparty/freertos/freertos-8.0.1/Source/tasks.o
 .bss.xSuspendedTaskList
                0x200137c8       0x14 src/ASF/thirdparty/freertos/freertos-8.0.1/Source/tasks.o
 .bss.xTasksWaitingTermination
                0x200137dc       0x14 src/ASF/thirdparty/freertos/freertos-8.0.1/Source/tasks.o
 .bss.xTickCount
                0x200137f0        0x4 src/ASF/thirdparty/freertos/freertos-8.0.1/Source/tasks.o
 .bss.xYieldPending
                0x200137f4        0x4 src/ASF/thirdparty/freertos/freertos-8.0.1/Source/tasks.o
 .bss.pxCurrentTimerList
                0x200137f8        0x4 src/ASF/thirdparty/freertos/freertos-8.0.1/Source/timers.o
 .bss.pxOverflowTimerList
                0x200137fc        0x4 src/ASF/thirdparty/freertos/freertos-8.0.1/Source/timers.o
 .bss.xActiveTimerList1
                0x20013800       0x14 src/ASF/thirdparty/freertos/freertos-8.0.1/Source/timers.o
 .bss.xActiveTimerList2
                0x20013814       0x14 src/ASF/thirdparty/freertos/freertos-8.0.1/Source/timers.o
 .bss.xLastTime.6360
                0x20013828        0x4 src/ASF/thirdparty/freertos/freertos-8.0.1/Source/timers.o
 .bss.xTimerQueue
                0x2001382c        0x4 src/ASF/thirdparty/freertos/freertos-8.0.1/Source/timers.o
 .bss.heap.6420
                0x20013830        0x4 src/ASF/sam/utils/syscalls/gcc/syscalls.o
 .bss.__malloc_current_mallinfo
                0x20013834       0x28 c:/program files (x86)/atmel/studio/7.0/toolchain/arm/arm-gnu-toolchain/bin/../lib/gcc/arm-none-eabi/6.3.1/../../../../arm-none-eabi/lib/thumb/v7e-m\libc.a(lib_a-mallocr.o)
                0x20013834                __malloc_current_mallinfo
 .bss.__malloc_max_sbrked_mem
                0x2001385c        0x4 c:/program files (x86)/atmel/studio/7.0/toolchain/arm/arm-gnu-toolchain/bin/../lib/gcc/arm-none-eabi/6.3.1/../../../../arm-none-eabi/lib/thumb/v7e-m\libc.a(lib_a-mallocr.o)
                0x2001385c                __malloc_max_sbrked_mem
 .bss.__malloc_max_total_mem
                0x20013860        0x4 c:/program files (x86)/atmel/studio/7.0/toolchain/arm/arm-gnu-toolchain/bin/../lib/gcc/arm-none-eabi/6.3.1/../../../../arm-none-eabi/lib/thumb/v7e-m\libc.a(lib_a-mallocr.o)
                0x20013860                __malloc_max_total_mem
 .bss.__malloc_top_pad
                0x20013864        0x4 c:/program files (x86)/atmel/studio/7.0/toolchain/arm/arm-gnu-toolchain/bin/../lib/gcc/arm-none-eabi/6.3.1/../../../../arm-none-eabi/lib/thumb/v7e-m\libc.a(lib_a-mallocr.o)
                0x20013864                __malloc_top_pad
 *(COMMON)
 COMMON         0x20013868        0x6 src/ASF/common/services/sleepmgr/sam/sleepmgr.o
                0x20013868                sleepmgr_locks
 *fill*         0x2001386e        0x2 
 COMMON         0x20013870        0x4 src/ASF/common/utils/stdio/read.o
                0x20013870                ptr_get
 COMMON         0x20013874        0x8 src/ASF/common/utils/stdio/write.o
                0x20013874                ptr_put
                0x20013878                stdio_base
 COMMON         0x2001387c     0x801c src/main.o
                0x2001387c                xSensorIntPB03Task
                0x20013880                p_pdc
                0x20013884                xMainTask
                0x20013888                sema_main_rx_uart
                0x2001388c                sema_main_tx_uart
                0x20013890                xDMATask
                0x20013894                main_rx_buf
                0x20017894                main_tx_buf
                0x2001b894                sema_sensor_int_pb03
 COMMON         0x2001b898       0x21 c:/program files (x86)/atmel/studio/7.0/toolchain/arm/arm-gnu-toolchain/bin/../lib/gcc/arm-none-eabi/6.3.1/../../../../arm-none-eabi/lib/thumb/v7e-m\libc.a(lib_a-lock.o)
                0x2001b898                __lock___atexit_recursive_mutex
                0x2001b89c                __lock___arc4random_mutex
                0x2001b8a0                __lock___env_recursive_mutex
                0x2001b8a4                __lock___sinit_recursive_mutex
                0x2001b8a8                __lock___malloc_recursive_mutex
                0x2001b8ac                __lock___at_quick_exit_mutex
                0x2001b8b0                __lock___dd_hash_mutex
                0x2001b8b4                __lock___tz_mutex
                0x2001b8b8                __lock___sfp_recursive_mutex
 *fill*         0x2001b8b9        0x3 
 COMMON         0x2001b8bc        0x4 c:/program files (x86)/atmel/studio/7.0/toolchain/arm/arm-gnu-toolchain/bin/../lib/gcc/arm-none-eabi/6.3.1/../../../../arm-none-eabi/lib/thumb/v7e-m\libc.a(lib_a-reent.o)
                0x2001b8bc                errno
                0x2001b8c0                . = ALIGN (0x4)
                0x2001b8c0                _ebss = .
                0x2001b8c0                _ezero = .

.stack          0x2001b8c0     0x3000 load address 0x00422590
                0x2001b8c0                . = ALIGN (0x8)
                0x2001b8c0                _sstack = .
                0x2001e8c0                . = (. + __stack_size__)
 *fill*         0x2001b8c0     0x3000 
                0x2001e8c0                . = ALIGN (0x8)
                0x2001e8c0                _estack = .
                0x2001e8c0                . = ALIGN (0x4)
                0x2001e8c0                _end = .
OUTPUT(ATSAMG_mcu_firmware.elf elf32-littlearm)

.ARM.attributes
                0x00000000       0x2e
 .ARM.attributes
                0x00000000       0x1e c:/program files (x86)/atmel/studio/7.0/toolchain/arm/arm-gnu-toolchain/bin/../lib/gcc/arm-none-eabi/6.3.1/thumb/v7e-m/crti.o
 .ARM.attributes
                0x0000001e       0x2e c:/program files (x86)/atmel/studio/7.0/toolchain/arm/arm-gnu-toolchain/bin/../lib/gcc/arm-none-eabi/6.3.1/thumb/v7e-m/crtbegin.o
 .ARM.attributes
                0x0000004c       0x37 src/ASF/common/services/sleepmgr/sam/sleepmgr.o
 .ARM.attributes
                0x00000083       0x37 src/ASF/common/utils/stdio/read.o
 .ARM.attributes
                0x000000ba       0x37 src/ASF/sam/drivers/pio/pio.o
 .ARM.attributes
                0x000000f1       0x37 src/ASF/sam/drivers/pio/pio_handler.o
 .ARM.attributes
                0x00000128       0x37 src/ASF/sam/drivers/spi/spi.o
 .ARM.attributes
                0x0000015f       0x37 src/ASF/sam/drivers/usart/usart.o
 .ARM.attributes
                0x00000196       0x37 src/ASF/thirdparty/freertos/freertos-8.0.1/Source/list.o
 .ARM.attributes
                0x000001cd       0x37 src/ASF/thirdparty/freertos/freertos-8.0.1/Source/portable/GCC/ARM_CM4F/port.o
 .ARM.attributes
                0x00000204       0x37 src/ASF/thirdparty/freertos/freertos-8.0.1/Source/portable/MemMang/heap_2.o
 .ARM.attributes
                0x0000023b       0x37 src/ASF/thirdparty/freertos/freertos-8.0.1/Source/queue.o
 .ARM.attributes
                0x00000272       0x37 src/ASF/thirdparty/freertos/freertos-8.0.1/Source/tasks.o
 .ARM.attributes
                0x000002a9       0x37 src/ASF/thirdparty/freertos/freertos-8.0.1/Source/timers.o
 .ARM.attributes
                0x000002e0       0x37 src/inv/inv_spi.o
 .ARM.attributes
                0x00000317       0x37 src/inv/inv_uart.o
 .ARM.attributes
                0x0000034e       0x37 src/ASF/common/utils/stdio/write.o
 .ARM.attributes
                0x00000385       0x37 src/ASF/common/services/delay/sam/cycle_counter.o
 .ARM.attributes
                0x000003bc       0x37 src/ASF/sam/drivers/flexcom/flexcom.o
 .ARM.attributes
                0x000003f3       0x37 src/ASF/common/services/clock/samg/sysclk.o
 .ARM.attributes
                0x0000042a       0x37 src/ASF/common/utils/interrupt/interrupt_sam_nvic.o
 .ARM.attributes
                0x00000461       0x37 src/ASF/sam/boards/samg55_xplained_pro/board_init.o
 .ARM.attributes
                0x00000498       0x37 src/ASF/sam/drivers/efc/efc.o
 .ARM.attributes
                0x000004cf       0x37 src/ASF/sam/drivers/pmc/pmc.o
 .ARM.attributes
                0x00000506       0x37 src/ASF/sam/drivers/supc/supc.o
 .ARM.attributes
                0x0000053d       0x37 src/ASF/sam/utils/cmsis/samg/samg55/source/templates/gcc/startup_samg55.o
 .ARM.attributes
                0x00000574       0x37 src/ASF/sam/utils/cmsis/samg/samg55/source/templates/system_samg55.o
 .ARM.attributes
                0x000005ab       0x37 src/ASF/sam/utils/syscalls/gcc/syscalls.o
 .ARM.attributes
                0x000005e2       0x37 src/inv/protocol_functions.o
 .ARM.attributes
                0x00000619       0x37 src/main.o
 .ARM.attributes
                0x00000650       0x2e c:/program files (x86)/atmel/studio/7.0/toolchain/arm/arm-gnu-toolchain/bin/../lib/gcc/arm-none-eabi/6.3.1/../../../../arm-none-eabi/lib/thumb/v7e-m\libc.a(lib_a-impure.o)
 .ARM.attributes
                0x0000067e       0x2e c:/program files (x86)/atmel/studio/7.0/toolchain/arm/arm-gnu-toolchain/bin/../lib/gcc/arm-none-eabi/6.3.1/../../../../arm-none-eabi/lib/thumb/v7e-m\libc.a(lib_a-init.o)
 .ARM.attributes
                0x000006ac       0x2e c:/program files (x86)/atmel/studio/7.0/toolchain/arm/arm-gnu-toolchain/bin/../lib/gcc/arm-none-eabi/6.3.1/../../../../arm-none-eabi/lib/thumb/v7e-m\libc.a(lib_a-iprintf.o)
 .ARM.attributes
                0x000006da       0x1c c:/program files (x86)/atmel/studio/7.0/toolchain/arm/arm-gnu-toolchain/bin/../lib/gcc/arm-none-eabi/6.3.1/../../../../arm-none-eabi/lib/thumb/v7e-m\libc.a(lib_a-memcpy.o)
 .ARM.attributes
                0x000006f6       0x2e c:/program files (x86)/atmel/studio/7.0/toolchain/arm/arm-gnu-toolchain/bin/../lib/gcc/arm-none-eabi/6.3.1/../../../../arm-none-eabi/lib/thumb/v7e-m\libc.a(lib_a-memset.o)
 .ARM.attributes
                0x00000724       0x2e c:/program files (x86)/atmel/studio/7.0/toolchain/arm/arm-gnu-toolchain/bin/../lib/gcc/arm-none-eabi/6.3.1/../../../../arm-none-eabi/lib/thumb/v7e-m\libc.a(lib_a-setbuf.o)
 .ARM.attributes
                0x00000752       0x2e c:/program files (x86)/atmel/studio/7.0/toolchain/arm/arm-gnu-toolchain/bin/../lib/gcc/arm-none-eabi/6.3.1/../../../../arm-none-eabi/lib/thumb/v7e-m\libc.a(lib_a-setvbuf.o)
 .ARM.attributes
                0x00000780       0x2e c:/program files (x86)/atmel/studio/7.0/toolchain/arm/arm-gnu-toolchain/bin/../lib/gcc/arm-none-eabi/6.3.1/../../../../arm-none-eabi/lib/thumb/v7e-m\libc.a(lib_a-vfiprintf.o)
 .ARM.attributes
                0x000007ae       0x2e c:/program files (x86)/atmel/studio/7.0/toolchain/arm/arm-gnu-toolchain/bin/../lib/gcc/arm-none-eabi/6.3.1/../../../../arm-none-eabi/lib/thumb/v7e-m\libc.a(lib_a-wsetup.o)
 .ARM.attributes
                0x000007dc       0x2e c:/program files (x86)/atmel/studio/7.0/toolchain/arm/arm-gnu-toolchain/bin/../lib/gcc/arm-none-eabi/6.3.1/../../../../arm-none-eabi/lib/thumb/v7e-m\libc.a(lib_a-__call_atexit.o)
 .ARM.attributes
                0x0000080a       0x2e c:/program files (x86)/atmel/studio/7.0/toolchain/arm/arm-gnu-toolchain/bin/../lib/gcc/arm-none-eabi/6.3.1/../../../../arm-none-eabi/lib/thumb/v7e-m\libc.a(lib_a-atexit.o)
 .ARM.attributes
                0x00000838       0x2e c:/program files (x86)/atmel/studio/7.0/toolchain/arm/arm-gnu-toolchain/bin/../lib/gcc/arm-none-eabi/6.3.1/../../../../arm-none-eabi/lib/thumb/v7e-m\libc.a(lib_a-fflush.o)
 .ARM.attributes
                0x00000866       0x2e c:/program files (x86)/atmel/studio/7.0/toolchain/arm/arm-gnu-toolchain/bin/../lib/gcc/arm-none-eabi/6.3.1/../../../../arm-none-eabi/lib/thumb/v7e-m\libc.a(lib_a-findfp.o)
 .ARM.attributes
                0x00000894       0x2e c:/program files (x86)/atmel/studio/7.0/toolchain/arm/arm-gnu-toolchain/bin/../lib/gcc/arm-none-eabi/6.3.1/../../../../arm-none-eabi/lib/thumb/v7e-m\libc.a(lib_a-fini.o)
 .ARM.attributes
                0x000008c2       0x2e c:/program files (x86)/atmel/studio/7.0/toolchain/arm/arm-gnu-toolchain/bin/../lib/gcc/arm-none-eabi/6.3.1/../../../../arm-none-eabi/lib/thumb/v7e-m\libc.a(lib_a-fputwc.o)
 .ARM.attributes
                0x000008f0       0x2e c:/program files (x86)/atmel/studio/7.0/toolchain/arm/arm-gnu-toolchain/bin/../lib/gcc/arm-none-eabi/6.3.1/../../../../arm-none-eabi/lib/thumb/v7e-m\libc.a(lib_a-freer.o)
 .ARM.attributes
                0x0000091e       0x2e c:/program files (x86)/atmel/studio/7.0/toolchain/arm/arm-gnu-toolchain/bin/../lib/gcc/arm-none-eabi/6.3.1/../../../../arm-none-eabi/lib/thumb/v7e-m\libc.a(lib_a-fvwrite.o)
 .ARM.attributes
                0x0000094c       0x2e c:/program files (x86)/atmel/studio/7.0/toolchain/arm/arm-gnu-toolchain/bin/../lib/gcc/arm-none-eabi/6.3.1/../../../../arm-none-eabi/lib/thumb/v7e-m\libc.a(lib_a-fwalk.o)
 .ARM.attributes
                0x0000097a       0x2e c:/program files (x86)/atmel/studio/7.0/toolchain/arm/arm-gnu-toolchain/bin/../lib/gcc/arm-none-eabi/6.3.1/../../../../arm-none-eabi/lib/thumb/v7e-m\libc.a(lib_a-locale.o)
 .ARM.attributes
                0x000009a8       0x2e c:/program files (x86)/atmel/studio/7.0/toolchain/arm/arm-gnu-toolchain/bin/../lib/gcc/arm-none-eabi/6.3.1/../../../../arm-none-eabi/lib/thumb/v7e-m\libc.a(lib_a-lock.o)
 .ARM.attributes
                0x000009d6       0x2e c:/program files (x86)/atmel/studio/7.0/toolchain/arm/arm-gnu-toolchain/bin/../lib/gcc/arm-none-eabi/6.3.1/../../../../arm-none-eabi/lib/thumb/v7e-m\libc.a(lib_a-makebuf.o)
 .ARM.attributes
                0x00000a04       0x2e c:/program files (x86)/atmel/studio/7.0/toolchain/arm/arm-gnu-toolchain/bin/../lib/gcc/arm-none-eabi/6.3.1/../../../../arm-none-eabi/lib/thumb/v7e-m\libc.a(lib_a-malloc.o)
 .ARM.attributes
                0x00000a32       0x2e c:/program files (x86)/atmel/studio/7.0/toolchain/arm/arm-gnu-toolchain/bin/../lib/gcc/arm-none-eabi/6.3.1/../../../../arm-none-eabi/lib/thumb/v7e-m\libc.a(lib_a-mallocr.o)
 .ARM.attributes
                0x00000a60       0x2e c:/program files (x86)/atmel/studio/7.0/toolchain/arm/arm-gnu-toolchain/bin/../lib/gcc/arm-none-eabi/6.3.1/../../../../arm-none-eabi/lib/thumb/v7e-m\libc.a(lib_a-mbtowc_r.o)
 .ARM.attributes
                0x00000a8e       0x1c c:/program files (x86)/atmel/studio/7.0/toolchain/arm/arm-gnu-toolchain/bin/../lib/gcc/arm-none-eabi/6.3.1/../../../../arm-none-eabi/lib/thumb/v7e-m\libc.a(lib_a-memchr.o)
 .ARM.attributes
                0x00000aaa       0x2e c:/program files (x86)/atmel/studio/7.0/toolchain/arm/arm-gnu-toolchain/bin/../lib/gcc/arm-none-eabi/6.3.1/../../../../arm-none-eabi/lib/thumb/v7e-m\libc.a(lib_a-memmove.o)
 .ARM.attributes
                0x00000ad8       0x2e c:/program files (x86)/atmel/studio/7.0/toolchain/arm/arm-gnu-toolchain/bin/../lib/gcc/arm-none-eabi/6.3.1/../../../../arm-none-eabi/lib/thumb/v7e-m\libc.a(lib_a-mlock.o)
 .ARM.attributes
                0x00000b06       0x2e c:/program files (x86)/atmel/studio/7.0/toolchain/arm/arm-gnu-toolchain/bin/../lib/gcc/arm-none-eabi/6.3.1/../../../../arm-none-eabi/lib/thumb/v7e-m\libc.a(lib_a-reallocr.o)
 .ARM.attributes
                0x00000b34       0x2e c:/program files (x86)/atmel/studio/7.0/toolchain/arm/arm-gnu-toolchain/bin/../lib/gcc/arm-none-eabi/6.3.1/../../../../arm-none-eabi/lib/thumb/v7e-m\libc.a(lib_a-sbrkr.o)
 .ARM.attributes
                0x00000b62       0x2e c:/program files (x86)/atmel/studio/7.0/toolchain/arm/arm-gnu-toolchain/bin/../lib/gcc/arm-none-eabi/6.3.1/../../../../arm-none-eabi/lib/thumb/v7e-m\libc.a(lib_a-stdio.o)
 .ARM.attributes
                0x00000b90       0x1c c:/program files (x86)/atmel/studio/7.0/toolchain/arm/arm-gnu-toolchain/bin/../lib/gcc/arm-none-eabi/6.3.1/../../../../arm-none-eabi/lib/thumb/v7e-m\libc.a(lib_a-strlen.o)
 .ARM.attributes
                0x00000bac       0x2e c:/program files (x86)/atmel/studio/7.0/toolchain/arm/arm-gnu-toolchain/bin/../lib/gcc/arm-none-eabi/6.3.1/../../../../arm-none-eabi/lib/thumb/v7e-m\libc.a(lib_a-wbuf.o)
 .ARM.attributes
                0x00000bda       0x2e c:/program files (x86)/atmel/studio/7.0/toolchain/arm/arm-gnu-toolchain/bin/../lib/gcc/arm-none-eabi/6.3.1/../../../../arm-none-eabi/lib/thumb/v7e-m\libc.a(lib_a-wcrtomb.o)
 .ARM.attributes
                0x00000c08       0x2e c:/program files (x86)/atmel/studio/7.0/toolchain/arm/arm-gnu-toolchain/bin/../lib/gcc/arm-none-eabi/6.3.1/../../../../arm-none-eabi/lib/thumb/v7e-m\libc.a(lib_a-wctomb_r.o)
 .ARM.attributes
                0x00000c36       0x2e c:/program files (x86)/atmel/studio/7.0/toolchain/arm/arm-gnu-toolchain/bin/../lib/gcc/arm-none-eabi/6.3.1/../../../../arm-none-eabi/lib/thumb/v7e-m\libc.a(lib_a-writer.o)
 .ARM.attributes
                0x00000c64       0x2e c:/program files (x86)/atmel/studio/7.0/toolchain/arm/arm-gnu-toolchain/bin/../lib/gcc/arm-none-eabi/6.3.1/../../../../arm-none-eabi/lib/thumb/v7e-m\libc.a(lib_a-__atexit.o)
 .ARM.attributes
                0x00000c92       0x2e c:/program files (x86)/atmel/studio/7.0/toolchain/arm/arm-gnu-toolchain/bin/../lib/gcc/arm-none-eabi/6.3.1/../../../../arm-none-eabi/lib/thumb/v7e-m\libc.a(lib_a-closer.o)
 .ARM.attributes
                0x00000cc0       0x2e c:/program files (x86)/atmel/studio/7.0/toolchain/arm/arm-gnu-toolchain/bin/../lib/gcc/arm-none-eabi/6.3.1/../../../../arm-none-eabi/lib/thumb/v7e-m\libc.a(lib_a-ctype_.o)
 .ARM.attributes
                0x00000cee       0x2e c:/program files (x86)/atmel/studio/7.0/toolchain/arm/arm-gnu-toolchain/bin/../lib/gcc/arm-none-eabi/6.3.1/../../../../arm-none-eabi/lib/thumb/v7e-m\libc.a(lib_a-fclose.o)
 .ARM.attributes
                0x00000d1c       0x2e c:/program files (x86)/atmel/studio/7.0/toolchain/arm/arm-gnu-toolchain/bin/../lib/gcc/arm-none-eabi/6.3.1/../../../../arm-none-eabi/lib/thumb/v7e-m\libc.a(lib_a-fstatr.o)
 .ARM.attributes
                0x00000d4a       0x2e c:/program files (x86)/atmel/studio/7.0/toolchain/arm/arm-gnu-toolchain/bin/../lib/gcc/arm-none-eabi/6.3.1/../../../../arm-none-eabi/lib/thumb/v7e-m\libc.a(lib_a-isattyr.o)
 .ARM.attributes
                0x00000d78       0x2e c:/program files (x86)/atmel/studio/7.0/toolchain/arm/arm-gnu-toolchain/bin/../lib/gcc/arm-none-eabi/6.3.1/../../../../arm-none-eabi/lib/thumb/v7e-m\libc.a(lib_a-lseekr.o)
 .ARM.attributes
                0x00000da6       0x2e c:/program files (x86)/atmel/studio/7.0/toolchain/arm/arm-gnu-toolchain/bin/../lib/gcc/arm-none-eabi/6.3.1/../../../../arm-none-eabi/lib/thumb/v7e-m\libc.a(lib_a-readr.o)
 .ARM.attributes
                0x00000dd4       0x2e c:/program files (x86)/atmel/studio/7.0/toolchain/arm/arm-gnu-toolchain/bin/../lib/gcc/arm-none-eabi/6.3.1/../../../../arm-none-eabi/lib/thumb/v7e-m\libc.a(lib_a-reent.o)
 .ARM.attributes
                0x00000e02       0x1e c:/program files (x86)/atmel/studio/7.0/toolchain/arm/arm-gnu-toolchain/bin/../lib/gcc/arm-none-eabi/6.3.1/thumb/v7e-m\libgcc.a(_aeabi_uldivmod.o)
 .ARM.attributes
                0x00000e20       0x2e c:/program files (x86)/atmel/studio/7.0/toolchain/arm/arm-gnu-toolchain/bin/../lib/gcc/arm-none-eabi/6.3.1/thumb/v7e-m\libgcc.a(_udivmoddi4.o)
 .ARM.attributes
                0x00000e4e       0x1e c:/program files (x86)/atmel/studio/7.0/toolchain/arm/arm-gnu-toolchain/bin/../lib/gcc/arm-none-eabi/6.3.1/thumb/v7e-m\libgcc.a(_dvmd_tls.o)
 .ARM.attributes
                0x00000e6c       0x1e c:/program files (x86)/atmel/studio/7.0/toolchain/arm/arm-gnu-toolchain/bin/../lib/gcc/arm-none-eabi/6.3.1/thumb/v7e-m/crtn.o

.comment        0x00000000       0x59
 .comment       0x00000000       0x59 src/ASF/common/services/sleepmgr/sam/sleepmgr.o
                                 0x5a (size before relaxing)
 .comment       0x00000059       0x5a src/ASF/common/utils/stdio/read.o
 .comment       0x00000059       0x5a src/ASF/sam/drivers/pio/pio.o
 .comment       0x00000059       0x5a src/ASF/sam/drivers/pio/pio_handler.o
 .comment       0x00000059       0x5a src/ASF/sam/drivers/spi/spi.o
 .comment       0x00000059       0x5a src/ASF/sam/drivers/usart/usart.o
 .comment       0x00000059       0x5a src/ASF/thirdparty/freertos/freertos-8.0.1/Source/list.o
 .comment       0x00000059       0x5a src/ASF/thirdparty/freertos/freertos-8.0.1/Source/portable/GCC/ARM_CM4F/port.o
 .comment       0x00000059       0x5a src/ASF/thirdparty/freertos/freertos-8.0.1/Source/portable/MemMang/heap_2.o
 .comment       0x00000059       0x5a src/ASF/thirdparty/freertos/freertos-8.0.1/Source/queue.o
 .comment       0x00000059       0x5a src/ASF/thirdparty/freertos/freertos-8.0.1/Source/tasks.o
 .comment       0x00000059       0x5a src/ASF/thirdparty/freertos/freertos-8.0.1/Source/timers.o
 .comment       0x00000059       0x5a src/inv/inv_spi.o
 .comment       0x00000059       0x5a src/inv/inv_uart.o
 .comment       0x00000059       0x5a src/ASF/common/utils/stdio/write.o
 .comment       0x00000059       0x5a src/ASF/common/services/delay/sam/cycle_counter.o
 .comment       0x00000059       0x5a src/ASF/sam/drivers/flexcom/flexcom.o
 .comment       0x00000059       0x5a src/ASF/common/services/clock/samg/sysclk.o
 .comment       0x00000059       0x5a src/ASF/common/utils/interrupt/interrupt_sam_nvic.o
 .comment       0x00000059       0x5a src/ASF/sam/boards/samg55_xplained_pro/board_init.o
 .comment       0x00000059       0x5a src/ASF/sam/drivers/efc/efc.o
 .comment       0x00000059       0x5a src/ASF/sam/drivers/pmc/pmc.o
 .comment       0x00000059       0x5a src/ASF/sam/drivers/supc/supc.o
 .comment       0x00000059       0x5a src/ASF/sam/utils/cmsis/samg/samg55/source/templates/gcc/startup_samg55.o
 .comment       0x00000059       0x5a src/ASF/sam/utils/cmsis/samg/samg55/source/templates/system_samg55.o
 .comment       0x00000059       0x5a src/ASF/sam/utils/syscalls/gcc/syscalls.o
 .comment       0x00000059       0x5a src/inv/protocol_functions.o
 .comment       0x00000059       0x5a src/main.o

.debug_frame    0x00000000      0xd34
 .debug_frame   0x00000000       0x2c c:/program files (x86)/atmel/studio/7.0/toolchain/arm/arm-gnu-toolchain/bin/../lib/gcc/arm-none-eabi/6.3.1/../../../../arm-none-eabi/lib/thumb/v7e-m\libc.a(lib_a-init.o)
 .debug_frame   0x0000002c       0x74 c:/program files (x86)/atmel/studio/7.0/toolchain/arm/arm-gnu-toolchain/bin/../lib/gcc/arm-none-eabi/6.3.1/../../../../arm-none-eabi/lib/thumb/v7e-m\libc.a(lib_a-iprintf.o)
 .debug_frame   0x000000a0       0x34 c:/program files (x86)/atmel/studio/7.0/toolchain/arm/arm-gnu-toolchain/bin/../lib/gcc/arm-none-eabi/6.3.1/../../../../arm-none-eabi/lib/thumb/v7e-m\libc.a(lib_a-memset.o)
 .debug_frame   0x000000d4       0x20 c:/program files (x86)/atmel/studio/7.0/toolchain/arm/arm-gnu-toolchain/bin/../lib/gcc/arm-none-eabi/6.3.1/../../../../arm-none-eabi/lib/thumb/v7e-m\libc.a(lib_a-setbuf.o)
 .debug_frame   0x000000f4       0x48 c:/program files (x86)/atmel/studio/7.0/toolchain/arm/arm-gnu-toolchain/bin/../lib/gcc/arm-none-eabi/6.3.1/../../../../arm-none-eabi/lib/thumb/v7e-m\libc.a(lib_a-setvbuf.o)
 .debug_frame   0x0000013c       0xd8 c:/program files (x86)/atmel/studio/7.0/toolchain/arm/arm-gnu-toolchain/bin/../lib/gcc/arm-none-eabi/6.3.1/../../../../arm-none-eabi/lib/thumb/v7e-m\libc.a(lib_a-vfiprintf.o)
 .debug_frame   0x00000214       0x2c c:/program files (x86)/atmel/studio/7.0/toolchain/arm/arm-gnu-toolchain/bin/../lib/gcc/arm-none-eabi/6.3.1/../../../../arm-none-eabi/lib/thumb/v7e-m\libc.a(lib_a-wsetup.o)
 .debug_frame   0x00000240       0x5c c:/program files (x86)/atmel/studio/7.0/toolchain/arm/arm-gnu-toolchain/bin/../lib/gcc/arm-none-eabi/6.3.1/../../../../arm-none-eabi/lib/thumb/v7e-m\libc.a(lib_a-__call_atexit.o)
 .debug_frame   0x0000029c       0x20 c:/program files (x86)/atmel/studio/7.0/toolchain/arm/arm-gnu-toolchain/bin/../lib/gcc/arm-none-eabi/6.3.1/../../../../arm-none-eabi/lib/thumb/v7e-m\libc.a(lib_a-atexit.o)
 .debug_frame   0x000002bc       0x5c c:/program files (x86)/atmel/studio/7.0/toolchain/arm/arm-gnu-toolchain/bin/../lib/gcc/arm-none-eabi/6.3.1/../../../../arm-none-eabi/lib/thumb/v7e-m\libc.a(lib_a-fflush.o)
 .debug_frame   0x00000318      0x148 c:/program files (x86)/atmel/studio/7.0/toolchain/arm/arm-gnu-toolchain/bin/../lib/gcc/arm-none-eabi/6.3.1/../../../../arm-none-eabi/lib/thumb/v7e-m\libc.a(lib_a-findfp.o)
 .debug_frame   0x00000460       0x34 c:/program files (x86)/atmel/studio/7.0/toolchain/arm/arm-gnu-toolchain/bin/../lib/gcc/arm-none-eabi/6.3.1/../../../../arm-none-eabi/lib/thumb/v7e-m\libc.a(lib_a-fini.o)
 .debug_frame   0x00000494       0x94 c:/program files (x86)/atmel/studio/7.0/toolchain/arm/arm-gnu-toolchain/bin/../lib/gcc/arm-none-eabi/6.3.1/../../../../arm-none-eabi/lib/thumb/v7e-m\libc.a(lib_a-fputwc.o)
 .debug_frame   0x00000528       0x74 c:/program files (x86)/atmel/studio/7.0/toolchain/arm/arm-gnu-toolchain/bin/../lib/gcc/arm-none-eabi/6.3.1/../../../../arm-none-eabi/lib/thumb/v7e-m\libc.a(lib_a-freer.o)
 .debug_frame   0x0000059c       0x68 c:/program files (x86)/atmel/studio/7.0/toolchain/arm/arm-gnu-toolchain/bin/../lib/gcc/arm-none-eabi/6.3.1/../../../../arm-none-eabi/lib/thumb/v7e-m\libc.a(lib_a-fvwrite.o)
 .debug_frame   0x00000604       0x54 c:/program files (x86)/atmel/studio/7.0/toolchain/arm/arm-gnu-toolchain/bin/../lib/gcc/arm-none-eabi/6.3.1/../../../../arm-none-eabi/lib/thumb/v7e-m\libc.a(lib_a-fwalk.o)
 .debug_frame   0x00000658       0x6c c:/program files (x86)/atmel/studio/7.0/toolchain/arm/arm-gnu-toolchain/bin/../lib/gcc/arm-none-eabi/6.3.1/../../../../arm-none-eabi/lib/thumb/v7e-m\libc.a(lib_a-locale.o)
 .debug_frame   0x000006c4       0xb0 c:/program files (x86)/atmel/studio/7.0/toolchain/arm/arm-gnu-toolchain/bin/../lib/gcc/arm-none-eabi/6.3.1/../../../../arm-none-eabi/lib/thumb/v7e-m\libc.a(lib_a-lock.o)
 .debug_frame   0x00000774       0x68 c:/program files (x86)/atmel/studio/7.0/toolchain/arm/arm-gnu-toolchain/bin/../lib/gcc/arm-none-eabi/6.3.1/../../../../arm-none-eabi/lib/thumb/v7e-m\libc.a(lib_a-makebuf.o)
 .debug_frame   0x000007dc       0x30 c:/program files (x86)/atmel/studio/7.0/toolchain/arm/arm-gnu-toolchain/bin/../lib/gcc/arm-none-eabi/6.3.1/../../../../arm-none-eabi/lib/thumb/v7e-m\libc.a(lib_a-malloc.o)
 .debug_frame   0x0000080c       0x58 c:/program files (x86)/atmel/studio/7.0/toolchain/arm/arm-gnu-toolchain/bin/../lib/gcc/arm-none-eabi/6.3.1/../../../../arm-none-eabi/lib/thumb/v7e-m\libc.a(lib_a-mallocr.o)
 .debug_frame   0x00000864       0x4c c:/program files (x86)/atmel/studio/7.0/toolchain/arm/arm-gnu-toolchain/bin/../lib/gcc/arm-none-eabi/6.3.1/../../../../arm-none-eabi/lib/thumb/v7e-m\libc.a(lib_a-mbtowc_r.o)
 .debug_frame   0x000008b0       0x30 c:/program files (x86)/atmel/studio/7.0/toolchain/arm/arm-gnu-toolchain/bin/../lib/gcc/arm-none-eabi/6.3.1/../../../../arm-none-eabi/lib/thumb/v7e-m\libc.a(lib_a-memmove.o)
 .debug_frame   0x000008e0       0x30 c:/program files (x86)/atmel/studio/7.0/toolchain/arm/arm-gnu-toolchain/bin/../lib/gcc/arm-none-eabi/6.3.1/../../../../arm-none-eabi/lib/thumb/v7e-m\libc.a(lib_a-mlock.o)
 .debug_frame   0x00000910       0x68 c:/program files (x86)/atmel/studio/7.0/toolchain/arm/arm-gnu-toolchain/bin/../lib/gcc/arm-none-eabi/6.3.1/../../../../arm-none-eabi/lib/thumb/v7e-m\libc.a(lib_a-reallocr.o)
 .debug_frame   0x00000978       0x2c c:/program files (x86)/atmel/studio/7.0/toolchain/arm/arm-gnu-toolchain/bin/../lib/gcc/arm-none-eabi/6.3.1/../../../../arm-none-eabi/lib/thumb/v7e-m\libc.a(lib_a-sbrkr.o)
 .debug_frame   0x000009a4       0x88 c:/program files (x86)/atmel/studio/7.0/toolchain/arm/arm-gnu-toolchain/bin/../lib/gcc/arm-none-eabi/6.3.1/../../../../arm-none-eabi/lib/thumb/v7e-m\libc.a(lib_a-stdio.o)
 .debug_frame   0x00000a2c       0x40 c:/program files (x86)/atmel/studio/7.0/toolchain/arm/arm-gnu-toolchain/bin/../lib/gcc/arm-none-eabi/6.3.1/../../../../arm-none-eabi/lib/thumb/v7e-m\libc.a(lib_a-wbuf.o)
 .debug_frame   0x00000a6c       0x5c c:/program files (x86)/atmel/studio/7.0/toolchain/arm/arm-gnu-toolchain/bin/../lib/gcc/arm-none-eabi/6.3.1/../../../../arm-none-eabi/lib/thumb/v7e-m\libc.a(lib_a-wcrtomb.o)
 .debug_frame   0x00000ac8       0x3c c:/program files (x86)/atmel/studio/7.0/toolchain/arm/arm-gnu-toolchain/bin/../lib/gcc/arm-none-eabi/6.3.1/../../../../arm-none-eabi/lib/thumb/v7e-m\libc.a(lib_a-wctomb_r.o)
 .debug_frame   0x00000b04       0x2c c:/program files (x86)/atmel/studio/7.0/toolchain/arm/arm-gnu-toolchain/bin/../lib/gcc/arm-none-eabi/6.3.1/../../../../arm-none-eabi/lib/thumb/v7e-m\libc.a(lib_a-writer.o)
 .debug_frame   0x00000b30       0x34 c:/program files (x86)/atmel/studio/7.0/toolchain/arm/arm-gnu-toolchain/bin/../lib/gcc/arm-none-eabi/6.3.1/../../../../arm-none-eabi/lib/thumb/v7e-m\libc.a(lib_a-__atexit.o)
 .debug_frame   0x00000b64       0x2c c:/program files (x86)/atmel/studio/7.0/toolchain/arm/arm-gnu-toolchain/bin/../lib/gcc/arm-none-eabi/6.3.1/../../../../arm-none-eabi/lib/thumb/v7e-m\libc.a(lib_a-closer.o)
 .debug_frame   0x00000b90       0x3c c:/program files (x86)/atmel/studio/7.0/toolchain/arm/arm-gnu-toolchain/bin/../lib/gcc/arm-none-eabi/6.3.1/../../../../arm-none-eabi/lib/thumb/v7e-m\libc.a(lib_a-fclose.o)
 .debug_frame   0x00000bcc       0x2c c:/program files (x86)/atmel/studio/7.0/toolchain/arm/arm-gnu-toolchain/bin/../lib/gcc/arm-none-eabi/6.3.1/../../../../arm-none-eabi/lib/thumb/v7e-m\libc.a(lib_a-fstatr.o)
 .debug_frame   0x00000bf8       0x2c c:/program files (x86)/atmel/studio/7.0/toolchain/arm/arm-gnu-toolchain/bin/../lib/gcc/arm-none-eabi/6.3.1/../../../../arm-none-eabi/lib/thumb/v7e-m\libc.a(lib_a-isattyr.o)
 .debug_frame   0x00000c24       0x2c c:/program files (x86)/atmel/studio/7.0/toolchain/arm/arm-gnu-toolchain/bin/../lib/gcc/arm-none-eabi/6.3.1/../../../../arm-none-eabi/lib/thumb/v7e-m\libc.a(lib_a-lseekr.o)
 .debug_frame   0x00000c50       0x2c c:/program files (x86)/atmel/studio/7.0/toolchain/arm/arm-gnu-toolchain/bin/../lib/gcc/arm-none-eabi/6.3.1/../../../../arm-none-eabi/lib/thumb/v7e-m\libc.a(lib_a-readr.o)
 .debug_frame   0x00000c7c       0x58 c:/program files (x86)/atmel/studio/7.0/toolchain/arm/arm-gnu-toolchain/bin/../lib/gcc/arm-none-eabi/6.3.1/../../../../arm-none-eabi/lib/thumb/v7e-m\libc.a(lib_a-reent.o)
 .debug_frame   0x00000cd4       0x2c c:/program files (x86)/atmel/studio/7.0/toolchain/arm/arm-gnu-toolchain/bin/../lib/gcc/arm-none-eabi/6.3.1/thumb/v7e-m\libgcc.a(_aeabi_uldivmod.o)
 .debug_frame   0x00000d00       0x34 c:/program files (x86)/atmel/studio/7.0/toolchain/arm/arm-gnu-toolchain/bin/../lib/gcc/arm-none-eabi/6.3.1/thumb/v7e-m\libgcc.a(_udivmoddi4.o)

Cross Reference Table

Symbol                                            File
ADC_Handler                                       src/ASF/sam/utils/cmsis/samg/samg55/source/templates/gcc/startup_samg55.o
ARM_Handler                                       src/ASF/sam/utils/cmsis/samg/samg55/source/templates/gcc/startup_samg55.o
BusFault_Handler                                  src/ASF/sam/utils/cmsis/samg/samg55/source/templates/gcc/startup_samg55.o
CRCCU_Handler                                     src/ASF/sam/utils/cmsis/samg/samg55/source/templates/gcc/startup_samg55.o
DebugMon_Handler                                  src/ASF/sam/utils/cmsis/samg/samg55/source/templates/gcc/startup_samg55.o
Dummy_Handler                                     src/ASF/sam/utils/cmsis/samg/samg55/source/templates/gcc/startup_samg55.o
EFC_Handler                                       src/ASF/sam/utils/cmsis/samg/samg55/source/templates/gcc/startup_samg55.o
FLEXCOM0_Handler                                  src/inv/inv_uart.o
FLEXCOM1_Handler                                  src/ASF/sam/utils/cmsis/samg/samg55/source/templates/gcc/startup_samg55.o
FLEXCOM2_Handler                                  src/ASF/sam/utils/cmsis/samg/samg55/source/templates/gcc/startup_samg55.o
FLEXCOM3_Handler                                  src/ASF/sam/utils/cmsis/samg/samg55/source/templates/gcc/startup_samg55.o
FLEXCOM4_Handler                                  src/ASF/sam/utils/cmsis/samg/samg55/source/templates/gcc/startup_samg55.o
FLEXCOM5_Handler                                  src/ASF/sam/utils/cmsis/samg/samg55/source/templates/gcc/startup_samg55.o
FLEXCOM6_Handler                                  src/ASF/sam/utils/cmsis/samg/samg55/source/templates/gcc/startup_samg55.o
FLEXCOM7_Handler                                  src/ASF/sam/utils/cmsis/samg/samg55/source/templates/gcc/startup_samg55.o
HardFault_Handler                                 src/ASF/sam/utils/cmsis/samg/samg55/source/templates/gcc/startup_samg55.o
I2SC0_Handler                                     src/ASF/sam/utils/cmsis/samg/samg55/source/templates/gcc/startup_samg55.o
I2SC1_Handler                                     src/ASF/sam/utils/cmsis/samg/samg55/source/templates/gcc/startup_samg55.o
IAM20685                                          src/inv/protocol_functions.o
IAM20685_McLaren_seq1                             src/inv/protocol_functions.o
IAM20685_McLaren_seq2                             src/inv/protocol_functions.o
IAM20685_chipunlock                               src/inv/protocol_functions.o
IAM20685_crc_calculate                            src/inv/protocol_functions.o
IAM20685_crc_calculatefast                        src/inv/protocol_functions.o
IAM20685_writeunlock                              src/inv/protocol_functions.o
MEM2MEM_Handler                                   src/ASF/sam/utils/cmsis/samg/samg55/source/templates/gcc/startup_samg55.o
MemManage_Handler                                 src/ASF/sam/utils/cmsis/samg/samg55/source/templates/gcc/startup_samg55.o
NMI_Handler                                       src/ASF/sam/utils/cmsis/samg/samg55/source/templates/gcc/startup_samg55.o
PDMIC0_Handler                                    src/ASF/sam/utils/cmsis/samg/samg55/source/templates/gcc/startup_samg55.o
PDMIC1_Handler                                    src/ASF/sam/utils/cmsis/samg/samg55/source/templates/gcc/startup_samg55.o
PIOA_Handler                                      src/ASF/sam/drivers/pio/pio_handler.o
PIOB_Handler                                      src/ASF/sam/drivers/pio/pio_handler.o
PMC_Handler                                       src/ASF/sam/utils/cmsis/samg/samg55/source/templates/gcc/startup_samg55.o
PendSV_Handler                                    src/ASF/thirdparty/freertos/freertos-8.0.1/Source/portable/GCC/ARM_CM4F/port.o
RSTC_Handler                                      src/ASF/sam/utils/cmsis/samg/samg55/source/templates/gcc/startup_samg55.o
RTC_Handler                                       src/ASF/sam/utils/cmsis/samg/samg55/source/templates/gcc/startup_samg55.o
RTT_Handler                                       src/ASF/sam/utils/cmsis/samg/samg55/source/templates/gcc/startup_samg55.o
Reset_Handler                                     src/ASF/sam/utils/cmsis/samg/samg55/source/templates/gcc/startup_samg55.o
SUPC_Handler                                      src/ASF/sam/utils/cmsis/samg/samg55/source/templates/gcc/startup_samg55.o
SVC_Handler                                       src/ASF/thirdparty/freertos/freertos-8.0.1/Source/portable/GCC/ARM_CM4F/port.o
SysTick_Handler                                   src/ASF/thirdparty/freertos/freertos-8.0.1/Source/portable/GCC/ARM_CM4F/port.o
SystemCoreClock                                   src/ASF/sam/utils/cmsis/samg/samg55/source/templates/system_samg55.o
                                                  src/ASF/common/services/clock/samg/sysclk.o
SystemCoreClockUpdate                             src/ASF/sam/utils/cmsis/samg/samg55/source/templates/system_samg55.o
                                                  src/ASF/common/services/clock/samg/sysclk.o
SystemInit                                        src/ASF/sam/utils/cmsis/samg/samg55/source/templates/system_samg55.o
TC0_Handler                                       src/ASF/sam/utils/cmsis/samg/samg55/source/templates/gcc/startup_samg55.o
TC1_Handler                                       src/ASF/sam/utils/cmsis/samg/samg55/source/templates/gcc/startup_samg55.o
TC2_Handler                                       src/ASF/sam/utils/cmsis/samg/samg55/source/templates/gcc/startup_samg55.o
TC3_Handler                                       src/ASF/sam/utils/cmsis/samg/samg55/source/templates/gcc/startup_samg55.o
TC4_Handler                                       src/ASF/sam/utils/cmsis/samg/samg55/source/templates/gcc/startup_samg55.o
TC5_Handler                                       src/ASF/sam/utils/cmsis/samg/samg55/source/templates/gcc/startup_samg55.o
UDP_Handler                                       src/ASF/sam/utils/cmsis/samg/samg55/source/templates/gcc/startup_samg55.o
UHP_Handler                                       src/ASF/sam/utils/cmsis/samg/samg55/source/templates/gcc/startup_samg55.o
UI_IF                                             src/main.o
UsageFault_Handler                                src/ASF/sam/utils/cmsis/samg/samg55/source/templates/gcc/startup_samg55.o
WDT_Handler                                       src/ASF/sam/utils/cmsis/samg/samg55/source/templates/gcc/startup_samg55.o
_Jv_RegisterClasses                               c:/program files (x86)/atmel/studio/7.0/toolchain/arm/arm-gnu-toolchain/bin/../lib/gcc/arm-none-eabi/6.3.1/thumb/v7e-m/crtbegin.o
_PathLocale                                       c:/program files (x86)/atmel/studio/7.0/toolchain/arm/arm-gnu-toolchain/bin/../lib/gcc/arm-none-eabi/6.3.1/../../../../arm-none-eabi/lib/thumb/v7e-m\libc.a(lib_a-locale.o)
__aeabi_idiv0                                     c:/program files (x86)/atmel/studio/7.0/toolchain/arm/arm-gnu-toolchain/bin/../lib/gcc/arm-none-eabi/6.3.1/thumb/v7e-m\libgcc.a(_dvmd_tls.o)
__aeabi_ldiv0                                     c:/program files (x86)/atmel/studio/7.0/toolchain/arm/arm-gnu-toolchain/bin/../lib/gcc/arm-none-eabi/6.3.1/thumb/v7e-m\libgcc.a(_dvmd_tls.o)
                                                  c:/program files (x86)/atmel/studio/7.0/toolchain/arm/arm-gnu-toolchain/bin/../lib/gcc/arm-none-eabi/6.3.1/thumb/v7e-m\libgcc.a(_aeabi_uldivmod.o)
__aeabi_uldivmod                                  c:/program files (x86)/atmel/studio/7.0/toolchain/arm/arm-gnu-toolchain/bin/../lib/gcc/arm-none-eabi/6.3.1/thumb/v7e-m\libgcc.a(_aeabi_uldivmod.o)
                                                  c:/program files (x86)/atmel/studio/7.0/toolchain/arm/arm-gnu-toolchain/bin/../lib/gcc/arm-none-eabi/6.3.1/../../../../arm-none-eabi/lib/thumb/v7e-m\libc.a(lib_a-vfiprintf.o)
__ascii_mbtowc                                    c:/program files (x86)/atmel/studio/7.0/toolchain/arm/arm-gnu-toolchain/bin/../lib/gcc/arm-none-eabi/6.3.1/../../../../arm-none-eabi/lib/thumb/v7e-m\libc.a(lib_a-mbtowc_r.o)
                                                  c:/program files (x86)/atmel/studio/7.0/toolchain/arm/arm-gnu-toolchain/bin/../lib/gcc/arm-none-eabi/6.3.1/../../../../arm-none-eabi/lib/thumb/v7e-m\libc.a(lib_a-locale.o)
__ascii_wctomb                                    c:/program files (x86)/atmel/studio/7.0/toolchain/arm/arm-gnu-toolchain/bin/../lib/gcc/arm-none-eabi/6.3.1/../../../../arm-none-eabi/lib/thumb/v7e-m\libc.a(lib_a-wctomb_r.o)
                                                  c:/program files (x86)/atmel/studio/7.0/toolchain/arm/arm-gnu-toolchain/bin/../lib/gcc/arm-none-eabi/6.3.1/../../../../arm-none-eabi/lib/thumb/v7e-m\libc.a(lib_a-locale.o)
__atexit_recursive_mutex                          c:/program files (x86)/atmel/studio/7.0/toolchain/arm/arm-gnu-toolchain/bin/../lib/gcc/arm-none-eabi/6.3.1/../../../../arm-none-eabi/lib/thumb/v7e-m\libc.a(lib_a-__call_atexit.o)
                                                  c:/program files (x86)/atmel/studio/7.0/toolchain/arm/arm-gnu-toolchain/bin/../lib/gcc/arm-none-eabi/6.3.1/../../../../arm-none-eabi/lib/thumb/v7e-m\libc.a(lib_a-__atexit.o)
__bss_end__                                       c:/program files (x86)/atmel/studio/7.0/toolchain/arm/arm-gnu-toolchain/bin/../lib/gcc/arm-none-eabi/6.3.1/../../../../arm-none-eabi/lib/thumb/v7e-m/crt0.o
__bss_start__                                     c:/program files (x86)/atmel/studio/7.0/toolchain/arm/arm-gnu-toolchain/bin/../lib/gcc/arm-none-eabi/6.3.1/../../../../arm-none-eabi/lib/thumb/v7e-m/crt0.o
__call_exitprocs                                  c:/program files (x86)/atmel/studio/7.0/toolchain/arm/arm-gnu-toolchain/bin/../lib/gcc/arm-none-eabi/6.3.1/../../../../arm-none-eabi/lib/thumb/v7e-m\libc.a(lib_a-__call_atexit.o)
                                                  c:/program files (x86)/atmel/studio/7.0/toolchain/arm/arm-gnu-toolchain/bin/../lib/gcc/arm-none-eabi/6.3.1/../../../../arm-none-eabi/lib/thumb/v7e-m\libc.a(lib_a-exit.o)
__deregister_frame_info                           c:/program files (x86)/atmel/studio/7.0/toolchain/arm/arm-gnu-toolchain/bin/../lib/gcc/arm-none-eabi/6.3.1/thumb/v7e-m/crtbegin.o
__dso_handle                                      c:/program files (x86)/atmel/studio/7.0/toolchain/arm/arm-gnu-toolchain/bin/../lib/gcc/arm-none-eabi/6.3.1/thumb/v7e-m/crtbegin.o
__fini_array_end                                  c:/program files (x86)/atmel/studio/7.0/toolchain/arm/arm-gnu-toolchain/bin/../lib/gcc/arm-none-eabi/6.3.1/../../../../arm-none-eabi/lib/thumb/v7e-m\libc.a(lib_a-fini.o)
__fini_array_start                                c:/program files (x86)/atmel/studio/7.0/toolchain/arm/arm-gnu-toolchain/bin/../lib/gcc/arm-none-eabi/6.3.1/../../../../arm-none-eabi/lib/thumb/v7e-m\libc.a(lib_a-fini.o)
__fp_lock_all                                     c:/program files (x86)/atmel/studio/7.0/toolchain/arm/arm-gnu-toolchain/bin/../lib/gcc/arm-none-eabi/6.3.1/../../../../arm-none-eabi/lib/thumb/v7e-m\libc.a(lib_a-findfp.o)
__fp_unlock_all                                   c:/program files (x86)/atmel/studio/7.0/toolchain/arm/arm-gnu-toolchain/bin/../lib/gcc/arm-none-eabi/6.3.1/../../../../arm-none-eabi/lib/thumb/v7e-m\libc.a(lib_a-findfp.o)
__fputwc                                          c:/program files (x86)/atmel/studio/7.0/toolchain/arm/arm-gnu-toolchain/bin/../lib/gcc/arm-none-eabi/6.3.1/../../../../arm-none-eabi/lib/thumb/v7e-m\libc.a(lib_a-fputwc.o)
__global_locale                                   c:/program files (x86)/atmel/studio/7.0/toolchain/arm/arm-gnu-toolchain/bin/../lib/gcc/arm-none-eabi/6.3.1/../../../../arm-none-eabi/lib/thumb/v7e-m\libc.a(lib_a-locale.o)
                                                  c:/program files (x86)/atmel/studio/7.0/toolchain/arm/arm-gnu-toolchain/bin/../lib/gcc/arm-none-eabi/6.3.1/../../../../arm-none-eabi/lib/thumb/v7e-m\libc.a(lib_a-wctomb_r.o)
                                                  c:/program files (x86)/atmel/studio/7.0/toolchain/arm/arm-gnu-toolchain/bin/../lib/gcc/arm-none-eabi/6.3.1/../../../../arm-none-eabi/lib/thumb/v7e-m\libc.a(lib_a-wcrtomb.o)
                                                  c:/program files (x86)/atmel/studio/7.0/toolchain/arm/arm-gnu-toolchain/bin/../lib/gcc/arm-none-eabi/6.3.1/../../../../arm-none-eabi/lib/thumb/v7e-m\libc.a(lib_a-mbtowc_r.o)
__init_array_end                                  c:/program files (x86)/atmel/studio/7.0/toolchain/arm/arm-gnu-toolchain/bin/../lib/gcc/arm-none-eabi/6.3.1/../../../../arm-none-eabi/lib/thumb/v7e-m\libc.a(lib_a-init.o)
__init_array_start                                c:/program files (x86)/atmel/studio/7.0/toolchain/arm/arm-gnu-toolchain/bin/../lib/gcc/arm-none-eabi/6.3.1/../../../../arm-none-eabi/lib/thumb/v7e-m\libc.a(lib_a-init.o)
__libc_fini                                       c:/program files (x86)/atmel/studio/7.0/toolchain/arm/arm-gnu-toolchain/bin/../lib/gcc/arm-none-eabi/6.3.1/../../../../arm-none-eabi/lib/thumb/v7e-m\libc.a(lib_a-__call_atexit.o)
__libc_fini_array                                 c:/program files (x86)/atmel/studio/7.0/toolchain/arm/arm-gnu-toolchain/bin/../lib/gcc/arm-none-eabi/6.3.1/../../../../arm-none-eabi/lib/thumb/v7e-m\libc.a(lib_a-fini.o)
                                                  c:/program files (x86)/atmel/studio/7.0/toolchain/arm/arm-gnu-toolchain/bin/../lib/gcc/arm-none-eabi/6.3.1/../../../../arm-none-eabi/lib/thumb/v7e-m\libc.a(lib_a-__call_atexit.o)
                                                  c:/program files (x86)/atmel/studio/7.0/toolchain/arm/arm-gnu-toolchain/bin/../lib/gcc/arm-none-eabi/6.3.1/../../../../arm-none-eabi/lib/thumb/v7e-m/crt0.o
__libc_init_array                                 c:/program files (x86)/atmel/studio/7.0/toolchain/arm/arm-gnu-toolchain/bin/../lib/gcc/arm-none-eabi/6.3.1/../../../../arm-none-eabi/lib/thumb/v7e-m\libc.a(lib_a-init.o)
                                                  src/ASF/sam/utils/cmsis/samg/samg55/source/templates/gcc/startup_samg55.o
                                                  c:/program files (x86)/atmel/studio/7.0/toolchain/arm/arm-gnu-toolchain/bin/../lib/gcc/arm-none-eabi/6.3.1/../../../../arm-none-eabi/lib/thumb/v7e-m/crt0.o
__locale_ctype_ptr                                c:/program files (x86)/atmel/studio/7.0/toolchain/arm/arm-gnu-toolchain/bin/../lib/gcc/arm-none-eabi/6.3.1/../../../../arm-none-eabi/lib/thumb/v7e-m\libc.a(lib_a-locale.o)
__locale_ctype_ptr_l                              c:/program files (x86)/atmel/studio/7.0/toolchain/arm/arm-gnu-toolchain/bin/../lib/gcc/arm-none-eabi/6.3.1/../../../../arm-none-eabi/lib/thumb/v7e-m\libc.a(lib_a-locale.o)
__locale_mb_cur_max                               c:/program files (x86)/atmel/studio/7.0/toolchain/arm/arm-gnu-toolchain/bin/../lib/gcc/arm-none-eabi/6.3.1/../../../../arm-none-eabi/lib/thumb/v7e-m\libc.a(lib_a-locale.o)
                                                  c:/program files (x86)/atmel/studio/7.0/toolchain/arm/arm-gnu-toolchain/bin/../lib/gcc/arm-none-eabi/6.3.1/../../../../arm-none-eabi/lib/thumb/v7e-m\libc.a(lib_a-fputwc.o)
__lock___arc4random_mutex                         c:/program files (x86)/atmel/studio/7.0/toolchain/arm/arm-gnu-toolchain/bin/../lib/gcc/arm-none-eabi/6.3.1/../../../../arm-none-eabi/lib/thumb/v7e-m\libc.a(lib_a-lock.o)
__lock___at_quick_exit_mutex                      c:/program files (x86)/atmel/studio/7.0/toolchain/arm/arm-gnu-toolchain/bin/../lib/gcc/arm-none-eabi/6.3.1/../../../../arm-none-eabi/lib/thumb/v7e-m\libc.a(lib_a-lock.o)
__lock___atexit_recursive_mutex                   c:/program files (x86)/atmel/studio/7.0/toolchain/arm/arm-gnu-toolchain/bin/../lib/gcc/arm-none-eabi/6.3.1/../../../../arm-none-eabi/lib/thumb/v7e-m\libc.a(lib_a-lock.o)
                                                  c:/program files (x86)/atmel/studio/7.0/toolchain/arm/arm-gnu-toolchain/bin/../lib/gcc/arm-none-eabi/6.3.1/../../../../arm-none-eabi/lib/thumb/v7e-m\libc.a(lib_a-__call_atexit.o)
__lock___dd_hash_mutex                            c:/program files (x86)/atmel/studio/7.0/toolchain/arm/arm-gnu-toolchain/bin/../lib/gcc/arm-none-eabi/6.3.1/../../../../arm-none-eabi/lib/thumb/v7e-m\libc.a(lib_a-lock.o)
__lock___env_recursive_mutex                      c:/program files (x86)/atmel/studio/7.0/toolchain/arm/arm-gnu-toolchain/bin/../lib/gcc/arm-none-eabi/6.3.1/../../../../arm-none-eabi/lib/thumb/v7e-m\libc.a(lib_a-lock.o)
__lock___malloc_recursive_mutex                   c:/program files (x86)/atmel/studio/7.0/toolchain/arm/arm-gnu-toolchain/bin/../lib/gcc/arm-none-eabi/6.3.1/../../../../arm-none-eabi/lib/thumb/v7e-m\libc.a(lib_a-lock.o)
                                                  c:/program files (x86)/atmel/studio/7.0/toolchain/arm/arm-gnu-toolchain/bin/../lib/gcc/arm-none-eabi/6.3.1/../../../../arm-none-eabi/lib/thumb/v7e-m\libc.a(lib_a-mlock.o)
__lock___sfp_recursive_mutex                      c:/program files (x86)/atmel/studio/7.0/toolchain/arm/arm-gnu-toolchain/bin/../lib/gcc/arm-none-eabi/6.3.1/../../../../arm-none-eabi/lib/thumb/v7e-m\libc.a(lib_a-lock.o)
                                                  c:/program files (x86)/atmel/studio/7.0/toolchain/arm/arm-gnu-toolchain/bin/../lib/gcc/arm-none-eabi/6.3.1/../../../../arm-none-eabi/lib/thumb/v7e-m\libc.a(lib_a-findfp.o)
__lock___sinit_recursive_mutex                    c:/program files (x86)/atmel/studio/7.0/toolchain/arm/arm-gnu-toolchain/bin/../lib/gcc/arm-none-eabi/6.3.1/../../../../arm-none-eabi/lib/thumb/v7e-m\libc.a(lib_a-lock.o)
                                                  c:/program files (x86)/atmel/studio/7.0/toolchain/arm/arm-gnu-toolchain/bin/../lib/gcc/arm-none-eabi/6.3.1/../../../../arm-none-eabi/lib/thumb/v7e-m\libc.a(lib_a-findfp.o)
__lock___tz_mutex                                 c:/program files (x86)/atmel/studio/7.0/toolchain/arm/arm-gnu-toolchain/bin/../lib/gcc/arm-none-eabi/6.3.1/../../../../arm-none-eabi/lib/thumb/v7e-m\libc.a(lib_a-lock.o)
__malloc_av_                                      c:/program files (x86)/atmel/studio/7.0/toolchain/arm/arm-gnu-toolchain/bin/../lib/gcc/arm-none-eabi/6.3.1/../../../../arm-none-eabi/lib/thumb/v7e-m\libc.a(lib_a-mallocr.o)
                                                  c:/program files (x86)/atmel/studio/7.0/toolchain/arm/arm-gnu-toolchain/bin/../lib/gcc/arm-none-eabi/6.3.1/../../../../arm-none-eabi/lib/thumb/v7e-m\libc.a(lib_a-reallocr.o)
                                                  c:/program files (x86)/atmel/studio/7.0/toolchain/arm/arm-gnu-toolchain/bin/../lib/gcc/arm-none-eabi/6.3.1/../../../../arm-none-eabi/lib/thumb/v7e-m\libc.a(lib_a-freer.o)
__malloc_current_mallinfo                         c:/program files (x86)/atmel/studio/7.0/toolchain/arm/arm-gnu-toolchain/bin/../lib/gcc/arm-none-eabi/6.3.1/../../../../arm-none-eabi/lib/thumb/v7e-m\libc.a(lib_a-mallocr.o)
                                                  c:/program files (x86)/atmel/studio/7.0/toolchain/arm/arm-gnu-toolchain/bin/../lib/gcc/arm-none-eabi/6.3.1/../../../../arm-none-eabi/lib/thumb/v7e-m\libc.a(lib_a-freer.o)
__malloc_lock                                     c:/program files (x86)/atmel/studio/7.0/toolchain/arm/arm-gnu-toolchain/bin/../lib/gcc/arm-none-eabi/6.3.1/../../../../arm-none-eabi/lib/thumb/v7e-m\libc.a(lib_a-mlock.o)
                                                  c:/program files (x86)/atmel/studio/7.0/toolchain/arm/arm-gnu-toolchain/bin/../lib/gcc/arm-none-eabi/6.3.1/../../../../arm-none-eabi/lib/thumb/v7e-m\libc.a(lib_a-reallocr.o)
                                                  c:/program files (x86)/atmel/studio/7.0/toolchain/arm/arm-gnu-toolchain/bin/../lib/gcc/arm-none-eabi/6.3.1/../../../../arm-none-eabi/lib/thumb/v7e-m\libc.a(lib_a-mallocr.o)
                                                  c:/program files (x86)/atmel/studio/7.0/toolchain/arm/arm-gnu-toolchain/bin/../lib/gcc/arm-none-eabi/6.3.1/../../../../arm-none-eabi/lib/thumb/v7e-m\libc.a(lib_a-freer.o)
__malloc_max_sbrked_mem                           c:/program files (x86)/atmel/studio/7.0/toolchain/arm/arm-gnu-toolchain/bin/../lib/gcc/arm-none-eabi/6.3.1/../../../../arm-none-eabi/lib/thumb/v7e-m\libc.a(lib_a-mallocr.o)
__malloc_max_total_mem                            c:/program files (x86)/atmel/studio/7.0/toolchain/arm/arm-gnu-toolchain/bin/../lib/gcc/arm-none-eabi/6.3.1/../../../../arm-none-eabi/lib/thumb/v7e-m\libc.a(lib_a-mallocr.o)
__malloc_sbrk_base                                c:/program files (x86)/atmel/studio/7.0/toolchain/arm/arm-gnu-toolchain/bin/../lib/gcc/arm-none-eabi/6.3.1/../../../../arm-none-eabi/lib/thumb/v7e-m\libc.a(lib_a-mallocr.o)
                                                  c:/program files (x86)/atmel/studio/7.0/toolchain/arm/arm-gnu-toolchain/bin/../lib/gcc/arm-none-eabi/6.3.1/../../../../arm-none-eabi/lib/thumb/v7e-m\libc.a(lib_a-freer.o)
__malloc_top_pad                                  c:/program files (x86)/atmel/studio/7.0/toolchain/arm/arm-gnu-toolchain/bin/../lib/gcc/arm-none-eabi/6.3.1/../../../../arm-none-eabi/lib/thumb/v7e-m\libc.a(lib_a-mallocr.o)
                                                  c:/program files (x86)/atmel/studio/7.0/toolchain/arm/arm-gnu-toolchain/bin/../lib/gcc/arm-none-eabi/6.3.1/../../../../arm-none-eabi/lib/thumb/v7e-m\libc.a(lib_a-freer.o)
__malloc_trim_threshold                           c:/program files (x86)/atmel/studio/7.0/toolchain/arm/arm-gnu-toolchain/bin/../lib/gcc/arm-none-eabi/6.3.1/../../../../arm-none-eabi/lib/thumb/v7e-m\libc.a(lib_a-mallocr.o)
                                                  c:/program files (x86)/atmel/studio/7.0/toolchain/arm/arm-gnu-toolchain/bin/../lib/gcc/arm-none-eabi/6.3.1/../../../../arm-none-eabi/lib/thumb/v7e-m\libc.a(lib_a-freer.o)
__malloc_unlock                                   c:/program files (x86)/atmel/studio/7.0/toolchain/arm/arm-gnu-toolchain/bin/../lib/gcc/arm-none-eabi/6.3.1/../../../../arm-none-eabi/lib/thumb/v7e-m\libc.a(lib_a-mlock.o)
                                                  c:/program files (x86)/atmel/studio/7.0/toolchain/arm/arm-gnu-toolchain/bin/../lib/gcc/arm-none-eabi/6.3.1/../../../../arm-none-eabi/lib/thumb/v7e-m\libc.a(lib_a-reallocr.o)
                                                  c:/program files (x86)/atmel/studio/7.0/toolchain/arm/arm-gnu-toolchain/bin/../lib/gcc/arm-none-eabi/6.3.1/../../../../arm-none-eabi/lib/thumb/v7e-m\libc.a(lib_a-mallocr.o)
                                                  c:/program files (x86)/atmel/studio/7.0/toolchain/arm/arm-gnu-toolchain/bin/../lib/gcc/arm-none-eabi/6.3.1/../../../../arm-none-eabi/lib/thumb/v7e-m\libc.a(lib_a-freer.o)
__preinit_array_end                               c:/program files (x86)/atmel/studio/7.0/toolchain/arm/arm-gnu-toolchain/bin/../lib/gcc/arm-none-eabi/6.3.1/../../../../arm-none-eabi/lib/thumb/v7e-m\libc.a(lib_a-init.o)
__preinit_array_start                             c:/program files (x86)/atmel/studio/7.0/toolchain/arm/arm-gnu-toolchain/bin/../lib/gcc/arm-none-eabi/6.3.1/../../../../arm-none-eabi/lib/thumb/v7e-m\libc.a(lib_a-init.o)
__ram_end__                                       src/ASF/sam/utils/syscalls/gcc/syscalls.o
__register_exitproc                               c:/program files (x86)/atmel/studio/7.0/toolchain/arm/arm-gnu-toolchain/bin/../lib/gcc/arm-none-eabi/6.3.1/../../../../arm-none-eabi/lib/thumb/v7e-m\libc.a(lib_a-__atexit.o)
                                                  c:/program files (x86)/atmel/studio/7.0/toolchain/arm/arm-gnu-toolchain/bin/../lib/gcc/arm-none-eabi/6.3.1/../../../../arm-none-eabi/lib/thumb/v7e-m\libc.a(lib_a-atexit.o)
__register_frame_info                             c:/program files (x86)/atmel/studio/7.0/toolchain/arm/arm-gnu-toolchain/bin/../lib/gcc/arm-none-eabi/6.3.1/thumb/v7e-m/crtbegin.o
__retarget_lock_acquire                           c:/program files (x86)/atmel/studio/7.0/toolchain/arm/arm-gnu-toolchain/bin/../lib/gcc/arm-none-eabi/6.3.1/../../../../arm-none-eabi/lib/thumb/v7e-m\libc.a(lib_a-lock.o)
__retarget_lock_acquire_recursive                 c:/program files (x86)/atmel/studio/7.0/toolchain/arm/arm-gnu-toolchain/bin/../lib/gcc/arm-none-eabi/6.3.1/../../../../arm-none-eabi/lib/thumb/v7e-m\libc.a(lib_a-lock.o)
                                                  c:/program files (x86)/atmel/studio/7.0/toolchain/arm/arm-gnu-toolchain/bin/../lib/gcc/arm-none-eabi/6.3.1/../../../../arm-none-eabi/lib/thumb/v7e-m\libc.a(lib_a-fclose.o)
                                                  c:/program files (x86)/atmel/studio/7.0/toolchain/arm/arm-gnu-toolchain/bin/../lib/gcc/arm-none-eabi/6.3.1/../../../../arm-none-eabi/lib/thumb/v7e-m\libc.a(lib_a-__atexit.o)
                                                  c:/program files (x86)/atmel/studio/7.0/toolchain/arm/arm-gnu-toolchain/bin/../lib/gcc/arm-none-eabi/6.3.1/../../../../arm-none-eabi/lib/thumb/v7e-m\libc.a(lib_a-mlock.o)
                                                  c:/program files (x86)/atmel/studio/7.0/toolchain/arm/arm-gnu-toolchain/bin/../lib/gcc/arm-none-eabi/6.3.1/../../../../arm-none-eabi/lib/thumb/v7e-m\libc.a(lib_a-fputwc.o)
                                                  c:/program files (x86)/atmel/studio/7.0/toolchain/arm/arm-gnu-toolchain/bin/../lib/gcc/arm-none-eabi/6.3.1/../../../../arm-none-eabi/lib/thumb/v7e-m\libc.a(lib_a-findfp.o)
                                                  c:/program files (x86)/atmel/studio/7.0/toolchain/arm/arm-gnu-toolchain/bin/../lib/gcc/arm-none-eabi/6.3.1/../../../../arm-none-eabi/lib/thumb/v7e-m\libc.a(lib_a-fflush.o)
                                                  c:/program files (x86)/atmel/studio/7.0/toolchain/arm/arm-gnu-toolchain/bin/../lib/gcc/arm-none-eabi/6.3.1/../../../../arm-none-eabi/lib/thumb/v7e-m\libc.a(lib_a-__call_atexit.o)
                                                  c:/program files (x86)/atmel/studio/7.0/toolchain/arm/arm-gnu-toolchain/bin/../lib/gcc/arm-none-eabi/6.3.1/../../../../arm-none-eabi/lib/thumb/v7e-m\libc.a(lib_a-vfiprintf.o)
                                                  c:/program files (x86)/atmel/studio/7.0/toolchain/arm/arm-gnu-toolchain/bin/../lib/gcc/arm-none-eabi/6.3.1/../../../../arm-none-eabi/lib/thumb/v7e-m\libc.a(lib_a-setvbuf.o)
__retarget_lock_close                             c:/program files (x86)/atmel/studio/7.0/toolchain/arm/arm-gnu-toolchain/bin/../lib/gcc/arm-none-eabi/6.3.1/../../../../arm-none-eabi/lib/thumb/v7e-m\libc.a(lib_a-lock.o)
__retarget_lock_close_recursive                   c:/program files (x86)/atmel/studio/7.0/toolchain/arm/arm-gnu-toolchain/bin/../lib/gcc/arm-none-eabi/6.3.1/../../../../arm-none-eabi/lib/thumb/v7e-m\libc.a(lib_a-lock.o)
                                                  c:/program files (x86)/atmel/studio/7.0/toolchain/arm/arm-gnu-toolchain/bin/../lib/gcc/arm-none-eabi/6.3.1/../../../../arm-none-eabi/lib/thumb/v7e-m\libc.a(lib_a-fclose.o)
                                                  c:/program files (x86)/atmel/studio/7.0/toolchain/arm/arm-gnu-toolchain/bin/../lib/gcc/arm-none-eabi/6.3.1/../../../../arm-none-eabi/lib/thumb/v7e-m\libc.a(lib_a-vfiprintf.o)
__retarget_lock_init                              c:/program files (x86)/atmel/studio/7.0/toolchain/arm/arm-gnu-toolchain/bin/../lib/gcc/arm-none-eabi/6.3.1/../../../../arm-none-eabi/lib/thumb/v7e-m\libc.a(lib_a-lock.o)
__retarget_lock_init_recursive                    c:/program files (x86)/atmel/studio/7.0/toolchain/arm/arm-gnu-toolchain/bin/../lib/gcc/arm-none-eabi/6.3.1/../../../../arm-none-eabi/lib/thumb/v7e-m\libc.a(lib_a-lock.o)
                                                  c:/program files (x86)/atmel/studio/7.0/toolchain/arm/arm-gnu-toolchain/bin/../lib/gcc/arm-none-eabi/6.3.1/../../../../arm-none-eabi/lib/thumb/v7e-m\libc.a(lib_a-findfp.o)
                                                  c:/program files (x86)/atmel/studio/7.0/toolchain/arm/arm-gnu-toolchain/bin/../lib/gcc/arm-none-eabi/6.3.1/../../../../arm-none-eabi/lib/thumb/v7e-m\libc.a(lib_a-vfiprintf.o)
__retarget_lock_release                           c:/program files (x86)/atmel/studio/7.0/toolchain/arm/arm-gnu-toolchain/bin/../lib/gcc/arm-none-eabi/6.3.1/../../../../arm-none-eabi/lib/thumb/v7e-m\libc.a(lib_a-lock.o)
__retarget_lock_release_recursive                 c:/program files (x86)/atmel/studio/7.0/toolchain/arm/arm-gnu-toolchain/bin/../lib/gcc/arm-none-eabi/6.3.1/../../../../arm-none-eabi/lib/thumb/v7e-m\libc.a(lib_a-lock.o)
                                                  c:/program files (x86)/atmel/studio/7.0/toolchain/arm/arm-gnu-toolchain/bin/../lib/gcc/arm-none-eabi/6.3.1/../../../../arm-none-eabi/lib/thumb/v7e-m\libc.a(lib_a-fclose.o)
                                                  c:/program files (x86)/atmel/studio/7.0/toolchain/arm/arm-gnu-toolchain/bin/../lib/gcc/arm-none-eabi/6.3.1/../../../../arm-none-eabi/lib/thumb/v7e-m\libc.a(lib_a-__atexit.o)
                                                  c:/program files (x86)/atmel/studio/7.0/toolchain/arm/arm-gnu-toolchain/bin/../lib/gcc/arm-none-eabi/6.3.1/../../../../arm-none-eabi/lib/thumb/v7e-m\libc.a(lib_a-mlock.o)
                                                  c:/program files (x86)/atmel/studio/7.0/toolchain/arm/arm-gnu-toolchain/bin/../lib/gcc/arm-none-eabi/6.3.1/../../../../arm-none-eabi/lib/thumb/v7e-m\libc.a(lib_a-fputwc.o)
                                                  c:/program files (x86)/atmel/studio/7.0/toolchain/arm/arm-gnu-toolchain/bin/../lib/gcc/arm-none-eabi/6.3.1/../../../../arm-none-eabi/lib/thumb/v7e-m\libc.a(lib_a-findfp.o)
                                                  c:/program files (x86)/atmel/studio/7.0/toolchain/arm/arm-gnu-toolchain/bin/../lib/gcc/arm-none-eabi/6.3.1/../../../../arm-none-eabi/lib/thumb/v7e-m\libc.a(lib_a-fflush.o)
                                                  c:/program files (x86)/atmel/studio/7.0/toolchain/arm/arm-gnu-toolchain/bin/../lib/gcc/arm-none-eabi/6.3.1/../../../../arm-none-eabi/lib/thumb/v7e-m\libc.a(lib_a-__call_atexit.o)
                                                  c:/program files (x86)/atmel/studio/7.0/toolchain/arm/arm-gnu-toolchain/bin/../lib/gcc/arm-none-eabi/6.3.1/../../../../arm-none-eabi/lib/thumb/v7e-m\libc.a(lib_a-vfiprintf.o)
                                                  c:/program files (x86)/atmel/studio/7.0/toolchain/arm/arm-gnu-toolchain/bin/../lib/gcc/arm-none-eabi/6.3.1/../../../../arm-none-eabi/lib/thumb/v7e-m\libc.a(lib_a-setvbuf.o)
__retarget_lock_try_acquire                       c:/program files (x86)/atmel/studio/7.0/toolchain/arm/arm-gnu-toolchain/bin/../lib/gcc/arm-none-eabi/6.3.1/../../../../arm-none-eabi/lib/thumb/v7e-m\libc.a(lib_a-lock.o)
__retarget_lock_try_acquire_recursive             c:/program files (x86)/atmel/studio/7.0/toolchain/arm/arm-gnu-toolchain/bin/../lib/gcc/arm-none-eabi/6.3.1/../../../../arm-none-eabi/lib/thumb/v7e-m\libc.a(lib_a-lock.o)
__sclose                                          c:/program files (x86)/atmel/studio/7.0/toolchain/arm/arm-gnu-toolchain/bin/../lib/gcc/arm-none-eabi/6.3.1/../../../../arm-none-eabi/lib/thumb/v7e-m\libc.a(lib_a-stdio.o)
                                                  c:/program files (x86)/atmel/studio/7.0/toolchain/arm/arm-gnu-toolchain/bin/../lib/gcc/arm-none-eabi/6.3.1/../../../../arm-none-eabi/lib/thumb/v7e-m\libc.a(lib_a-findfp.o)
__seofread                                        c:/program files (x86)/atmel/studio/7.0/toolchain/arm/arm-gnu-toolchain/bin/../lib/gcc/arm-none-eabi/6.3.1/../../../../arm-none-eabi/lib/thumb/v7e-m\libc.a(lib_a-stdio.o)
__sflush_r                                        c:/program files (x86)/atmel/studio/7.0/toolchain/arm/arm-gnu-toolchain/bin/../lib/gcc/arm-none-eabi/6.3.1/../../../../arm-none-eabi/lib/thumb/v7e-m\libc.a(lib_a-fflush.o)
                                                  c:/program files (x86)/atmel/studio/7.0/toolchain/arm/arm-gnu-toolchain/bin/../lib/gcc/arm-none-eabi/6.3.1/../../../../arm-none-eabi/lib/thumb/v7e-m\libc.a(lib_a-fclose.o)
__sfmoreglue                                      c:/program files (x86)/atmel/studio/7.0/toolchain/arm/arm-gnu-toolchain/bin/../lib/gcc/arm-none-eabi/6.3.1/../../../../arm-none-eabi/lib/thumb/v7e-m\libc.a(lib_a-findfp.o)
__sfp                                             c:/program files (x86)/atmel/studio/7.0/toolchain/arm/arm-gnu-toolchain/bin/../lib/gcc/arm-none-eabi/6.3.1/../../../../arm-none-eabi/lib/thumb/v7e-m\libc.a(lib_a-findfp.o)
__sfp_lock_acquire                                c:/program files (x86)/atmel/studio/7.0/toolchain/arm/arm-gnu-toolchain/bin/../lib/gcc/arm-none-eabi/6.3.1/../../../../arm-none-eabi/lib/thumb/v7e-m\libc.a(lib_a-findfp.o)
                                                  c:/program files (x86)/atmel/studio/7.0/toolchain/arm/arm-gnu-toolchain/bin/../lib/gcc/arm-none-eabi/6.3.1/../../../../arm-none-eabi/lib/thumb/v7e-m\libc.a(lib_a-fclose.o)
__sfp_lock_release                                c:/program files (x86)/atmel/studio/7.0/toolchain/arm/arm-gnu-toolchain/bin/../lib/gcc/arm-none-eabi/6.3.1/../../../../arm-none-eabi/lib/thumb/v7e-m\libc.a(lib_a-findfp.o)
                                                  c:/program files (x86)/atmel/studio/7.0/toolchain/arm/arm-gnu-toolchain/bin/../lib/gcc/arm-none-eabi/6.3.1/../../../../arm-none-eabi/lib/thumb/v7e-m\libc.a(lib_a-fclose.o)
__sfvwrite_r                                      c:/program files (x86)/atmel/studio/7.0/toolchain/arm/arm-gnu-toolchain/bin/../lib/gcc/arm-none-eabi/6.3.1/../../../../arm-none-eabi/lib/thumb/v7e-m\libc.a(lib_a-fvwrite.o)
                                                  c:/program files (x86)/atmel/studio/7.0/toolchain/arm/arm-gnu-toolchain/bin/../lib/gcc/arm-none-eabi/6.3.1/../../../../arm-none-eabi/lib/thumb/v7e-m\libc.a(lib_a-vfiprintf.o)
__sinit                                           c:/program files (x86)/atmel/studio/7.0/toolchain/arm/arm-gnu-toolchain/bin/../lib/gcc/arm-none-eabi/6.3.1/../../../../arm-none-eabi/lib/thumb/v7e-m\libc.a(lib_a-findfp.o)
                                                  c:/program files (x86)/atmel/studio/7.0/toolchain/arm/arm-gnu-toolchain/bin/../lib/gcc/arm-none-eabi/6.3.1/../../../../arm-none-eabi/lib/thumb/v7e-m\libc.a(lib_a-fclose.o)
                                                  c:/program files (x86)/atmel/studio/7.0/toolchain/arm/arm-gnu-toolchain/bin/../lib/gcc/arm-none-eabi/6.3.1/../../../../arm-none-eabi/lib/thumb/v7e-m\libc.a(lib_a-wbuf.o)
                                                  c:/program files (x86)/atmel/studio/7.0/toolchain/arm/arm-gnu-toolchain/bin/../lib/gcc/arm-none-eabi/6.3.1/../../../../arm-none-eabi/lib/thumb/v7e-m\libc.a(lib_a-fputwc.o)
                                                  c:/program files (x86)/atmel/studio/7.0/toolchain/arm/arm-gnu-toolchain/bin/../lib/gcc/arm-none-eabi/6.3.1/../../../../arm-none-eabi/lib/thumb/v7e-m\libc.a(lib_a-fflush.o)
                                                  c:/program files (x86)/atmel/studio/7.0/toolchain/arm/arm-gnu-toolchain/bin/../lib/gcc/arm-none-eabi/6.3.1/../../../../arm-none-eabi/lib/thumb/v7e-m\libc.a(lib_a-wsetup.o)
                                                  c:/program files (x86)/atmel/studio/7.0/toolchain/arm/arm-gnu-toolchain/bin/../lib/gcc/arm-none-eabi/6.3.1/../../../../arm-none-eabi/lib/thumb/v7e-m\libc.a(lib_a-vfiprintf.o)
                                                  c:/program files (x86)/atmel/studio/7.0/toolchain/arm/arm-gnu-toolchain/bin/../lib/gcc/arm-none-eabi/6.3.1/../../../../arm-none-eabi/lib/thumb/v7e-m\libc.a(lib_a-setvbuf.o)
__sinit_lock_acquire                              c:/program files (x86)/atmel/studio/7.0/toolchain/arm/arm-gnu-toolchain/bin/../lib/gcc/arm-none-eabi/6.3.1/../../../../arm-none-eabi/lib/thumb/v7e-m\libc.a(lib_a-findfp.o)
__sinit_lock_release                              c:/program files (x86)/atmel/studio/7.0/toolchain/arm/arm-gnu-toolchain/bin/../lib/gcc/arm-none-eabi/6.3.1/../../../../arm-none-eabi/lib/thumb/v7e-m\libc.a(lib_a-findfp.o)
__smakebuf_r                                      c:/program files (x86)/atmel/studio/7.0/toolchain/arm/arm-gnu-toolchain/bin/../lib/gcc/arm-none-eabi/6.3.1/../../../../arm-none-eabi/lib/thumb/v7e-m\libc.a(lib_a-makebuf.o)
                                                  c:/program files (x86)/atmel/studio/7.0/toolchain/arm/arm-gnu-toolchain/bin/../lib/gcc/arm-none-eabi/6.3.1/../../../../arm-none-eabi/lib/thumb/v7e-m\libc.a(lib_a-wsetup.o)
__sprint_r                                        c:/program files (x86)/atmel/studio/7.0/toolchain/arm/arm-gnu-toolchain/bin/../lib/gcc/arm-none-eabi/6.3.1/../../../../arm-none-eabi/lib/thumb/v7e-m\libc.a(lib_a-vfiprintf.o)
__sread                                           c:/program files (x86)/atmel/studio/7.0/toolchain/arm/arm-gnu-toolchain/bin/../lib/gcc/arm-none-eabi/6.3.1/../../../../arm-none-eabi/lib/thumb/v7e-m\libc.a(lib_a-stdio.o)
                                                  c:/program files (x86)/atmel/studio/7.0/toolchain/arm/arm-gnu-toolchain/bin/../lib/gcc/arm-none-eabi/6.3.1/../../../../arm-none-eabi/lib/thumb/v7e-m\libc.a(lib_a-findfp.o)
__sseek                                           c:/program files (x86)/atmel/studio/7.0/toolchain/arm/arm-gnu-toolchain/bin/../lib/gcc/arm-none-eabi/6.3.1/../../../../arm-none-eabi/lib/thumb/v7e-m\libc.a(lib_a-stdio.o)
                                                  c:/program files (x86)/atmel/studio/7.0/toolchain/arm/arm-gnu-toolchain/bin/../lib/gcc/arm-none-eabi/6.3.1/../../../../arm-none-eabi/lib/thumb/v7e-m\libc.a(lib_a-findfp.o)
__stack                                           c:/program files (x86)/atmel/studio/7.0/toolchain/arm/arm-gnu-toolchain/bin/../lib/gcc/arm-none-eabi/6.3.1/../../../../arm-none-eabi/lib/thumb/v7e-m/crt0.o
__swbuf                                           c:/program files (x86)/atmel/studio/7.0/toolchain/arm/arm-gnu-toolchain/bin/../lib/gcc/arm-none-eabi/6.3.1/../../../../arm-none-eabi/lib/thumb/v7e-m\libc.a(lib_a-wbuf.o)
__swbuf_r                                         c:/program files (x86)/atmel/studio/7.0/toolchain/arm/arm-gnu-toolchain/bin/../lib/gcc/arm-none-eabi/6.3.1/../../../../arm-none-eabi/lib/thumb/v7e-m\libc.a(lib_a-wbuf.o)
                                                  c:/program files (x86)/atmel/studio/7.0/toolchain/arm/arm-gnu-toolchain/bin/../lib/gcc/arm-none-eabi/6.3.1/../../../../arm-none-eabi/lib/thumb/v7e-m\libc.a(lib_a-fputwc.o)
__swhatbuf_r                                      c:/program files (x86)/atmel/studio/7.0/toolchain/arm/arm-gnu-toolchain/bin/../lib/gcc/arm-none-eabi/6.3.1/../../../../arm-none-eabi/lib/thumb/v7e-m\libc.a(lib_a-makebuf.o)
                                                  c:/program files (x86)/atmel/studio/7.0/toolchain/arm/arm-gnu-toolchain/bin/../lib/gcc/arm-none-eabi/6.3.1/../../../../arm-none-eabi/lib/thumb/v7e-m\libc.a(lib_a-setvbuf.o)
__swrite                                          c:/program files (x86)/atmel/studio/7.0/toolchain/arm/arm-gnu-toolchain/bin/../lib/gcc/arm-none-eabi/6.3.1/../../../../arm-none-eabi/lib/thumb/v7e-m\libc.a(lib_a-stdio.o)
                                                  c:/program files (x86)/atmel/studio/7.0/toolchain/arm/arm-gnu-toolchain/bin/../lib/gcc/arm-none-eabi/6.3.1/../../../../arm-none-eabi/lib/thumb/v7e-m\libc.a(lib_a-findfp.o)
__swsetup_r                                       c:/program files (x86)/atmel/studio/7.0/toolchain/arm/arm-gnu-toolchain/bin/../lib/gcc/arm-none-eabi/6.3.1/../../../../arm-none-eabi/lib/thumb/v7e-m\libc.a(lib_a-wsetup.o)
                                                  c:/program files (x86)/atmel/studio/7.0/toolchain/arm/arm-gnu-toolchain/bin/../lib/gcc/arm-none-eabi/6.3.1/../../../../arm-none-eabi/lib/thumb/v7e-m\libc.a(lib_a-wbuf.o)
                                                  c:/program files (x86)/atmel/studio/7.0/toolchain/arm/arm-gnu-toolchain/bin/../lib/gcc/arm-none-eabi/6.3.1/../../../../arm-none-eabi/lib/thumb/v7e-m\libc.a(lib_a-fvwrite.o)
                                                  c:/program files (x86)/atmel/studio/7.0/toolchain/arm/arm-gnu-toolchain/bin/../lib/gcc/arm-none-eabi/6.3.1/../../../../arm-none-eabi/lib/thumb/v7e-m\libc.a(lib_a-vfiprintf.o)
__udivmoddi4                                      c:/program files (x86)/atmel/studio/7.0/toolchain/arm/arm-gnu-toolchain/bin/../lib/gcc/arm-none-eabi/6.3.1/thumb/v7e-m\libgcc.a(_udivmoddi4.o)
                                                  c:/program files (x86)/atmel/studio/7.0/toolchain/arm/arm-gnu-toolchain/bin/../lib/gcc/arm-none-eabi/6.3.1/thumb/v7e-m\libgcc.a(_aeabi_uldivmod.o)
_cleanup                                          c:/program files (x86)/atmel/studio/7.0/toolchain/arm/arm-gnu-toolchain/bin/../lib/gcc/arm-none-eabi/6.3.1/../../../../arm-none-eabi/lib/thumb/v7e-m\libc.a(lib_a-findfp.o)
_cleanup_r                                        c:/program files (x86)/atmel/studio/7.0/toolchain/arm/arm-gnu-toolchain/bin/../lib/gcc/arm-none-eabi/6.3.1/../../../../arm-none-eabi/lib/thumb/v7e-m\libc.a(lib_a-findfp.o)
                                                  c:/program files (x86)/atmel/studio/7.0/toolchain/arm/arm-gnu-toolchain/bin/../lib/gcc/arm-none-eabi/6.3.1/../../../../arm-none-eabi/lib/thumb/v7e-m\libc.a(lib_a-makebuf.o)
_close                                            src/ASF/sam/utils/syscalls/gcc/syscalls.o
                                                  c:/program files (x86)/atmel/studio/7.0/toolchain/arm/arm-gnu-toolchain/bin/../lib/gcc/arm-none-eabi/6.3.1/../../../../arm-none-eabi/lib/thumb/v7e-m\libc.a(lib_a-closer.o)
_close_r                                          c:/program files (x86)/atmel/studio/7.0/toolchain/arm/arm-gnu-toolchain/bin/../lib/gcc/arm-none-eabi/6.3.1/../../../../arm-none-eabi/lib/thumb/v7e-m\libc.a(lib_a-closer.o)
                                                  c:/program files (x86)/atmel/studio/7.0/toolchain/arm/arm-gnu-toolchain/bin/../lib/gcc/arm-none-eabi/6.3.1/../../../../arm-none-eabi/lib/thumb/v7e-m\libc.a(lib_a-stdio.o)
_ctype_                                           c:/program files (x86)/atmel/studio/7.0/toolchain/arm/arm-gnu-toolchain/bin/../lib/gcc/arm-none-eabi/6.3.1/../../../../arm-none-eabi/lib/thumb/v7e-m\libc.a(lib_a-ctype_.o)
                                                  c:/program files (x86)/atmel/studio/7.0/toolchain/arm/arm-gnu-toolchain/bin/../lib/gcc/arm-none-eabi/6.3.1/../../../../arm-none-eabi/lib/thumb/v7e-m\libc.a(lib_a-locale.o)
_end                                              src/ASF/sam/utils/syscalls/gcc/syscalls.o
_erelocate                                        src/ASF/sam/utils/cmsis/samg/samg55/source/templates/gcc/startup_samg55.o
_estack                                           src/ASF/sam/utils/cmsis/samg/samg55/source/templates/gcc/startup_samg55.o
_etext                                            src/ASF/sam/utils/cmsis/samg/samg55/source/templates/gcc/startup_samg55.o
_exit                                             src/ASF/sam/utils/syscalls/gcc/syscalls.o
                                                  c:/program files (x86)/atmel/studio/7.0/toolchain/arm/arm-gnu-toolchain/bin/../lib/gcc/arm-none-eabi/6.3.1/../../../../arm-none-eabi/lib/thumb/v7e-m\libc.a(lib_a-exit.o)
_ezero                                            src/ASF/sam/utils/cmsis/samg/samg55/source/templates/gcc/startup_samg55.o
_fclose_r                                         c:/program files (x86)/atmel/studio/7.0/toolchain/arm/arm-gnu-toolchain/bin/../lib/gcc/arm-none-eabi/6.3.1/../../../../arm-none-eabi/lib/thumb/v7e-m\libc.a(lib_a-fclose.o)
                                                  c:/program files (x86)/atmel/studio/7.0/toolchain/arm/arm-gnu-toolchain/bin/../lib/gcc/arm-none-eabi/6.3.1/../../../../arm-none-eabi/lib/thumb/v7e-m\libc.a(lib_a-findfp.o)
_fflush_r                                         c:/program files (x86)/atmel/studio/7.0/toolchain/arm/arm-gnu-toolchain/bin/../lib/gcc/arm-none-eabi/6.3.1/../../../../arm-none-eabi/lib/thumb/v7e-m\libc.a(lib_a-fflush.o)
                                                  c:/program files (x86)/atmel/studio/7.0/toolchain/arm/arm-gnu-toolchain/bin/../lib/gcc/arm-none-eabi/6.3.1/../../../../arm-none-eabi/lib/thumb/v7e-m\libc.a(lib_a-wbuf.o)
                                                  c:/program files (x86)/atmel/studio/7.0/toolchain/arm/arm-gnu-toolchain/bin/../lib/gcc/arm-none-eabi/6.3.1/../../../../arm-none-eabi/lib/thumb/v7e-m\libc.a(lib_a-fvwrite.o)
                                                  c:/program files (x86)/atmel/studio/7.0/toolchain/arm/arm-gnu-toolchain/bin/../lib/gcc/arm-none-eabi/6.3.1/../../../../arm-none-eabi/lib/thumb/v7e-m\libc.a(lib_a-vfiprintf.o)
                                                  c:/program files (x86)/atmel/studio/7.0/toolchain/arm/arm-gnu-toolchain/bin/../lib/gcc/arm-none-eabi/6.3.1/../../../../arm-none-eabi/lib/thumb/v7e-m\libc.a(lib_a-setvbuf.o)
_fini                                             c:/program files (x86)/atmel/studio/7.0/toolchain/arm/arm-gnu-toolchain/bin/../lib/gcc/arm-none-eabi/6.3.1/thumb/v7e-m/crti.o
                                                  c:/program files (x86)/atmel/studio/7.0/toolchain/arm/arm-gnu-toolchain/bin/../lib/gcc/arm-none-eabi/6.3.1/../../../../arm-none-eabi/lib/thumb/v7e-m\libc.a(lib_a-fini.o)
_fputwc_r                                         c:/program files (x86)/atmel/studio/7.0/toolchain/arm/arm-gnu-toolchain/bin/../lib/gcc/arm-none-eabi/6.3.1/../../../../arm-none-eabi/lib/thumb/v7e-m\libc.a(lib_a-fputwc.o)
                                                  c:/program files (x86)/atmel/studio/7.0/toolchain/arm/arm-gnu-toolchain/bin/../lib/gcc/arm-none-eabi/6.3.1/../../../../arm-none-eabi/lib/thumb/v7e-m\libc.a(lib_a-vfiprintf.o)
_free_r                                           c:/program files (x86)/atmel/studio/7.0/toolchain/arm/arm-gnu-toolchain/bin/../lib/gcc/arm-none-eabi/6.3.1/../../../../arm-none-eabi/lib/thumb/v7e-m\libc.a(lib_a-freer.o)
                                                  c:/program files (x86)/atmel/studio/7.0/toolchain/arm/arm-gnu-toolchain/bin/../lib/gcc/arm-none-eabi/6.3.1/../../../../arm-none-eabi/lib/thumb/v7e-m\libc.a(lib_a-reent.o)
                                                  c:/program files (x86)/atmel/studio/7.0/toolchain/arm/arm-gnu-toolchain/bin/../lib/gcc/arm-none-eabi/6.3.1/../../../../arm-none-eabi/lib/thumb/v7e-m\libc.a(lib_a-fclose.o)
                                                  c:/program files (x86)/atmel/studio/7.0/toolchain/arm/arm-gnu-toolchain/bin/../lib/gcc/arm-none-eabi/6.3.1/../../../../arm-none-eabi/lib/thumb/v7e-m\libc.a(lib_a-reallocr.o)
                                                  c:/program files (x86)/atmel/studio/7.0/toolchain/arm/arm-gnu-toolchain/bin/../lib/gcc/arm-none-eabi/6.3.1/../../../../arm-none-eabi/lib/thumb/v7e-m\libc.a(lib_a-mallocr.o)
                                                  c:/program files (x86)/atmel/studio/7.0/toolchain/arm/arm-gnu-toolchain/bin/../lib/gcc/arm-none-eabi/6.3.1/../../../../arm-none-eabi/lib/thumb/v7e-m\libc.a(lib_a-malloc.o)
                                                  c:/program files (x86)/atmel/studio/7.0/toolchain/arm/arm-gnu-toolchain/bin/../lib/gcc/arm-none-eabi/6.3.1/../../../../arm-none-eabi/lib/thumb/v7e-m\libc.a(lib_a-fvwrite.o)
                                                  c:/program files (x86)/atmel/studio/7.0/toolchain/arm/arm-gnu-toolchain/bin/../lib/gcc/arm-none-eabi/6.3.1/../../../../arm-none-eabi/lib/thumb/v7e-m\libc.a(lib_a-fflush.o)
                                                  c:/program files (x86)/atmel/studio/7.0/toolchain/arm/arm-gnu-toolchain/bin/../lib/gcc/arm-none-eabi/6.3.1/../../../../arm-none-eabi/lib/thumb/v7e-m\libc.a(lib_a-wsetup.o)
                                                  c:/program files (x86)/atmel/studio/7.0/toolchain/arm/arm-gnu-toolchain/bin/../lib/gcc/arm-none-eabi/6.3.1/../../../../arm-none-eabi/lib/thumb/v7e-m\libc.a(lib_a-setvbuf.o)
_fstat                                            src/ASF/sam/utils/syscalls/gcc/syscalls.o
                                                  c:/program files (x86)/atmel/studio/7.0/toolchain/arm/arm-gnu-toolchain/bin/../lib/gcc/arm-none-eabi/6.3.1/../../../../arm-none-eabi/lib/thumb/v7e-m\libc.a(lib_a-fstatr.o)
_fstat_r                                          c:/program files (x86)/atmel/studio/7.0/toolchain/arm/arm-gnu-toolchain/bin/../lib/gcc/arm-none-eabi/6.3.1/../../../../arm-none-eabi/lib/thumb/v7e-m\libc.a(lib_a-fstatr.o)
                                                  c:/program files (x86)/atmel/studio/7.0/toolchain/arm/arm-gnu-toolchain/bin/../lib/gcc/arm-none-eabi/6.3.1/../../../../arm-none-eabi/lib/thumb/v7e-m\libc.a(lib_a-makebuf.o)
_fwalk                                            c:/program files (x86)/atmel/studio/7.0/toolchain/arm/arm-gnu-toolchain/bin/../lib/gcc/arm-none-eabi/6.3.1/../../../../arm-none-eabi/lib/thumb/v7e-m\libc.a(lib_a-fwalk.o)
                                                  c:/program files (x86)/atmel/studio/7.0/toolchain/arm/arm-gnu-toolchain/bin/../lib/gcc/arm-none-eabi/6.3.1/../../../../arm-none-eabi/lib/thumb/v7e-m\libc.a(lib_a-findfp.o)
_fwalk_reent                                      c:/program files (x86)/atmel/studio/7.0/toolchain/arm/arm-gnu-toolchain/bin/../lib/gcc/arm-none-eabi/6.3.1/../../../../arm-none-eabi/lib/thumb/v7e-m\libc.a(lib_a-fwalk.o)
                                                  c:/program files (x86)/atmel/studio/7.0/toolchain/arm/arm-gnu-toolchain/bin/../lib/gcc/arm-none-eabi/6.3.1/../../../../arm-none-eabi/lib/thumb/v7e-m\libc.a(lib_a-findfp.o)
                                                  c:/program files (x86)/atmel/studio/7.0/toolchain/arm/arm-gnu-toolchain/bin/../lib/gcc/arm-none-eabi/6.3.1/../../../../arm-none-eabi/lib/thumb/v7e-m\libc.a(lib_a-fflush.o)
_getpid                                           src/ASF/sam/utils/syscalls/gcc/syscalls.o
_global_impure_ptr                                c:/program files (x86)/atmel/studio/7.0/toolchain/arm/arm-gnu-toolchain/bin/../lib/gcc/arm-none-eabi/6.3.1/../../../../arm-none-eabi/lib/thumb/v7e-m\libc.a(lib_a-impure.o)
                                                  c:/program files (x86)/atmel/studio/7.0/toolchain/arm/arm-gnu-toolchain/bin/../lib/gcc/arm-none-eabi/6.3.1/../../../../arm-none-eabi/lib/thumb/v7e-m\libc.a(lib_a-__atexit.o)
                                                  c:/program files (x86)/atmel/studio/7.0/toolchain/arm/arm-gnu-toolchain/bin/../lib/gcc/arm-none-eabi/6.3.1/../../../../arm-none-eabi/lib/thumb/v7e-m\libc.a(lib_a-findfp.o)
                                                  c:/program files (x86)/atmel/studio/7.0/toolchain/arm/arm-gnu-toolchain/bin/../lib/gcc/arm-none-eabi/6.3.1/../../../../arm-none-eabi/lib/thumb/v7e-m\libc.a(lib_a-fflush.o)
                                                  c:/program files (x86)/atmel/studio/7.0/toolchain/arm/arm-gnu-toolchain/bin/../lib/gcc/arm-none-eabi/6.3.1/../../../../arm-none-eabi/lib/thumb/v7e-m\libc.a(lib_a-__call_atexit.o)
                                                  c:/program files (x86)/atmel/studio/7.0/toolchain/arm/arm-gnu-toolchain/bin/../lib/gcc/arm-none-eabi/6.3.1/../../../../arm-none-eabi/lib/thumb/v7e-m\libc.a(lib_a-exit.o)
_impure_ptr                                       c:/program files (x86)/atmel/studio/7.0/toolchain/arm/arm-gnu-toolchain/bin/../lib/gcc/arm-none-eabi/6.3.1/../../../../arm-none-eabi/lib/thumb/v7e-m\libc.a(lib_a-impure.o)
                                                  c:/program files (x86)/atmel/studio/7.0/toolchain/arm/arm-gnu-toolchain/bin/../lib/gcc/arm-none-eabi/6.3.1/../../../../arm-none-eabi/lib/thumb/v7e-m\libc.a(lib_a-reent.o)
                                                  c:/program files (x86)/atmel/studio/7.0/toolchain/arm/arm-gnu-toolchain/bin/../lib/gcc/arm-none-eabi/6.3.1/../../../../arm-none-eabi/lib/thumb/v7e-m\libc.a(lib_a-fclose.o)
                                                  c:/program files (x86)/atmel/studio/7.0/toolchain/arm/arm-gnu-toolchain/bin/../lib/gcc/arm-none-eabi/6.3.1/../../../../arm-none-eabi/lib/thumb/v7e-m\libc.a(lib_a-wctomb_r.o)
                                                  c:/program files (x86)/atmel/studio/7.0/toolchain/arm/arm-gnu-toolchain/bin/../lib/gcc/arm-none-eabi/6.3.1/../../../../arm-none-eabi/lib/thumb/v7e-m\libc.a(lib_a-wcrtomb.o)
                                                  c:/program files (x86)/atmel/studio/7.0/toolchain/arm/arm-gnu-toolchain/bin/../lib/gcc/arm-none-eabi/6.3.1/../../../../arm-none-eabi/lib/thumb/v7e-m\libc.a(lib_a-wbuf.o)
                                                  c:/program files (x86)/atmel/studio/7.0/toolchain/arm/arm-gnu-toolchain/bin/../lib/gcc/arm-none-eabi/6.3.1/../../../../arm-none-eabi/lib/thumb/v7e-m\libc.a(lib_a-mbtowc_r.o)
                                                  c:/program files (x86)/atmel/studio/7.0/toolchain/arm/arm-gnu-toolchain/bin/../lib/gcc/arm-none-eabi/6.3.1/../../../../arm-none-eabi/lib/thumb/v7e-m\libc.a(lib_a-malloc.o)
                                                  c:/program files (x86)/atmel/studio/7.0/toolchain/arm/arm-gnu-toolchain/bin/../lib/gcc/arm-none-eabi/6.3.1/../../../../arm-none-eabi/lib/thumb/v7e-m\libc.a(lib_a-locale.o)
                                                  c:/program files (x86)/atmel/studio/7.0/toolchain/arm/arm-gnu-toolchain/bin/../lib/gcc/arm-none-eabi/6.3.1/../../../../arm-none-eabi/lib/thumb/v7e-m\libc.a(lib_a-fputwc.o)
                                                  c:/program files (x86)/atmel/studio/7.0/toolchain/arm/arm-gnu-toolchain/bin/../lib/gcc/arm-none-eabi/6.3.1/../../../../arm-none-eabi/lib/thumb/v7e-m\libc.a(lib_a-findfp.o)
                                                  c:/program files (x86)/atmel/studio/7.0/toolchain/arm/arm-gnu-toolchain/bin/../lib/gcc/arm-none-eabi/6.3.1/../../../../arm-none-eabi/lib/thumb/v7e-m\libc.a(lib_a-fflush.o)
                                                  c:/program files (x86)/atmel/studio/7.0/toolchain/arm/arm-gnu-toolchain/bin/../lib/gcc/arm-none-eabi/6.3.1/../../../../arm-none-eabi/lib/thumb/v7e-m\libc.a(lib_a-wsetup.o)
                                                  c:/program files (x86)/atmel/studio/7.0/toolchain/arm/arm-gnu-toolchain/bin/../lib/gcc/arm-none-eabi/6.3.1/../../../../arm-none-eabi/lib/thumb/v7e-m\libc.a(lib_a-vfiprintf.o)
                                                  c:/program files (x86)/atmel/studio/7.0/toolchain/arm/arm-gnu-toolchain/bin/../lib/gcc/arm-none-eabi/6.3.1/../../../../arm-none-eabi/lib/thumb/v7e-m\libc.a(lib_a-setvbuf.o)
                                                  c:/program files (x86)/atmel/studio/7.0/toolchain/arm/arm-gnu-toolchain/bin/../lib/gcc/arm-none-eabi/6.3.1/../../../../arm-none-eabi/lib/thumb/v7e-m\libc.a(lib_a-iprintf.o)
                                                  src/inv/inv_uart.o
_init                                             c:/program files (x86)/atmel/studio/7.0/toolchain/arm/arm-gnu-toolchain/bin/../lib/gcc/arm-none-eabi/6.3.1/thumb/v7e-m/crti.o
                                                  c:/program files (x86)/atmel/studio/7.0/toolchain/arm/arm-gnu-toolchain/bin/../lib/gcc/arm-none-eabi/6.3.1/../../../../arm-none-eabi/lib/thumb/v7e-m\libc.a(lib_a-init.o)
_iprintf_r                                        c:/program files (x86)/atmel/studio/7.0/toolchain/arm/arm-gnu-toolchain/bin/../lib/gcc/arm-none-eabi/6.3.1/../../../../arm-none-eabi/lib/thumb/v7e-m\libc.a(lib_a-iprintf.o)
_isatty                                           src/ASF/sam/utils/syscalls/gcc/syscalls.o
                                                  c:/program files (x86)/atmel/studio/7.0/toolchain/arm/arm-gnu-toolchain/bin/../lib/gcc/arm-none-eabi/6.3.1/../../../../arm-none-eabi/lib/thumb/v7e-m\libc.a(lib_a-isattyr.o)
_isatty_r                                         c:/program files (x86)/atmel/studio/7.0/toolchain/arm/arm-gnu-toolchain/bin/../lib/gcc/arm-none-eabi/6.3.1/../../../../arm-none-eabi/lib/thumb/v7e-m\libc.a(lib_a-isattyr.o)
                                                  c:/program files (x86)/atmel/studio/7.0/toolchain/arm/arm-gnu-toolchain/bin/../lib/gcc/arm-none-eabi/6.3.1/../../../../arm-none-eabi/lib/thumb/v7e-m\libc.a(lib_a-makebuf.o)
_kill                                             src/ASF/sam/utils/syscalls/gcc/syscalls.o
_lseek                                            src/ASF/sam/utils/syscalls/gcc/syscalls.o
                                                  c:/program files (x86)/atmel/studio/7.0/toolchain/arm/arm-gnu-toolchain/bin/../lib/gcc/arm-none-eabi/6.3.1/../../../../arm-none-eabi/lib/thumb/v7e-m\libc.a(lib_a-lseekr.o)
_lseek_r                                          c:/program files (x86)/atmel/studio/7.0/toolchain/arm/arm-gnu-toolchain/bin/../lib/gcc/arm-none-eabi/6.3.1/../../../../arm-none-eabi/lib/thumb/v7e-m\libc.a(lib_a-lseekr.o)
                                                  c:/program files (x86)/atmel/studio/7.0/toolchain/arm/arm-gnu-toolchain/bin/../lib/gcc/arm-none-eabi/6.3.1/../../../../arm-none-eabi/lib/thumb/v7e-m\libc.a(lib_a-stdio.o)
_mainCRTStartup                                   c:/program files (x86)/atmel/studio/7.0/toolchain/arm/arm-gnu-toolchain/bin/../lib/gcc/arm-none-eabi/6.3.1/../../../../arm-none-eabi/lib/thumb/v7e-m/crt0.o
_malloc_r                                         c:/program files (x86)/atmel/studio/7.0/toolchain/arm/arm-gnu-toolchain/bin/../lib/gcc/arm-none-eabi/6.3.1/../../../../arm-none-eabi/lib/thumb/v7e-m\libc.a(lib_a-mallocr.o)
                                                  c:/program files (x86)/atmel/studio/7.0/toolchain/arm/arm-gnu-toolchain/bin/../lib/gcc/arm-none-eabi/6.3.1/../../../../arm-none-eabi/lib/thumb/v7e-m\libc.a(lib_a-reallocr.o)
                                                  c:/program files (x86)/atmel/studio/7.0/toolchain/arm/arm-gnu-toolchain/bin/../lib/gcc/arm-none-eabi/6.3.1/../../../../arm-none-eabi/lib/thumb/v7e-m\libc.a(lib_a-malloc.o)
                                                  c:/program files (x86)/atmel/studio/7.0/toolchain/arm/arm-gnu-toolchain/bin/../lib/gcc/arm-none-eabi/6.3.1/../../../../arm-none-eabi/lib/thumb/v7e-m\libc.a(lib_a-makebuf.o)
                                                  c:/program files (x86)/atmel/studio/7.0/toolchain/arm/arm-gnu-toolchain/bin/../lib/gcc/arm-none-eabi/6.3.1/../../../../arm-none-eabi/lib/thumb/v7e-m\libc.a(lib_a-fvwrite.o)
                                                  c:/program files (x86)/atmel/studio/7.0/toolchain/arm/arm-gnu-toolchain/bin/../lib/gcc/arm-none-eabi/6.3.1/../../../../arm-none-eabi/lib/thumb/v7e-m\libc.a(lib_a-findfp.o)
_malloc_trim_r                                    c:/program files (x86)/atmel/studio/7.0/toolchain/arm/arm-gnu-toolchain/bin/../lib/gcc/arm-none-eabi/6.3.1/../../../../arm-none-eabi/lib/thumb/v7e-m\libc.a(lib_a-freer.o)
_mbtowc_r                                         c:/program files (x86)/atmel/studio/7.0/toolchain/arm/arm-gnu-toolchain/bin/../lib/gcc/arm-none-eabi/6.3.1/../../../../arm-none-eabi/lib/thumb/v7e-m\libc.a(lib_a-mbtowc_r.o)
_read                                             src/ASF/common/utils/stdio/read.o
                                                  c:/program files (x86)/atmel/studio/7.0/toolchain/arm/arm-gnu-toolchain/bin/../lib/gcc/arm-none-eabi/6.3.1/../../../../arm-none-eabi/lib/thumb/v7e-m\libc.a(lib_a-readr.o)
_read_r                                           c:/program files (x86)/atmel/studio/7.0/toolchain/arm/arm-gnu-toolchain/bin/../lib/gcc/arm-none-eabi/6.3.1/../../../../arm-none-eabi/lib/thumb/v7e-m\libc.a(lib_a-readr.o)
                                                  c:/program files (x86)/atmel/studio/7.0/toolchain/arm/arm-gnu-toolchain/bin/../lib/gcc/arm-none-eabi/6.3.1/../../../../arm-none-eabi/lib/thumb/v7e-m\libc.a(lib_a-stdio.o)
_realloc_r                                        c:/program files (x86)/atmel/studio/7.0/toolchain/arm/arm-gnu-toolchain/bin/../lib/gcc/arm-none-eabi/6.3.1/../../../../arm-none-eabi/lib/thumb/v7e-m\libc.a(lib_a-reallocr.o)
                                                  c:/program files (x86)/atmel/studio/7.0/toolchain/arm/arm-gnu-toolchain/bin/../lib/gcc/arm-none-eabi/6.3.1/../../../../arm-none-eabi/lib/thumb/v7e-m\libc.a(lib_a-fvwrite.o)
_reclaim_reent                                    c:/program files (x86)/atmel/studio/7.0/toolchain/arm/arm-gnu-toolchain/bin/../lib/gcc/arm-none-eabi/6.3.1/../../../../arm-none-eabi/lib/thumb/v7e-m\libc.a(lib_a-reent.o)
_sbrk                                             src/ASF/sam/utils/syscalls/gcc/syscalls.o
                                                  c:/program files (x86)/atmel/studio/7.0/toolchain/arm/arm-gnu-toolchain/bin/../lib/gcc/arm-none-eabi/6.3.1/../../../../arm-none-eabi/lib/thumb/v7e-m\libc.a(lib_a-sbrkr.o)
_sbrk_r                                           c:/program files (x86)/atmel/studio/7.0/toolchain/arm/arm-gnu-toolchain/bin/../lib/gcc/arm-none-eabi/6.3.1/../../../../arm-none-eabi/lib/thumb/v7e-m\libc.a(lib_a-sbrkr.o)
                                                  c:/program files (x86)/atmel/studio/7.0/toolchain/arm/arm-gnu-toolchain/bin/../lib/gcc/arm-none-eabi/6.3.1/../../../../arm-none-eabi/lib/thumb/v7e-m\libc.a(lib_a-mallocr.o)
                                                  c:/program files (x86)/atmel/studio/7.0/toolchain/arm/arm-gnu-toolchain/bin/../lib/gcc/arm-none-eabi/6.3.1/../../../../arm-none-eabi/lib/thumb/v7e-m\libc.a(lib_a-freer.o)
_setlocale_r                                      c:/program files (x86)/atmel/studio/7.0/toolchain/arm/arm-gnu-toolchain/bin/../lib/gcc/arm-none-eabi/6.3.1/../../../../arm-none-eabi/lib/thumb/v7e-m\libc.a(lib_a-locale.o)
_sfixed                                           src/ASF/sam/utils/cmsis/samg/samg55/source/templates/gcc/startup_samg55.o
_srelocate                                        src/ASF/sam/utils/cmsis/samg/samg55/source/templates/gcc/startup_samg55.o
_start                                            c:/program files (x86)/atmel/studio/7.0/toolchain/arm/arm-gnu-toolchain/bin/../lib/gcc/arm-none-eabi/6.3.1/../../../../arm-none-eabi/lib/thumb/v7e-m/crt0.o
_szero                                            src/ASF/sam/utils/cmsis/samg/samg55/source/templates/gcc/startup_samg55.o
_vfiprintf_r                                      c:/program files (x86)/atmel/studio/7.0/toolchain/arm/arm-gnu-toolchain/bin/../lib/gcc/arm-none-eabi/6.3.1/../../../../arm-none-eabi/lib/thumb/v7e-m\libc.a(lib_a-vfiprintf.o)
                                                  c:/program files (x86)/atmel/studio/7.0/toolchain/arm/arm-gnu-toolchain/bin/../lib/gcc/arm-none-eabi/6.3.1/../../../../arm-none-eabi/lib/thumb/v7e-m\libc.a(lib_a-iprintf.o)
_wcrtomb_r                                        c:/program files (x86)/atmel/studio/7.0/toolchain/arm/arm-gnu-toolchain/bin/../lib/gcc/arm-none-eabi/6.3.1/../../../../arm-none-eabi/lib/thumb/v7e-m\libc.a(lib_a-wcrtomb.o)
                                                  c:/program files (x86)/atmel/studio/7.0/toolchain/arm/arm-gnu-toolchain/bin/../lib/gcc/arm-none-eabi/6.3.1/../../../../arm-none-eabi/lib/thumb/v7e-m\libc.a(lib_a-fputwc.o)
_wctomb_r                                         c:/program files (x86)/atmel/studio/7.0/toolchain/arm/arm-gnu-toolchain/bin/../lib/gcc/arm-none-eabi/6.3.1/../../../../arm-none-eabi/lib/thumb/v7e-m\libc.a(lib_a-wctomb_r.o)
_write                                            src/ASF/common/utils/stdio/write.o
                                                  c:/program files (x86)/atmel/studio/7.0/toolchain/arm/arm-gnu-toolchain/bin/../lib/gcc/arm-none-eabi/6.3.1/../../../../arm-none-eabi/lib/thumb/v7e-m\libc.a(lib_a-writer.o)
_write_r                                          c:/program files (x86)/atmel/studio/7.0/toolchain/arm/arm-gnu-toolchain/bin/../lib/gcc/arm-none-eabi/6.3.1/../../../../arm-none-eabi/lib/thumb/v7e-m\libc.a(lib_a-writer.o)
                                                  c:/program files (x86)/atmel/studio/7.0/toolchain/arm/arm-gnu-toolchain/bin/../lib/gcc/arm-none-eabi/6.3.1/../../../../arm-none-eabi/lib/thumb/v7e-m\libc.a(lib_a-stdio.o)
atexit                                            c:/program files (x86)/atmel/studio/7.0/toolchain/arm/arm-gnu-toolchain/bin/../lib/gcc/arm-none-eabi/6.3.1/../../../../arm-none-eabi/lib/thumb/v7e-m\libc.a(lib_a-atexit.o)
                                                  c:/program files (x86)/atmel/studio/7.0/toolchain/arm/arm-gnu-toolchain/bin/../lib/gcc/arm-none-eabi/6.3.1/../../../../arm-none-eabi/lib/thumb/v7e-m\libc.a(lib_a-__call_atexit.o)
                                                  c:/program files (x86)/atmel/studio/7.0/toolchain/arm/arm-gnu-toolchain/bin/../lib/gcc/arm-none-eabi/6.3.1/../../../../arm-none-eabi/lib/thumb/v7e-m/crt0.o
board_init                                        src/ASF/sam/boards/samg55_xplained_pro/board_init.o
                                                  src/main.o
board_init_I2C                                    src/ASF/sam/boards/samg55_xplained_pro/board_init.o
cleanup_glue                                      c:/program files (x86)/atmel/studio/7.0/toolchain/arm/arm-gnu-toolchain/bin/../lib/gcc/arm-none-eabi/6.3.1/../../../../arm-none-eabi/lib/thumb/v7e-m\libc.a(lib_a-reent.o)
configure_console                                 src/inv/inv_uart.o
                                                  src/main.o
cpu_irq_enter_critical                            src/ASF/common/utils/interrupt/interrupt_sam_nvic.o
cpu_irq_leave_critical                            src/ASF/common/utils/interrupt/interrupt_sam_nvic.o
efc_disable_cloe                                  src/ASF/sam/drivers/efc/efc.o
efc_disable_frdy_interrupt                        src/ASF/sam/drivers/efc/efc.o
efc_enable_cloe                                   src/ASF/sam/drivers/efc/efc.o
efc_enable_frdy_interrupt                         src/ASF/sam/drivers/efc/efc.o
efc_get_flash_access_mode                         src/ASF/sam/drivers/efc/efc.o
efc_get_result                                    src/ASF/sam/drivers/efc/efc.o
efc_get_status                                    src/ASF/sam/drivers/efc/efc.o
efc_get_wait_state                                src/ASF/sam/drivers/efc/efc.o
efc_init                                          src/ASF/sam/drivers/efc/efc.o
efc_perform_command                               src/ASF/sam/drivers/efc/efc.o
efc_perform_fcr                                   src/ASF/sam/drivers/efc/efc.o
efc_perform_read_sequence                         src/ASF/sam/drivers/efc/efc.o
                                                  src/ASF/common/services/clock/samg/sysclk.o
efc_set_flash_access_mode                         src/ASF/sam/drivers/efc/efc.o
efc_set_wait_state                                src/ASF/sam/drivers/efc/efc.o
efc_write_fmr                                     src/ASF/sam/drivers/efc/efc.o
errno                                             c:/program files (x86)/atmel/studio/7.0/toolchain/arm/arm-gnu-toolchain/bin/../lib/gcc/arm-none-eabi/6.3.1/../../../../arm-none-eabi/lib/thumb/v7e-m\libc.a(lib_a-reent.o)
                                                  c:/program files (x86)/atmel/studio/7.0/toolchain/arm/arm-gnu-toolchain/bin/../lib/gcc/arm-none-eabi/6.3.1/../../../../arm-none-eabi/lib/thumb/v7e-m\libc.a(lib_a-readr.o)
                                                  c:/program files (x86)/atmel/studio/7.0/toolchain/arm/arm-gnu-toolchain/bin/../lib/gcc/arm-none-eabi/6.3.1/../../../../arm-none-eabi/lib/thumb/v7e-m\libc.a(lib_a-lseekr.o)
                                                  c:/program files (x86)/atmel/studio/7.0/toolchain/arm/arm-gnu-toolchain/bin/../lib/gcc/arm-none-eabi/6.3.1/../../../../arm-none-eabi/lib/thumb/v7e-m\libc.a(lib_a-isattyr.o)
                                                  c:/program files (x86)/atmel/studio/7.0/toolchain/arm/arm-gnu-toolchain/bin/../lib/gcc/arm-none-eabi/6.3.1/../../../../arm-none-eabi/lib/thumb/v7e-m\libc.a(lib_a-fstatr.o)
                                                  c:/program files (x86)/atmel/studio/7.0/toolchain/arm/arm-gnu-toolchain/bin/../lib/gcc/arm-none-eabi/6.3.1/../../../../arm-none-eabi/lib/thumb/v7e-m\libc.a(lib_a-closer.o)
                                                  c:/program files (x86)/atmel/studio/7.0/toolchain/arm/arm-gnu-toolchain/bin/../lib/gcc/arm-none-eabi/6.3.1/../../../../arm-none-eabi/lib/thumb/v7e-m\libc.a(lib_a-writer.o)
                                                  c:/program files (x86)/atmel/studio/7.0/toolchain/arm/arm-gnu-toolchain/bin/../lib/gcc/arm-none-eabi/6.3.1/../../../../arm-none-eabi/lib/thumb/v7e-m\libc.a(lib_a-sbrkr.o)
exception_table                                   src/ASF/sam/utils/cmsis/samg/samg55/source/templates/gcc/startup_samg55.o
exit                                              c:/program files (x86)/atmel/studio/7.0/toolchain/arm/arm-gnu-toolchain/bin/../lib/gcc/arm-none-eabi/6.3.1/../../../../arm-none-eabi/lib/thumb/v7e-m\libc.a(lib_a-exit.o)
                                                  c:/program files (x86)/atmel/studio/7.0/toolchain/arm/arm-gnu-toolchain/bin/../lib/gcc/arm-none-eabi/6.3.1/../../../../arm-none-eabi/lib/thumb/v7e-m/crt0.o
ext_int_initialize                                src/inv/protocol_functions.o
ext_interrupt_handler                             src/inv/protocol_functions.o
fclose                                            c:/program files (x86)/atmel/studio/7.0/toolchain/arm/arm-gnu-toolchain/bin/../lib/gcc/arm-none-eabi/6.3.1/../../../../arm-none-eabi/lib/thumb/v7e-m\libc.a(lib_a-fclose.o)
fflush                                            c:/program files (x86)/atmel/studio/7.0/toolchain/arm/arm-gnu-toolchain/bin/../lib/gcc/arm-none-eabi/6.3.1/../../../../arm-none-eabi/lib/thumb/v7e-m\libc.a(lib_a-fflush.o)
flexcom_disable                                   src/ASF/sam/drivers/flexcom/flexcom.o
                                                  src/inv/inv_spi.o
                                                  src/inv/inv_i2c.o
flexcom_enable                                    src/ASF/sam/drivers/flexcom/flexcom.o
                                                  src/inv/inv_uart.o
                                                  src/inv/inv_spi.o
                                                  src/inv/inv_i2c.o
flexcom_get_opmode                                src/ASF/sam/drivers/flexcom/flexcom.o
flexcom_read                                      src/ASF/sam/drivers/flexcom/flexcom.o
flexcom_set_opmode                                src/ASF/sam/drivers/flexcom/flexcom.o
                                                  src/inv/inv_uart.o
                                                  src/inv/inv_spi.o
                                                  src/inv/inv_i2c.o
flexcom_write                                     src/ASF/sam/drivers/flexcom/flexcom.o
fputwc                                            c:/program files (x86)/atmel/studio/7.0/toolchain/arm/arm-gnu-toolchain/bin/../lib/gcc/arm-none-eabi/6.3.1/../../../../arm-none-eabi/lib/thumb/v7e-m\libc.a(lib_a-fputwc.o)
free                                              c:/program files (x86)/atmel/studio/7.0/toolchain/arm/arm-gnu-toolchain/bin/../lib/gcc/arm-none-eabi/6.3.1/../../../../arm-none-eabi/lib/thumb/v7e-m\libc.a(lib_a-malloc.o)
                                                  c:/program files (x86)/atmel/studio/7.0/toolchain/arm/arm-gnu-toolchain/bin/../lib/gcc/arm-none-eabi/6.3.1/../../../../arm-none-eabi/lib/thumb/v7e-m\libc.a(lib_a-__call_atexit.o)
g_interrupt_enabled                               src/ASF/common/utils/interrupt/interrupt_sam_nvic.o
                                                  src/ASF/sam/utils/cmsis/samg/samg55/source/templates/gcc/startup_samg55.o
                                                  src/ASF/sam/drivers/pmc/sleep.o
                                                  src/ASF/sam/drivers/efc/efc.o
                                                  src/ASF/sam/drivers/flexcom/flexcom.o
g_p_usart_pdc                                     src/inv/inv_uart.o
g_pdc_usart_packet                                src/inv/inv_uart.o
gpio_level_0                                      src/inv/inv_uart.o
hardware_init_hook                                c:/program files (x86)/atmel/studio/7.0/toolchain/arm/arm-gnu-toolchain/bin/../lib/gcc/arm-none-eabi/6.3.1/../../../../arm-none-eabi/lib/thumb/v7e-m/crt0.o
i2c_master_deinit                                 src/inv/inv_i2c.o
i2c_master_initialize                             src/inv/inv_i2c.o
i2c_master_read_register                          src/inv/inv_i2c.o
i2c_master_write_register                         src/inv/inv_i2c.o
iprintf                                           c:/program files (x86)/atmel/studio/7.0/toolchain/arm/arm-gnu-toolchain/bin/../lib/gcc/arm-none-eabi/6.3.1/../../../../arm-none-eabi/lib/thumb/v7e-m\libc.a(lib_a-iprintf.o)
                                                  src/inv/protocol_functions.o
link                                              src/ASF/sam/utils/syscalls/gcc/syscalls.o
main                                              src/main.o
                                                  src/ASF/sam/utils/cmsis/samg/samg55/source/templates/gcc/startup_samg55.o
                                                  c:/program files (x86)/atmel/studio/7.0/toolchain/arm/arm-gnu-toolchain/bin/../lib/gcc/arm-none-eabi/6.3.1/../../../../arm-none-eabi/lib/thumb/v7e-m/crt0.o
main_rx_buf                                       src/main.o
                                                  src/inv/protocol_functions.o
                                                  src/inv/inv_uart.o
main_rx_buf_ind                                   src/inv/inv_uart.o
main_tx_buf                                       src/main.o
                                                  src/inv/inv_uart.o
malloc                                            c:/program files (x86)/atmel/studio/7.0/toolchain/arm/arm-gnu-toolchain/bin/../lib/gcc/arm-none-eabi/6.3.1/../../../../arm-none-eabi/lib/thumb/v7e-m\libc.a(lib_a-malloc.o)
                                                  c:/program files (x86)/atmel/studio/7.0/toolchain/arm/arm-gnu-toolchain/bin/../lib/gcc/arm-none-eabi/6.3.1/../../../../arm-none-eabi/lib/thumb/v7e-m\libc.a(lib_a-__atexit.o)
                                                  c:/program files (x86)/atmel/studio/7.0/toolchain/arm/arm-gnu-toolchain/bin/../lib/gcc/arm-none-eabi/6.3.1/../../../../arm-none-eabi/lib/thumb/v7e-m\libc.a(lib_a-setvbuf.o)
memchr                                            c:/program files (x86)/atmel/studio/7.0/toolchain/arm/arm-gnu-toolchain/bin/../lib/gcc/arm-none-eabi/6.3.1/../../../../arm-none-eabi/lib/thumb/v7e-m\libc.a(lib_a-memchr.o)
                                                  c:/program files (x86)/atmel/studio/7.0/toolchain/arm/arm-gnu-toolchain/bin/../lib/gcc/arm-none-eabi/6.3.1/../../../../arm-none-eabi/lib/thumb/v7e-m\libc.a(lib_a-fvwrite.o)
                                                  c:/program files (x86)/atmel/studio/7.0/toolchain/arm/arm-gnu-toolchain/bin/../lib/gcc/arm-none-eabi/6.3.1/../../../../arm-none-eabi/lib/thumb/v7e-m\libc.a(lib_a-vfiprintf.o)
memcpy                                            c:/program files (x86)/atmel/studio/7.0/toolchain/arm/arm-gnu-toolchain/bin/../lib/gcc/arm-none-eabi/6.3.1/../../../../arm-none-eabi/lib/thumb/v7e-m\libc.a(lib_a-memcpy.o)
                                                  c:/program files (x86)/atmel/studio/7.0/toolchain/arm/arm-gnu-toolchain/bin/../lib/gcc/arm-none-eabi/6.3.1/../../../../arm-none-eabi/lib/thumb/v7e-m\libc.a(lib_a-fvwrite.o)
                                                  src/ASF/thirdparty/freertos/freertos-8.0.1/Source/queue.o
memmove                                           c:/program files (x86)/atmel/studio/7.0/toolchain/arm/arm-gnu-toolchain/bin/../lib/gcc/arm-none-eabi/6.3.1/../../../../arm-none-eabi/lib/thumb/v7e-m\libc.a(lib_a-memmove.o)
                                                  c:/program files (x86)/atmel/studio/7.0/toolchain/arm/arm-gnu-toolchain/bin/../lib/gcc/arm-none-eabi/6.3.1/../../../../arm-none-eabi/lib/thumb/v7e-m\libc.a(lib_a-reallocr.o)
                                                  c:/program files (x86)/atmel/studio/7.0/toolchain/arm/arm-gnu-toolchain/bin/../lib/gcc/arm-none-eabi/6.3.1/../../../../arm-none-eabi/lib/thumb/v7e-m\libc.a(lib_a-fvwrite.o)
memset                                            c:/program files (x86)/atmel/studio/7.0/toolchain/arm/arm-gnu-toolchain/bin/../lib/gcc/arm-none-eabi/6.3.1/../../../../arm-none-eabi/lib/thumb/v7e-m\libc.a(lib_a-memset.o)
                                                  c:/program files (x86)/atmel/studio/7.0/toolchain/arm/arm-gnu-toolchain/bin/../lib/gcc/arm-none-eabi/6.3.1/../../../../arm-none-eabi/lib/thumb/v7e-m\libc.a(lib_a-findfp.o)
                                                  c:/program files (x86)/atmel/studio/7.0/toolchain/arm/arm-gnu-toolchain/bin/../lib/gcc/arm-none-eabi/6.3.1/../../../../arm-none-eabi/lib/thumb/v7e-m/crt0.o
opt                                               src/inv/inv_i2c.o
p_pdc                                             src/main.o
packet_rx                                         src/inv/inv_i2c.o
packet_tx                                         src/inv/inv_i2c.o
pcTimerGetTimerName                               src/ASF/thirdparty/freertos/freertos-8.0.1/Source/timers.o
pdc_disable_transfer                              src/ASF/sam/drivers/pdc/pdc.o
pdc_enable_transfer                               src/ASF/sam/drivers/pdc/pdc.o
                                                  src/inv/inv_uart.o
pdc_read_rx_counter                               src/ASF/sam/drivers/pdc/pdc.o
pdc_read_rx_next_counter                          src/ASF/sam/drivers/pdc/pdc.o
pdc_read_rx_next_ptr                              src/ASF/sam/drivers/pdc/pdc.o
pdc_read_rx_ptr                                   src/ASF/sam/drivers/pdc/pdc.o
pdc_read_status                                   src/ASF/sam/drivers/pdc/pdc.o
pdc_read_tx_counter                               src/ASF/sam/drivers/pdc/pdc.o
pdc_read_tx_next_counter                          src/ASF/sam/drivers/pdc/pdc.o
pdc_read_tx_next_ptr                              src/ASF/sam/drivers/pdc/pdc.o
pdc_read_tx_ptr                                   src/ASF/sam/drivers/pdc/pdc.o
pdc_rx_clear_cnt                                  src/ASF/sam/drivers/pdc/pdc.o
pdc_rx_init                                       src/ASF/sam/drivers/pdc/pdc.o
pdc_tx_init                                       src/ASF/sam/drivers/pdc/pdc.o
                                                  src/inv/inv_uart.o
pio_clear                                         src/ASF/sam/drivers/pio/pio.o
pio_configure                                     src/ASF/sam/drivers/pio/pio.o
                                                  src/inv/protocol_functions.o
pio_configure_interrupt                           src/ASF/sam/drivers/pio/pio.o
                                                  src/ASF/sam/drivers/pio/pio_handler.o
pio_configure_pin                                 src/ASF/sam/drivers/pio/pio.o
pio_configure_pin_group                           src/ASF/sam/drivers/pio/pio.o
pio_disable_interrupt                             src/ASF/sam/drivers/pio/pio.o
                                                  src/ASF/sam/drivers/pio/pio_handler.o
pio_disable_output_write                          src/ASF/sam/drivers/pio/pio.o
pio_disable_pin_interrupt                         src/ASF/sam/drivers/pio/pio.o
pio_enable_interrupt                              src/ASF/sam/drivers/pio/pio.o
                                                  src/inv/protocol_functions.o
                                                  src/ASF/sam/drivers/pio/pio_handler.o
pio_enable_output_write                           src/ASF/sam/drivers/pio/pio.o
pio_enable_pin_interrupt                          src/ASF/sam/drivers/pio/pio.o
pio_get                                           src/ASF/sam/drivers/pio/pio.o
pio_get_interrupt_mask                            src/ASF/sam/drivers/pio/pio.o
                                                  src/ASF/sam/drivers/pio/pio_handler.o
pio_get_interrupt_status                          src/ASF/sam/drivers/pio/pio.o
                                                  src/ASF/sam/drivers/pio/pio_handler.o
pio_get_multi_driver_status                       src/ASF/sam/drivers/pio/pio.o
pio_get_output_data_status                        src/ASF/sam/drivers/pio/pio.o
pio_get_output_write_status                       src/ASF/sam/drivers/pio/pio.o
pio_get_pin_group                                 src/ASF/sam/drivers/pio/pio.o
                                                  src/ASF/sam/drivers/pio/pio_handler.o
pio_get_pin_group_id                              src/ASF/sam/drivers/pio/pio.o
                                                  src/ASF/sam/drivers/pio/pio_handler.o
pio_get_pin_group_mask                            src/ASF/sam/drivers/pio/pio.o
                                                  src/ASF/sam/drivers/pio/pio_handler.o
pio_get_pin_value                                 src/ASF/sam/drivers/pio/pio.o
pio_get_schmitt_trigger                           src/ASF/sam/drivers/pio/pio.o
pio_get_writeprotect_status                       src/ASF/sam/drivers/pio/pio.o
pio_handler_process                               src/ASF/sam/drivers/pio/pio_handler.o
pio_handler_set                                   src/ASF/sam/drivers/pio/pio_handler.o
                                                  src/inv/protocol_functions.o
pio_handler_set_pin                               src/ASF/sam/drivers/pio/pio_handler.o
pio_handler_set_priority                          src/ASF/sam/drivers/pio/pio_handler.o
                                                  src/inv/protocol_functions.o
pio_pull_down                                     src/ASF/sam/drivers/pio/pio.o
pio_pull_up                                       src/ASF/sam/drivers/pio/pio.o
pio_set                                           src/ASF/sam/drivers/pio/pio.o
pio_set_additional_interrupt_mode                 src/ASF/sam/drivers/pio/pio.o
pio_set_debounce_filter                           src/ASF/sam/drivers/pio/pio.o
pio_set_input                                     src/ASF/sam/drivers/pio/pio.o
pio_set_io_drive                                  src/ASF/sam/drivers/pio/pio.o
pio_set_multi_driver                              src/ASF/sam/drivers/pio/pio.o
pio_set_output                                    src/ASF/sam/drivers/pio/pio.o
pio_set_peripheral                                src/ASF/sam/drivers/pio/pio.o
pio_set_pin_group_high                            src/ASF/sam/drivers/pio/pio.o
pio_set_pin_group_low                             src/ASF/sam/drivers/pio/pio.o
pio_set_pin_high                                  src/ASF/sam/drivers/pio/pio.o
pio_set_pin_low                                   src/ASF/sam/drivers/pio/pio.o
pio_set_schmitt_trigger                           src/ASF/sam/drivers/pio/pio.o
pio_set_writeprotect                              src/ASF/sam/drivers/pio/pio.o
pio_sync_output_write                             src/ASF/sam/drivers/pio/pio.o
pio_toggle_pin                                    src/ASF/sam/drivers/pio/pio.o
pio_toggle_pin_group                              src/ASF/sam/drivers/pio/pio.o
pmc_clr_fast_startup_input                        src/ASF/sam/drivers/pmc/pmc.o
pmc_disable_all_pck                               src/ASF/sam/drivers/pmc/pmc.o
pmc_disable_all_periph_clk                        src/ASF/sam/drivers/pmc/pmc.o
pmc_disable_clock_failure_detector                src/ASF/sam/drivers/pmc/pmc.o
pmc_disable_interrupt                             src/ASF/sam/drivers/pmc/pmc.o
pmc_disable_pck                                   src/ASF/sam/drivers/pmc/pmc.o
                                                  src/ASF/sam/drivers/flexcom/flexcom.o
pmc_disable_periph_clk                            src/ASF/sam/drivers/pmc/pmc.o
                                                  src/ASF/sam/drivers/flexcom/flexcom.o
                                                  src/ASF/sam/drivers/spi/spi.o
pmc_disable_pllack                                src/ASF/sam/drivers/pmc/pmc.o
                                                  src/ASF/sam/drivers/pmc/sleep.o
                                                  src/ASF/common/services/clock/samg/sysclk.o
pmc_disable_pllbck                                src/ASF/sam/drivers/pmc/pmc.o
pmc_disable_sleepwalking                          src/ASF/sam/drivers/pmc/pmc.o
pmc_disable_udpck                                 src/ASF/sam/drivers/pmc/pmc.o
pmc_enable_all_pck                                src/ASF/sam/drivers/pmc/pmc.o
pmc_enable_all_periph_clk                         src/ASF/sam/drivers/pmc/pmc.o
pmc_enable_backupmode                             src/ASF/sam/drivers/pmc/pmc.o
pmc_enable_clock_failure_detector                 src/ASF/sam/drivers/pmc/pmc.o
pmc_enable_interrupt                              src/ASF/sam/drivers/pmc/pmc.o
pmc_enable_pck                                    src/ASF/sam/drivers/pmc/pmc.o
                                                  src/ASF/sam/drivers/flexcom/flexcom.o
pmc_enable_periph_clk                             src/ASF/sam/drivers/pmc/pmc.o
                                                  src/inv/protocol_functions.o
                                                  src/ASF/sam/boards/samg55_xplained_pro/board_init.o
                                                  src/ASF/sam/drivers/flexcom/flexcom.o
                                                  src/inv/inv_uart.o
                                                  src/ASF/sam/drivers/spi/spi.o
pmc_enable_pllack                                 src/ASF/sam/drivers/pmc/pmc.o
pmc_enable_pllbck                                 src/ASF/sam/drivers/pmc/pmc.o
pmc_enable_sleepmode                              src/ASF/sam/drivers/pmc/pmc.o
pmc_enable_sleepwalking                           src/ASF/sam/drivers/pmc/pmc.o
pmc_enable_udpck                                  src/ASF/sam/drivers/pmc/pmc.o
pmc_enable_uhpck                                  src/ASF/sam/drivers/pmc/pmc.o
pmc_enable_waitmode                               src/ASF/sam/drivers/pmc/pmc.o
                                                  src/ASF/sam/drivers/pmc/sleep.o
pmc_get_active_status0                            src/ASF/sam/drivers/pmc/pmc.o
pmc_get_interrupt_mask                            src/ASF/sam/drivers/pmc/pmc.o
pmc_get_sleepwalking_status0                      src/ASF/sam/drivers/pmc/pmc.o
pmc_get_status                                    src/ASF/sam/drivers/pmc/pmc.o
pmc_get_writeprotect_status                       src/ASF/sam/drivers/pmc/pmc.o
pmc_is_locked_pllack                              src/ASF/sam/drivers/pmc/pmc.o
                                                  src/ASF/common/services/clock/samg/sysclk.o
pmc_is_locked_pllbck                              src/ASF/sam/drivers/pmc/pmc.o
pmc_is_pck_enabled                                src/ASF/sam/drivers/pmc/pmc.o
pmc_is_periph_clk_enabled                         src/ASF/sam/drivers/pmc/pmc.o
pmc_is_wakeup_clocks_restored                     src/ASF/sam/drivers/pmc/sleep.o
pmc_mainck_osc_select                             src/ASF/sam/drivers/pmc/pmc.o
pmc_mck_set_prescaler                             src/ASF/sam/drivers/pmc/pmc.o
                                                  src/ASF/common/services/clock/samg/sysclk.o
pmc_mck_set_source                                src/ASF/sam/drivers/pmc/pmc.o
                                                  src/ASF/common/services/clock/samg/sysclk.o
pmc_osc_bypass_main_xtal                          src/ASF/sam/drivers/pmc/pmc.o
pmc_osc_disable_fastrc                            src/ASF/sam/drivers/pmc/pmc.o
pmc_osc_disable_main_xtal                         src/ASF/sam/drivers/pmc/pmc.o
pmc_osc_disable_xtal                              src/ASF/sam/drivers/pmc/pmc.o
pmc_osc_enable_fastrc                             src/ASF/sam/drivers/pmc/pmc.o
pmc_osc_enable_main_xtal                          src/ASF/sam/drivers/pmc/pmc.o
pmc_osc_is_bypassed_main_xtal                     src/ASF/sam/drivers/pmc/pmc.o
pmc_osc_is_ready_32kxtal                          src/ASF/sam/drivers/pmc/pmc.o
                                                  src/ASF/common/services/clock/samg/sysclk.o
pmc_osc_is_ready_fastrc                           src/ASF/sam/drivers/pmc/pmc.o
pmc_osc_is_ready_main_xtal                        src/ASF/sam/drivers/pmc/pmc.o
pmc_osc_is_ready_mainck                           src/ASF/sam/drivers/pmc/pmc.o
pmc_pck_set_prescaler                             src/ASF/sam/drivers/pmc/pmc.o
pmc_pck_set_source                                src/ASF/sam/drivers/pmc/pmc.o
pmc_set_fast_startup_input                        src/ASF/sam/drivers/pmc/pmc.o
pmc_set_flash_in_wait_mode                        src/ASF/sam/drivers/pmc/pmc.o
                                                  src/ASF/sam/drivers/pmc/sleep.o
pmc_set_writeprotect                              src/ASF/sam/drivers/pmc/pmc.o
pmc_sleep                                         src/ASF/sam/drivers/pmc/sleep.o
pmc_switch_mainck_to_fastrc                       src/ASF/sam/drivers/pmc/pmc.o
pmc_switch_mainck_to_xtal                         src/ASF/sam/drivers/pmc/pmc.o
pmc_switch_mck_to_mainck                          src/ASF/sam/drivers/pmc/pmc.o
pmc_switch_mck_to_pllack                          src/ASF/sam/drivers/pmc/pmc.o
                                                  src/ASF/common/services/clock/samg/sysclk.o
pmc_switch_mck_to_pllbck                          src/ASF/sam/drivers/pmc/pmc.o
pmc_switch_mck_to_sclk                            src/ASF/sam/drivers/pmc/pmc.o
pmc_switch_pck_to_mainck                          src/ASF/sam/drivers/pmc/pmc.o
pmc_switch_pck_to_mck                             src/ASF/sam/drivers/pmc/pmc.o
                                                  src/ASF/sam/drivers/flexcom/flexcom.o
pmc_switch_pck_to_pllack                          src/ASF/sam/drivers/pmc/pmc.o
pmc_switch_pck_to_pllbck                          src/ASF/sam/drivers/pmc/pmc.o
pmc_switch_pck_to_sclk                            src/ASF/sam/drivers/pmc/pmc.o
pmc_switch_sclk_to_32kxtal                        src/ASF/sam/drivers/pmc/pmc.o
                                                  src/ASF/common/services/clock/samg/sysclk.o
pmc_switch_udpck_to_pllack                        src/ASF/sam/drivers/pmc/pmc.o
pmc_switch_udpck_to_pllbck                        src/ASF/sam/drivers/pmc/pmc.o
pmc_switch_uhpck_to_pllack                        src/ASF/sam/drivers/pmc/pmc.o
pmc_switch_uhpck_to_pllbck                        src/ASF/sam/drivers/pmc/pmc.o
pmc_wait_wakeup_clocks_restore                    src/ASF/sam/drivers/pmc/sleep.o
portable_delay_cycles                             src/ASF/common/services/delay/sam/cycle_counter.o
                                                  src/inv/protocol_functions.o
processUartData                                   src/inv/protocol_functions.o
                                                  src/main.o
ptr_get                                           src/ASF/common/utils/stdio/read.o
                                                  src/inv/inv_uart.o
ptr_put                                           src/ASF/common/utils/stdio/write.o
                                                  src/inv/inv_uart.o
pvPortMalloc                                      src/ASF/thirdparty/freertos/freertos-8.0.1/Source/portable/MemMang/heap_2.o
                                                  src/ASF/thirdparty/freertos/freertos-8.0.1/Source/timers.o
                                                  src/ASF/thirdparty/freertos/freertos-8.0.1/Source/tasks.o
                                                  src/ASF/thirdparty/freertos/freertos-8.0.1/Source/queue.o
                                                  src/ASF/thirdparty/freertos/freertos-8.0.1/Source/event_groups.o
                                                  src/ASF/thirdparty/freertos/freertos-8.0.1/Source/croutine.o
pvTimerGetTimerID                                 src/ASF/thirdparty/freertos/freertos-8.0.1/Source/timers.o
pxCurrentCoRoutine                                src/ASF/thirdparty/freertos/freertos-8.0.1/Source/croutine.o
pxCurrentTCB                                      src/ASF/thirdparty/freertos/freertos-8.0.1/Source/tasks.o
                                                  src/ASF/thirdparty/freertos/freertos-8.0.1/Source/portable/GCC/ARM_CM4F/port.o
pxPortInitialiseStack                             src/ASF/thirdparty/freertos/freertos-8.0.1/Source/portable/GCC/ARM_CM4F/port.o
                                                  src/ASF/thirdparty/freertos/freertos-8.0.1/Source/tasks.o
rtc_clear_date_alarm                              src/ASF/sam/drivers/rtc/rtc.o
rtc_clear_status                                  src/ASF/sam/drivers/rtc/rtc.o
rtc_clear_time_alarm                              src/ASF/sam/drivers/rtc/rtc.o
rtc_disable_interrupt                             src/ASF/sam/drivers/rtc/rtc.o
rtc_enable_interrupt                              src/ASF/sam/drivers/rtc/rtc.o
rtc_get_calendar_mode                             src/ASF/sam/drivers/rtc/rtc.o
rtc_get_date                                      src/ASF/sam/drivers/rtc/rtc.o
rtc_get_hour_mode                                 src/ASF/sam/drivers/rtc/rtc.o
rtc_get_interrupt_mask                            src/ASF/sam/drivers/rtc/rtc.o
rtc_get_milliseconds                              src/ASF/sam/drivers/rtc/rtc.o
rtc_get_status                                    src/ASF/sam/drivers/rtc/rtc.o
rtc_get_time                                      src/ASF/sam/drivers/rtc/rtc.o
rtc_get_valid_entry                               src/ASF/sam/drivers/rtc/rtc.o
rtc_set_calendar_event                            src/ASF/sam/drivers/rtc/rtc.o
rtc_set_calendar_mode                             src/ASF/sam/drivers/rtc/rtc.o
rtc_set_calibration                               src/ASF/sam/drivers/rtc/rtc.o
rtc_set_date                                      src/ASF/sam/drivers/rtc/rtc.o
rtc_set_date_alarm                                src/ASF/sam/drivers/rtc/rtc.o
rtc_set_hour_mode                                 src/ASF/sam/drivers/rtc/rtc.o
rtc_set_time                                      src/ASF/sam/drivers/rtc/rtc.o
rtc_set_time_alarm                                src/ASF/sam/drivers/rtc/rtc.o
rtc_set_time_event                                src/ASF/sam/drivers/rtc/rtc.o
rtc_set_waveform                                  src/ASF/sam/drivers/rtc/rtc.o
sema_main_rx_uart                                 src/main.o
                                                  src/inv/protocol_functions.o
                                                  src/inv/inv_uart.o
sema_main_tx_uart                                 src/main.o
                                                  src/inv/inv_uart.o
sema_sensor_int_pb03                              src/main.o
                                                  src/inv/protocol_functions.o
setbuf                                            c:/program files (x86)/atmel/studio/7.0/toolchain/arm/arm-gnu-toolchain/bin/../lib/gcc/arm-none-eabi/6.3.1/../../../../arm-none-eabi/lib/thumb/v7e-m\libc.a(lib_a-setbuf.o)
                                                  src/inv/inv_uart.o
setlocale                                         c:/program files (x86)/atmel/studio/7.0/toolchain/arm/arm-gnu-toolchain/bin/../lib/gcc/arm-none-eabi/6.3.1/../../../../arm-none-eabi/lib/thumb/v7e-m\libc.a(lib_a-locale.o)
setvbuf                                           c:/program files (x86)/atmel/studio/7.0/toolchain/arm/arm-gnu-toolchain/bin/../lib/gcc/arm-none-eabi/6.3.1/../../../../arm-none-eabi/lib/thumb/v7e-m\libc.a(lib_a-setvbuf.o)
                                                  c:/program files (x86)/atmel/studio/7.0/toolchain/arm/arm-gnu-toolchain/bin/../lib/gcc/arm-none-eabi/6.3.1/../../../../arm-none-eabi/lib/thumb/v7e-m\libc.a(lib_a-setbuf.o)
sleepmgr_locks                                    src/ASF/common/services/sleepmgr/sam/sleepmgr.o
                                                  src/ASF/sam/drivers/flexcom/flexcom.o
software_init_hook                                c:/program files (x86)/atmel/studio/7.0/toolchain/arm/arm-gnu-toolchain/bin/../lib/gcc/arm-none-eabi/6.3.1/../../../../arm-none-eabi/lib/thumb/v7e-m/crt0.o
spi3_crc_calculate                                src/inv/protocol_functions.o
spi_calc_baudrate_div                             src/ASF/sam/drivers/spi/spi.o
spi_configure_cs_behavior                         src/ASF/sam/drivers/spi/spi.o
spi_disable_clock                                 src/ASF/sam/drivers/spi/spi.o
spi_enable_clock                                  src/ASF/sam/drivers/spi/spi.o
spi_get_writeprotect_status                       src/ASF/sam/drivers/spi/spi.o
spi_master_deinit                                 src/inv/inv_spi.o
spi_master_init                                   src/inv/inv_spi.o
                                                  src/inv/protocol_functions.o
spi_master_init1                                  src/inv/inv_spi.o
                                                  src/inv/protocol_functions.o
spi_master_read_register                          src/inv/inv_spi.o
                                                  src/inv/protocol_functions.o
spi_master_write_register                         src/inv/inv_spi.o
                                                  src/inv/protocol_functions.o
spi_read                                          src/ASF/sam/drivers/spi/spi.o
                                                  src/inv/inv_spi.o
spi_set_baudrate_div                              src/ASF/sam/drivers/spi/spi.o
                                                  src/inv/inv_spi.o
spi_set_bits_per_transfer                         src/ASF/sam/drivers/spi/spi.o
                                                  src/inv/inv_spi.o
spi_set_clock_phase                               src/ASF/sam/drivers/spi/spi.o
                                                  src/inv/inv_spi.o
spi_set_clock_polarity                            src/ASF/sam/drivers/spi/spi.o
                                                  src/inv/inv_spi.o
spi_set_delay_between_chip_select                 src/ASF/sam/drivers/spi/spi.o
spi_set_peripheral_chip_select_value              src/ASF/sam/drivers/spi/spi.o
                                                  src/inv/inv_spi.o
spi_set_transfer_delay                            src/ASF/sam/drivers/spi/spi.o
                                                  src/inv/inv_spi.o
spi_set_writeprotect                              src/ASF/sam/drivers/spi/spi.o
spi_write                                         src/ASF/sam/drivers/spi/spi.o
                                                  src/inv/inv_spi.o
stdio_base                                        src/ASF/common/utils/stdio/write.o
                                                  src/inv/inv_uart.o
                                                  src/ASF/common/utils/stdio/read.o
strcmp                                            c:/program files (x86)/atmel/studio/7.0/toolchain/arm/arm-gnu-toolchain/bin/../lib/gcc/arm-none-eabi/6.3.1/../../../../arm-none-eabi/lib/thumb/v7e-m\libc.a(lib_a-strcmp.o)
                                                  c:/program files (x86)/atmel/studio/7.0/toolchain/arm/arm-gnu-toolchain/bin/../lib/gcc/arm-none-eabi/6.3.1/../../../../arm-none-eabi/lib/thumb/v7e-m\libc.a(lib_a-locale.o)
strlen                                            c:/program files (x86)/atmel/studio/7.0/toolchain/arm/arm-gnu-toolchain/bin/../lib/gcc/arm-none-eabi/6.3.1/../../../../arm-none-eabi/lib/thumb/v7e-m\libc.a(lib_a-strlen.o)
                                                  c:/program files (x86)/atmel/studio/7.0/toolchain/arm/arm-gnu-toolchain/bin/../lib/gcc/arm-none-eabi/6.3.1/../../../../arm-none-eabi/lib/thumb/v7e-m\libc.a(lib_a-vfiprintf.o)
supc_disable_brownout_detector                    src/ASF/sam/drivers/supc/supc.o
supc_disable_brownout_reset                       src/ASF/sam/drivers/supc/supc.o
supc_disable_monitor_interrupt                    src/ASF/sam/drivers/supc/supc.o
supc_disable_monitor_reset                        src/ASF/sam/drivers/supc/supc.o
supc_enable_brownout_detector                     src/ASF/sam/drivers/supc/supc.o
supc_enable_brownout_reset                        src/ASF/sam/drivers/supc/supc.o
supc_enable_monitor_interrupt                     src/ASF/sam/drivers/supc/supc.o
supc_enable_monitor_reset                         src/ASF/sam/drivers/supc/supc.o
supc_get_status                                   src/ASF/sam/drivers/supc/supc.o
supc_set_monitor_sampling_period                  src/ASF/sam/drivers/supc/supc.o
supc_set_monitor_threshold                        src/ASF/sam/drivers/supc/supc.o
supc_set_regulator_trim_factory                   src/ASF/sam/drivers/supc/supc.o
supc_set_regulator_trim_user                      src/ASF/sam/drivers/supc/supc.o
                                                  src/ASF/common/services/clock/samg/sysclk.o
supc_set_wakeup_inputs                            src/ASF/sam/drivers/supc/supc.o
supc_set_wakeup_mode                              src/ASF/sam/drivers/supc/supc.o
supc_switch_sclk_to_32kxtal                       src/ASF/sam/drivers/supc/supc.o
sysclk_init                                       src/ASF/common/services/clock/samg/sysclk.o
                                                  src/main.o
sysclk_set_prescalers                             src/ASF/common/services/clock/samg/sysclk.o
sysclk_set_source                                 src/ASF/common/services/clock/samg/sysclk.o
system_board_init                                 src/ASF/sam/boards/samg55_xplained_pro/board_init.o
system_board_init_I2C                             src/ASF/sam/boards/samg55_xplained_pro/board_init.o
system_init_flash                                 src/ASF/sam/utils/cmsis/samg/samg55/source/templates/system_samg55.o
                                                  src/ASF/common/services/clock/samg/sysclk.o
twi_disable_interrupt                             src/ASF/sam/drivers/twi/twi.o
twi_disable_master_mode                           src/ASF/sam/drivers/twi/twi.o
                                                  src/inv/inv_i2c.o
twi_disable_slave_mode                            src/ASF/sam/drivers/twi/twi.o
twi_enable_interrupt                              src/ASF/sam/drivers/twi/twi.o
twi_enable_master_mode                            src/ASF/sam/drivers/twi/twi.o
twi_enable_slave_mode                             src/ASF/sam/drivers/twi/twi.o
twi_get_interrupt_mask                            src/ASF/sam/drivers/twi/twi.o
twi_get_interrupt_status                          src/ASF/sam/drivers/twi/twi.o
twi_get_pdc_base                                  src/ASF/sam/drivers/twi/twi.o
twi_mask_slave_addr                               src/ASF/sam/drivers/twi/twi.o
twi_master_init                                   src/ASF/sam/drivers/twi/twi.o
                                                  src/inv/inv_i2c.o
twi_master_read                                   src/ASF/sam/drivers/twi/twi.o
                                                  src/inv/inv_i2c.o
twi_master_write                                  src/ASF/sam/drivers/twi/twi.o
                                                  src/inv/inv_i2c.o
twi_mk_addr                                       src/ASF/sam/drivers/twi/twi.o
twi_probe                                         src/ASF/sam/drivers/twi/twi.o
twi_read_byte                                     src/ASF/sam/drivers/twi/twi.o
twi_read_write_protection_status                  src/ASF/sam/drivers/twi/twi.o
twi_reset                                         src/ASF/sam/drivers/twi/twi.o
twi_set_alternative_command                       src/ASF/sam/drivers/twi/twi.o
twi_set_filter                                    src/ASF/sam/drivers/twi/twi.o
twi_set_slave_addr                                src/ASF/sam/drivers/twi/twi.o
twi_set_sleepwalking                              src/ASF/sam/drivers/twi/twi.o
twi_set_speed                                     src/ASF/sam/drivers/twi/twi.o
twi_set_write_protection                          src/ASF/sam/drivers/twi/twi.o
twi_slave_init                                    src/ASF/sam/drivers/twi/twi.o
twi_slave_read                                    src/ASF/sam/drivers/twi/twi.o
twi_slave_write                                   src/ASF/sam/drivers/twi/twi.o
twi_smbus_set_timing                              src/ASF/sam/drivers/twi/twi.o
twi_write_byte                                    src/ASF/sam/drivers/twi/twi.o
uart_main_dma_puts                                src/inv/inv_uart.o
ulPortSetInterruptMask                            src/ASF/thirdparty/freertos/freertos-8.0.1/Source/portable/GCC/ARM_CM4F/port.o
                                                  src/ASF/thirdparty/freertos/freertos-8.0.1/Source/timers.o
                                                  src/ASF/thirdparty/freertos/freertos-8.0.1/Source/tasks.o
                                                  src/ASF/thirdparty/freertos/freertos-8.0.1/Source/queue.o
                                                  src/ASF/thirdparty/freertos/freertos-8.0.1/Source/event_groups.o
                                                  src/ASF/thirdparty/freertos/freertos-8.0.1/Source/croutine.o
usart_disable_interrupt                           src/ASF/sam/drivers/usart/usart.o
usart_disable_rx                                  src/ASF/sam/drivers/usart/usart.o
usart_disable_tx                                  src/ASF/sam/drivers/usart/usart.o
usart_disable_writeprotect                        src/ASF/sam/drivers/usart/usart.o
usart_drive_RTS_pin_high                          src/ASF/sam/drivers/usart/usart.o
usart_drive_RTS_pin_low                           src/ASF/sam/drivers/usart/usart.o
usart_enable_interrupt                            src/ASF/sam/drivers/usart/usart.o
                                                  src/inv/inv_uart.o
usart_enable_rx                                   src/ASF/sam/drivers/usart/usart.o
                                                  src/inv/inv_uart.o
usart_enable_tx                                   src/ASF/sam/drivers/usart/usart.o
                                                  src/inv/inv_uart.o
usart_enable_writeprotect                         src/ASF/sam/drivers/usart/usart.o
usart_get_error_number                            src/ASF/sam/drivers/usart/usart.o
usart_get_interrupt_mask                          src/ASF/sam/drivers/usart/usart.o
usart_get_pdc_base                                src/ASF/sam/drivers/usart/usart.o
                                                  src/main.o
                                                  src/inv/inv_uart.o
usart_get_status                                  src/ASF/sam/drivers/usart/usart.o
                                                  src/inv/inv_uart.o
usart_get_writeprotect_status                     src/ASF/sam/drivers/usart/usart.o
usart_getchar                                     src/ASF/sam/drivers/usart/usart.o
usart_init_hw_handshaking                         src/ASF/sam/drivers/usart/usart.o
usart_init_iso7816                                src/ASF/sam/drivers/usart/usart.o
usart_init_lin_master                             src/ASF/sam/drivers/usart/usart.o
usart_init_lin_slave                              src/ASF/sam/drivers/usart/usart.o
usart_init_rs232                                  src/ASF/sam/drivers/usart/usart.o
                                                  src/inv/inv_uart.o
usart_init_rs485                                  src/ASF/sam/drivers/usart/usart.o
usart_init_spi_master                             src/ASF/sam/drivers/usart/usart.o
usart_init_spi_slave                              src/ASF/sam/drivers/usart/usart.o
usart_init_sync_master                            src/ASF/sam/drivers/usart/usart.o
usart_init_sync_slave                             src/ASF/sam/drivers/usart/usart.o
usart_is_rx_buf_end                               src/ASF/sam/drivers/usart/usart.o
usart_is_rx_buf_full                              src/ASF/sam/drivers/usart/usart.o
usart_is_rx_ready                                 src/ASF/sam/drivers/usart/usart.o
usart_is_tx_buf_empty                             src/ASF/sam/drivers/usart/usart.o
usart_is_tx_buf_end                               src/ASF/sam/drivers/usart/usart.o
usart_is_tx_empty                                 src/ASF/sam/drivers/usart/usart.o
usart_is_tx_ready                                 src/ASF/sam/drivers/usart/usart.o
usart_lin_abort_tx                                src/ASF/sam/drivers/usart/usart.o
usart_lin_disable_checksum                        src/ASF/sam/drivers/usart/usart.o
usart_lin_disable_frame_slot                      src/ASF/sam/drivers/usart/usart.o
usart_lin_disable_parity                          src/ASF/sam/drivers/usart/usart.o
usart_lin_disable_pdc_mode                        src/ASF/sam/drivers/usart/usart.o
usart_lin_enable_checksum                         src/ASF/sam/drivers/usart/usart.o
usart_lin_enable_frame_slot                       src/ASF/sam/drivers/usart/usart.o
usart_lin_enable_parity                           src/ASF/sam/drivers/usart/usart.o
usart_lin_enable_pdc_mode                         src/ASF/sam/drivers/usart/usart.o
usart_lin_get_data_length                         src/ASF/sam/drivers/usart/usart.o
usart_lin_read_identifier                         src/ASF/sam/drivers/usart/usart.o
usart_lin_send_wakeup_signal                      src/ASF/sam/drivers/usart/usart.o
usart_lin_set_checksum_type                       src/ASF/sam/drivers/usart/usart.o
usart_lin_set_data_len_mode                       src/ASF/sam/drivers/usart/usart.o
usart_lin_set_node_action                         src/ASF/sam/drivers/usart/usart.o
usart_lin_set_response_data_len                   src/ASF/sam/drivers/usart/usart.o
usart_lin_set_tx_identifier                       src/ASF/sam/drivers/usart/usart.o
usart_lin_set_wakeup_signal_type                  src/ASF/sam/drivers/usart/usart.o
usart_putchar                                     src/ASF/sam/drivers/usart/usart.o
usart_read                                        src/ASF/sam/drivers/usart/usart.o
                                                  src/ASF/common/services/serial/usart_serial.o
                                                  src/inv/inv_uart.o
usart_reset                                       src/ASF/sam/drivers/usart/usart.o
usart_reset_iterations                            src/ASF/sam/drivers/usart/usart.o
usart_reset_nack                                  src/ASF/sam/drivers/usart/usart.o
usart_reset_rx                                    src/ASF/sam/drivers/usart/usart.o
usart_reset_status                                src/ASF/sam/drivers/usart/usart.o
usart_reset_tx                                    src/ASF/sam/drivers/usart/usart.o
usart_restart_rx_timeout                          src/ASF/sam/drivers/usart/usart.o
usart_send_address                                src/ASF/sam/drivers/usart/usart.o
usart_serial_read_packet                          src/ASF/common/services/serial/usart_serial.o
usart_serial_write_packet                         src/ASF/common/services/serial/usart_serial.o
usart_set_async_baudrate                          src/ASF/sam/drivers/usart/usart.o
usart_set_rx_timeout                              src/ASF/sam/drivers/usart/usart.o
usart_set_sleepwalking                            src/ASF/sam/drivers/usart/usart.o
usart_set_tx_timeguard                            src/ASF/sam/drivers/usart/usart.o
usart_spi_force_chip_select                       src/ASF/sam/drivers/usart/usart.o
usart_spi_release_chip_select                     src/ASF/sam/drivers/usart/usart.o
usart_start_rx_timeout                            src/ASF/sam/drivers/usart/usart.o
usart_start_tx_break                              src/ASF/sam/drivers/usart/usart.o
usart_stop_tx_break                               src/ASF/sam/drivers/usart/usart.o
usart_write                                       src/ASF/sam/drivers/usart/usart.o
                                                  src/ASF/common/services/serial/usart_serial.o
                                                  src/inv/inv_uart.o
usart_write_line                                  src/ASF/sam/drivers/usart/usart.o
uxListRemove                                      src/ASF/thirdparty/freertos/freertos-8.0.1/Source/list.o
                                                  src/ASF/thirdparty/freertos/freertos-8.0.1/Source/timers.o
                                                  src/ASF/thirdparty/freertos/freertos-8.0.1/Source/tasks.o
                                                  src/ASF/thirdparty/freertos/freertos-8.0.1/Source/croutine.o
uxQueueMessagesWaiting                            src/ASF/thirdparty/freertos/freertos-8.0.1/Source/queue.o
uxQueueMessagesWaitingFromISR                     src/ASF/thirdparty/freertos/freertos-8.0.1/Source/queue.o
uxQueueSpacesAvailable                            src/ASF/thirdparty/freertos/freertos-8.0.1/Source/queue.o
uxTaskGetNumberOfTasks                            src/ASF/thirdparty/freertos/freertos-8.0.1/Source/tasks.o
uxTaskPriorityGet                                 src/ASF/thirdparty/freertos/freertos-8.0.1/Source/tasks.o
uxTaskResetEventItemValue                         src/ASF/thirdparty/freertos/freertos-8.0.1/Source/tasks.o
                                                  src/ASF/thirdparty/freertos/freertos-8.0.1/Source/event_groups.o
vCoRoutineAddToDelayedList                        src/ASF/thirdparty/freertos/freertos-8.0.1/Source/croutine.o
vCoRoutineSchedule                                src/ASF/thirdparty/freertos/freertos-8.0.1/Source/croutine.o
vDMATask                                          src/main.o
vEventGroupClearBitsCallback                      src/ASF/thirdparty/freertos/freertos-8.0.1/Source/event_groups.o
vEventGroupDelete                                 src/ASF/thirdparty/freertos/freertos-8.0.1/Source/event_groups.o
vEventGroupSetBitsCallback                        src/ASF/thirdparty/freertos/freertos-8.0.1/Source/event_groups.o
vListInitialise                                   src/ASF/thirdparty/freertos/freertos-8.0.1/Source/list.o
                                                  src/ASF/thirdparty/freertos/freertos-8.0.1/Source/timers.o
                                                  src/ASF/thirdparty/freertos/freertos-8.0.1/Source/tasks.o
                                                  src/ASF/thirdparty/freertos/freertos-8.0.1/Source/queue.o
                                                  src/ASF/thirdparty/freertos/freertos-8.0.1/Source/event_groups.o
                                                  src/ASF/thirdparty/freertos/freertos-8.0.1/Source/croutine.o
vListInitialiseItem                               src/ASF/thirdparty/freertos/freertos-8.0.1/Source/list.o
                                                  src/ASF/thirdparty/freertos/freertos-8.0.1/Source/timers.o
                                                  src/ASF/thirdparty/freertos/freertos-8.0.1/Source/tasks.o
                                                  src/ASF/thirdparty/freertos/freertos-8.0.1/Source/croutine.o
vListInsert                                       src/ASF/thirdparty/freertos/freertos-8.0.1/Source/list.o
                                                  src/ASF/thirdparty/freertos/freertos-8.0.1/Source/timers.o
                                                  src/ASF/thirdparty/freertos/freertos-8.0.1/Source/tasks.o
                                                  src/ASF/thirdparty/freertos/freertos-8.0.1/Source/croutine.o
vListInsertEnd                                    src/ASF/thirdparty/freertos/freertos-8.0.1/Source/list.o
                                                  src/ASF/thirdparty/freertos/freertos-8.0.1/Source/tasks.o
                                                  src/ASF/thirdparty/freertos/freertos-8.0.1/Source/croutine.o
vMainTask                                         src/main.o
vPortClearInterruptMask                           src/ASF/thirdparty/freertos/freertos-8.0.1/Source/portable/GCC/ARM_CM4F/port.o
                                                  src/ASF/thirdparty/freertos/freertos-8.0.1/Source/tasks.o
                                                  src/ASF/thirdparty/freertos/freertos-8.0.1/Source/queue.o
                                                  src/ASF/thirdparty/freertos/freertos-8.0.1/Source/event_groups.o
                                                  src/ASF/thirdparty/freertos/freertos-8.0.1/Source/croutine.o
vPortEndScheduler                                 src/ASF/thirdparty/freertos/freertos-8.0.1/Source/portable/GCC/ARM_CM4F/port.o
                                                  src/ASF/thirdparty/freertos/freertos-8.0.1/Source/tasks.o
vPortEnterCritical                                src/ASF/thirdparty/freertos/freertos-8.0.1/Source/portable/GCC/ARM_CM4F/port.o
                                                  src/ASF/thirdparty/freertos/freertos-8.0.1/Source/timers.o
                                                  src/ASF/thirdparty/freertos/freertos-8.0.1/Source/tasks.o
                                                  src/ASF/thirdparty/freertos/freertos-8.0.1/Source/queue.o
                                                  src/ASF/thirdparty/freertos/freertos-8.0.1/Source/event_groups.o
vPortExitCritical                                 src/ASF/thirdparty/freertos/freertos-8.0.1/Source/portable/GCC/ARM_CM4F/port.o
                                                  src/ASF/thirdparty/freertos/freertos-8.0.1/Source/timers.o
                                                  src/ASF/thirdparty/freertos/freertos-8.0.1/Source/tasks.o
                                                  src/ASF/thirdparty/freertos/freertos-8.0.1/Source/queue.o
                                                  src/ASF/thirdparty/freertos/freertos-8.0.1/Source/event_groups.o
vPortFree                                         src/ASF/thirdparty/freertos/freertos-8.0.1/Source/portable/MemMang/heap_2.o
                                                  src/ASF/thirdparty/freertos/freertos-8.0.1/Source/timers.o
                                                  src/ASF/thirdparty/freertos/freertos-8.0.1/Source/tasks.o
                                                  src/ASF/thirdparty/freertos/freertos-8.0.1/Source/queue.o
                                                  src/ASF/thirdparty/freertos/freertos-8.0.1/Source/event_groups.o
vPortInitialiseBlocks                             src/ASF/thirdparty/freertos/freertos-8.0.1/Source/portable/MemMang/heap_2.o
vPortSetupTimerInterrupt                          src/ASF/thirdparty/freertos/freertos-8.0.1/Source/portable/GCC/ARM_CM4F/port.o
vPortValidateInterruptPriority                    src/ASF/thirdparty/freertos/freertos-8.0.1/Source/portable/GCC/ARM_CM4F/port.o
                                                  src/ASF/thirdparty/freertos/freertos-8.0.1/Source/tasks.o
                                                  src/ASF/thirdparty/freertos/freertos-8.0.1/Source/queue.o
vPortYield                                        src/ASF/thirdparty/freertos/freertos-8.0.1/Source/portable/GCC/ARM_CM4F/port.o
                                                  src/ASF/thirdparty/freertos/freertos-8.0.1/Source/timers.o
                                                  src/ASF/thirdparty/freertos/freertos-8.0.1/Source/tasks.o
                                                  src/ASF/thirdparty/freertos/freertos-8.0.1/Source/queue.o
                                                  src/ASF/thirdparty/freertos/freertos-8.0.1/Source/event_groups.o
vQueueDelete                                      src/ASF/thirdparty/freertos/freertos-8.0.1/Source/queue.o
vQueueWaitForMessageRestricted                    src/ASF/thirdparty/freertos/freertos-8.0.1/Source/queue.o
                                                  src/ASF/thirdparty/freertos/freertos-8.0.1/Source/timers.o
vSensorIntPB03Task                                src/main.o
vTaskDelay                                        src/ASF/thirdparty/freertos/freertos-8.0.1/Source/tasks.o
vTaskDelayUntil                                   src/ASF/thirdparty/freertos/freertos-8.0.1/Source/tasks.o
vTaskDelete                                       src/ASF/thirdparty/freertos/freertos-8.0.1/Source/tasks.o
vTaskEndScheduler                                 src/ASF/thirdparty/freertos/freertos-8.0.1/Source/tasks.o
vTaskMissedYield                                  src/ASF/thirdparty/freertos/freertos-8.0.1/Source/tasks.o
                                                  src/ASF/thirdparty/freertos/freertos-8.0.1/Source/queue.o
vTaskPlaceOnEventList                             src/ASF/thirdparty/freertos/freertos-8.0.1/Source/tasks.o
                                                  src/ASF/thirdparty/freertos/freertos-8.0.1/Source/queue.o
vTaskPlaceOnEventListRestricted                   src/ASF/thirdparty/freertos/freertos-8.0.1/Source/tasks.o
                                                  src/ASF/thirdparty/freertos/freertos-8.0.1/Source/queue.o
vTaskPlaceOnUnorderedEventList                    src/ASF/thirdparty/freertos/freertos-8.0.1/Source/tasks.o
                                                  src/ASF/thirdparty/freertos/freertos-8.0.1/Source/event_groups.o
vTaskPriorityDisinherit                           src/ASF/thirdparty/freertos/freertos-8.0.1/Source/tasks.o
                                                  src/ASF/thirdparty/freertos/freertos-8.0.1/Source/queue.o
vTaskPriorityInherit                              src/ASF/thirdparty/freertos/freertos-8.0.1/Source/tasks.o
                                                  src/ASF/thirdparty/freertos/freertos-8.0.1/Source/queue.o
vTaskPrioritySet                                  src/ASF/thirdparty/freertos/freertos-8.0.1/Source/tasks.o
vTaskResume                                       src/ASF/thirdparty/freertos/freertos-8.0.1/Source/tasks.o
vTaskSetTimeOutState                              src/ASF/thirdparty/freertos/freertos-8.0.1/Source/tasks.o
                                                  src/ASF/thirdparty/freertos/freertos-8.0.1/Source/queue.o
vTaskStartScheduler                               src/ASF/thirdparty/freertos/freertos-8.0.1/Source/tasks.o
                                                  src/main.o
vTaskSuspend                                      src/ASF/thirdparty/freertos/freertos-8.0.1/Source/tasks.o
vTaskSuspendAll                                   src/ASF/thirdparty/freertos/freertos-8.0.1/Source/tasks.o
                                                  src/ASF/thirdparty/freertos/freertos-8.0.1/Source/timers.o
                                                  src/ASF/thirdparty/freertos/freertos-8.0.1/Source/queue.o
                                                  src/ASF/thirdparty/freertos/freertos-8.0.1/Source/portable/MemMang/heap_2.o
                                                  src/ASF/thirdparty/freertos/freertos-8.0.1/Source/event_groups.o
vTaskSwitchContext                                src/ASF/thirdparty/freertos/freertos-8.0.1/Source/tasks.o
                                                  src/ASF/thirdparty/freertos/freertos-8.0.1/Source/portable/GCC/ARM_CM4F/port.o
vfiprintf                                         c:/program files (x86)/atmel/studio/7.0/toolchain/arm/arm-gnu-toolchain/bin/../lib/gcc/arm-none-eabi/6.3.1/../../../../arm-none-eabi/lib/thumb/v7e-m\libc.a(lib_a-vfiprintf.o)
wcrtomb                                           c:/program files (x86)/atmel/studio/7.0/toolchain/arm/arm-gnu-toolchain/bin/../lib/gcc/arm-none-eabi/6.3.1/../../../../arm-none-eabi/lib/thumb/v7e-m\libc.a(lib_a-wcrtomb.o)
xCoRoutineCreate                                  src/ASF/thirdparty/freertos/freertos-8.0.1/Source/croutine.o
xCoRoutineRemoveFromEventList                     src/ASF/thirdparty/freertos/freertos-8.0.1/Source/croutine.o
xDMATask                                          src/main.o
xEventGroupClearBits                              src/ASF/thirdparty/freertos/freertos-8.0.1/Source/event_groups.o
xEventGroupCreate                                 src/ASF/thirdparty/freertos/freertos-8.0.1/Source/event_groups.o
xEventGroupGetBitsFromISR                         src/ASF/thirdparty/freertos/freertos-8.0.1/Source/event_groups.o
xEventGroupSetBits                                src/ASF/thirdparty/freertos/freertos-8.0.1/Source/event_groups.o
xEventGroupSync                                   src/ASF/thirdparty/freertos/freertos-8.0.1/Source/event_groups.o
xEventGroupWaitBits                               src/ASF/thirdparty/freertos/freertos-8.0.1/Source/event_groups.o
xMainTask                                         src/main.o
xPortGetFreeHeapSize                              src/ASF/thirdparty/freertos/freertos-8.0.1/Source/portable/MemMang/heap_2.o
xPortStartScheduler                               src/ASF/thirdparty/freertos/freertos-8.0.1/Source/portable/GCC/ARM_CM4F/port.o
                                                  src/ASF/thirdparty/freertos/freertos-8.0.1/Source/tasks.o
xQueueAddToSet                                    src/ASF/thirdparty/freertos/freertos-8.0.1/Source/queue.o
xQueueCreateCountingSemaphore                     src/ASF/thirdparty/freertos/freertos-8.0.1/Source/queue.o
xQueueCreateMutex                                 src/ASF/thirdparty/freertos/freertos-8.0.1/Source/queue.o
xQueueCreateSet                                   src/ASF/thirdparty/freertos/freertos-8.0.1/Source/queue.o
xQueueGenericCreate                               src/ASF/thirdparty/freertos/freertos-8.0.1/Source/queue.o
                                                  src/main.o
                                                  src/ASF/thirdparty/freertos/freertos-8.0.1/Source/timers.o
xQueueGenericReceive                              src/ASF/thirdparty/freertos/freertos-8.0.1/Source/queue.o
                                                  src/main.o
                                                  src/inv/protocol_functions.o
                                                  src/inv/inv_uart.o
                                                  src/ASF/thirdparty/freertos/freertos-8.0.1/Source/timers.o
xQueueGenericReset                                src/ASF/thirdparty/freertos/freertos-8.0.1/Source/queue.o
xQueueGenericSend                                 src/ASF/thirdparty/freertos/freertos-8.0.1/Source/queue.o
                                                  src/main.o
                                                  src/inv/protocol_functions.o
                                                  src/inv/inv_uart.o
                                                  src/ASF/thirdparty/freertos/freertos-8.0.1/Source/timers.o
xQueueGenericSendFromISR                          src/ASF/thirdparty/freertos/freertos-8.0.1/Source/queue.o
                                                  src/ASF/thirdparty/freertos/freertos-8.0.1/Source/timers.o
xQueueGiveMutexRecursive                          src/ASF/thirdparty/freertos/freertos-8.0.1/Source/queue.o
xQueueIsQueueEmptyFromISR                         src/ASF/thirdparty/freertos/freertos-8.0.1/Source/queue.o
xQueueIsQueueFullFromISR                          src/ASF/thirdparty/freertos/freertos-8.0.1/Source/queue.o
xQueuePeekFromISR                                 src/ASF/thirdparty/freertos/freertos-8.0.1/Source/queue.o
xQueueReceiveFromISR                              src/ASF/thirdparty/freertos/freertos-8.0.1/Source/queue.o
xQueueRemoveFromSet                               src/ASF/thirdparty/freertos/freertos-8.0.1/Source/queue.o
xQueueSelectFromSet                               src/ASF/thirdparty/freertos/freertos-8.0.1/Source/queue.o
xQueueSelectFromSetFromISR                        src/ASF/thirdparty/freertos/freertos-8.0.1/Source/queue.o
xQueueTakeMutexRecursive                          src/ASF/thirdparty/freertos/freertos-8.0.1/Source/queue.o
xSensorIntPB03Task                                src/main.o
xTaskCheckForTimeOut                              src/ASF/thirdparty/freertos/freertos-8.0.1/Source/tasks.o
                                                  src/ASF/thirdparty/freertos/freertos-8.0.1/Source/queue.o
xTaskGenericCreate                                src/ASF/thirdparty/freertos/freertos-8.0.1/Source/tasks.o
                                                  src/main.o
                                                  src/ASF/thirdparty/freertos/freertos-8.0.1/Source/timers.o
xTaskGetCurrentTaskHandle                         src/ASF/thirdparty/freertos/freertos-8.0.1/Source/tasks.o
                                                  src/ASF/thirdparty/freertos/freertos-8.0.1/Source/queue.o
xTaskGetSchedulerState                            src/ASF/thirdparty/freertos/freertos-8.0.1/Source/tasks.o
                                                  src/ASF/thirdparty/freertos/freertos-8.0.1/Source/timers.o
                                                  src/ASF/thirdparty/freertos/freertos-8.0.1/Source/queue.o
                                                  src/ASF/thirdparty/freertos/freertos-8.0.1/Source/event_groups.o
xTaskGetTickCount                                 src/ASF/thirdparty/freertos/freertos-8.0.1/Source/tasks.o
                                                  src/ASF/thirdparty/freertos/freertos-8.0.1/Source/timers.o
                                                  src/ASF/thirdparty/freertos/freertos-8.0.1/Source/croutine.o
xTaskGetTickCountFromISR                          src/ASF/thirdparty/freertos/freertos-8.0.1/Source/tasks.o
xTaskIncrementTick                                src/ASF/thirdparty/freertos/freertos-8.0.1/Source/tasks.o
                                                  src/ASF/thirdparty/freertos/freertos-8.0.1/Source/portable/GCC/ARM_CM4F/port.o
xTaskRemoveFromEventList                          src/ASF/thirdparty/freertos/freertos-8.0.1/Source/tasks.o
                                                  src/ASF/thirdparty/freertos/freertos-8.0.1/Source/queue.o
xTaskRemoveFromUnorderedEventList                 src/ASF/thirdparty/freertos/freertos-8.0.1/Source/tasks.o
                                                  src/ASF/thirdparty/freertos/freertos-8.0.1/Source/event_groups.o
xTaskResumeAll                                    src/ASF/thirdparty/freertos/freertos-8.0.1/Source/tasks.o
                                                  src/ASF/thirdparty/freertos/freertos-8.0.1/Source/timers.o
                                                  src/ASF/thirdparty/freertos/freertos-8.0.1/Source/queue.o
                                                  src/ASF/thirdparty/freertos/freertos-8.0.1/Source/portable/MemMang/heap_2.o
                                                  src/ASF/thirdparty/freertos/freertos-8.0.1/Source/event_groups.o
xTaskResumeFromISR                                src/ASF/thirdparty/freertos/freertos-8.0.1/Source/tasks.o
xTimerCreate                                      src/ASF/thirdparty/freertos/freertos-8.0.1/Source/timers.o
xTimerCreateTimerTask                             src/ASF/thirdparty/freertos/freertos-8.0.1/Source/timers.o
                                                  src/ASF/thirdparty/freertos/freertos-8.0.1/Source/tasks.o
xTimerGenericCommand                              src/ASF/thirdparty/freertos/freertos-8.0.1/Source/timers.o
xTimerIsTimerActive                               src/ASF/thirdparty/freertos/freertos-8.0.1/Source/timers.o
