
ATSAMG_mcu_firmware.elf:     file format elf32-littlearm

Sections:
Idx Name          Size      VMA       LMA       File off  Algn
  0 .text         00006cc8  00400000  00400000  00010000  2**6
                  CONTENTS, ALLOC, LOAD, READONLY, CODE
  1 .ARM.exidx    00000008  00406cc8  00406cc8  00016cc8  2**2
                  CONTENTS, ALLOC, LOAD, READONLY, DATA
  2 .relocate     00000a48  20000000  00406cd0  00020000  2**3
                  CONTENTS, ALLOC, LOAD, CODE
  3 .bss          0001ae78  20000a48  00407718  00020a48  2**2
                  ALLOC
  4 .stack        00003000  2001b8c0  00422590  00020a48  2**0
                  ALLOC
  5 .ARM.attributes 0000002e  00000000  00000000  00020a48  2**0
                  CONTENTS, READONLY
  6 .comment      00000059  00000000  00000000  00020a76  2**0
                  CONTENTS, READONLY
  7 .debug_frame  00000d34  00000000  00000000  00020ad0  2**2
                  CONTENTS, READONLY, DEBUGGING

Disassembly of section .text:

00400000 <exception_table>:
  400000:	c0 e8 01 20 5d 27 40 00 5b 27 40 00 5b 27 40 00     ... ]'@.['@.['@.
  400010:	5b 27 40 00 5b 27 40 00 5b 27 40 00 00 00 00 00     ['@.['@.['@.....
	...
  40002c:	f9 07 40 00 5b 27 40 00 00 00 00 00 b1 08 40 00     ..@.['@.......@.
  40003c:	09 09 40 00 5b 27 40 00 5b 27 40 00 5b 27 40 00     ..@.['@.['@.['@.
  40004c:	5b 27 40 00 5b 27 40 00 5b 27 40 00 5b 27 40 00     ['@.['@.['@.['@.
  40005c:	5b 27 40 00 65 22 40 00 5b 27 40 00 00 00 00 00     ['@.e"@.['@.....
  40006c:	09 04 40 00 19 04 40 00 5b 27 40 00 5b 27 40 00     ..@...@.['@.['@.
  40007c:	5b 27 40 00 5b 27 40 00 5b 27 40 00 5b 27 40 00     ['@.['@.['@.['@.
  40008c:	5b 27 40 00 5b 27 40 00 5b 27 40 00 5b 27 40 00     ['@.['@.['@.['@.
  40009c:	5b 27 40 00 5b 27 40 00 5b 27 40 00 5b 27 40 00     ['@.['@.['@.['@.
  4000ac:	5b 27 40 00 5b 27 40 00 5b 27 40 00 5b 27 40 00     ['@.['@.['@.['@.
	...
  4000fc:	5b 27 40 00 5b 27 40 00 5b 27 40 00 00 00 00 00     ['@.['@.['@.....
	...

00400148 <__do_global_dtors_aux>:
  400148:	b510      	push	{r4, lr}
  40014a:	4c05      	ldr	r4, [pc, #20]	; (400160 <__do_global_dtors_aux+0x18>)
  40014c:	7823      	ldrb	r3, [r4, #0]
  40014e:	b933      	cbnz	r3, 40015e <__do_global_dtors_aux+0x16>
  400150:	4b04      	ldr	r3, [pc, #16]	; (400164 <__do_global_dtors_aux+0x1c>)
  400152:	b113      	cbz	r3, 40015a <__do_global_dtors_aux+0x12>
  400154:	4804      	ldr	r0, [pc, #16]	; (400168 <__do_global_dtors_aux+0x20>)
  400156:	f3af 8000 	nop.w
  40015a:	2301      	movs	r3, #1
  40015c:	7023      	strb	r3, [r4, #0]
  40015e:	bd10      	pop	{r4, pc}
  400160:	20000a48 	.word	0x20000a48
  400164:	00000000 	.word	0x00000000
  400168:	00406cd0 	.word	0x00406cd0

0040016c <frame_dummy>:
  40016c:	4b0c      	ldr	r3, [pc, #48]	; (4001a0 <frame_dummy+0x34>)
  40016e:	b143      	cbz	r3, 400182 <frame_dummy+0x16>
  400170:	480c      	ldr	r0, [pc, #48]	; (4001a4 <frame_dummy+0x38>)
  400172:	490d      	ldr	r1, [pc, #52]	; (4001a8 <frame_dummy+0x3c>)
  400174:	b510      	push	{r4, lr}
  400176:	f3af 8000 	nop.w
  40017a:	480c      	ldr	r0, [pc, #48]	; (4001ac <frame_dummy+0x40>)
  40017c:	6803      	ldr	r3, [r0, #0]
  40017e:	b923      	cbnz	r3, 40018a <frame_dummy+0x1e>
  400180:	bd10      	pop	{r4, pc}
  400182:	480a      	ldr	r0, [pc, #40]	; (4001ac <frame_dummy+0x40>)
  400184:	6803      	ldr	r3, [r0, #0]
  400186:	b933      	cbnz	r3, 400196 <frame_dummy+0x2a>
  400188:	4770      	bx	lr
  40018a:	4b09      	ldr	r3, [pc, #36]	; (4001b0 <frame_dummy+0x44>)
  40018c:	2b00      	cmp	r3, #0
  40018e:	d0f7      	beq.n	400180 <frame_dummy+0x14>
  400190:	e8bd 4010 	ldmia.w	sp!, {r4, lr}
  400194:	4718      	bx	r3
  400196:	4b06      	ldr	r3, [pc, #24]	; (4001b0 <frame_dummy+0x44>)
  400198:	2b00      	cmp	r3, #0
  40019a:	d0f5      	beq.n	400188 <frame_dummy+0x1c>
  40019c:	4718      	bx	r3
  40019e:	bf00      	nop
  4001a0:	00000000 	.word	0x00000000
  4001a4:	00406cd0 	.word	0x00406cd0
  4001a8:	20000a4c 	.word	0x20000a4c
  4001ac:	00406cd0 	.word	0x00406cd0
  4001b0:	00000000 	.word	0x00000000

004001b4 <_read>:
  4001b4:	e92d 41f0 	stmdb	sp!, {r4, r5, r6, r7, r8, lr}
  4001b8:	460e      	mov	r6, r1
  4001ba:	4614      	mov	r4, r2
  4001bc:	b988      	cbnz	r0, 4001e2 <_read+0x2e>
  4001be:	4f0b      	ldr	r7, [pc, #44]	; (4001ec <_read+0x38>)
  4001c0:	f8df 802c 	ldr.w	r8, [pc, #44]	; 4001f0 <_read+0x3c>
  4001c4:	4615      	mov	r5, r2
  4001c6:	1b61      	subs	r1, r4, r5
  4001c8:	2d00      	cmp	r5, #0
  4001ca:	4431      	add	r1, r6
  4001cc:	dc03      	bgt.n	4001d6 <_read+0x22>
  4001ce:	ea24 70e4 	bic.w	r0, r4, r4, asr #31
  4001d2:	e8bd 81f0 	ldmia.w	sp!, {r4, r5, r6, r7, r8, pc}
  4001d6:	6838      	ldr	r0, [r7, #0]
  4001d8:	f8d8 3000 	ldr.w	r3, [r8]
  4001dc:	4798      	blx	r3
  4001de:	3d01      	subs	r5, #1
  4001e0:	e7f1      	b.n	4001c6 <_read+0x12>
  4001e2:	f04f 30ff 	mov.w	r0, #4294967295
  4001e6:	e8bd 81f0 	ldmia.w	sp!, {r4, r5, r6, r7, r8, pc}
  4001ea:	bf00      	nop
  4001ec:	20013878 	.word	0x20013878
  4001f0:	20013870 	.word	0x20013870

004001f4 <pio_set_peripheral>:
  4001f4:	f1b1 5f80 	cmp.w	r1, #268435456	; 0x10000000
  4001f8:	b510      	push	{r4, lr}
  4001fa:	6442      	str	r2, [r0, #68]	; 0x44
  4001fc:	d01d      	beq.n	40023a <pio_set_peripheral+0x46>
  4001fe:	d805      	bhi.n	40020c <pio_set_peripheral+0x18>
  400200:	b119      	cbz	r1, 40020a <pio_set_peripheral+0x16>
  400202:	f1b1 6f00 	cmp.w	r1, #134217728	; 0x8000000
  400206:	d00b      	beq.n	400220 <pio_set_peripheral+0x2c>
  400208:	6042      	str	r2, [r0, #4]
  40020a:	bd10      	pop	{r4, pc}
  40020c:	f1b1 5f40 	cmp.w	r1, #805306368	; 0x30000000
  400210:	d0fb      	beq.n	40020a <pio_set_peripheral+0x16>
  400212:	f1b1 5f60 	cmp.w	r1, #939524096	; 0x38000000
  400216:	d0f8      	beq.n	40020a <pio_set_peripheral+0x16>
  400218:	f1b1 5f20 	cmp.w	r1, #671088640	; 0x28000000
  40021c:	d1f4      	bne.n	400208 <pio_set_peripheral+0x14>
  40021e:	bd10      	pop	{r4, pc}
  400220:	6f01      	ldr	r1, [r0, #112]	; 0x70
  400222:	6f04      	ldr	r4, [r0, #112]	; 0x70
  400224:	43d3      	mvns	r3, r2
  400226:	4021      	ands	r1, r4
  400228:	4019      	ands	r1, r3
  40022a:	6701      	str	r1, [r0, #112]	; 0x70
  40022c:	461c      	mov	r4, r3
  40022e:	6f43      	ldr	r3, [r0, #116]	; 0x74
  400230:	6f41      	ldr	r1, [r0, #116]	; 0x74
  400232:	400b      	ands	r3, r1
  400234:	4023      	ands	r3, r4
  400236:	6743      	str	r3, [r0, #116]	; 0x74
  400238:	e7e6      	b.n	400208 <pio_set_peripheral+0x14>
  40023a:	6f03      	ldr	r3, [r0, #112]	; 0x70
  40023c:	4313      	orrs	r3, r2
  40023e:	6703      	str	r3, [r0, #112]	; 0x70
  400240:	6f43      	ldr	r3, [r0, #116]	; 0x74
  400242:	6f41      	ldr	r1, [r0, #116]	; 0x74
  400244:	400b      	ands	r3, r1
  400246:	ea23 0302 	bic.w	r3, r3, r2
  40024a:	e7f4      	b.n	400236 <pio_set_peripheral+0x42>

0040024c <pio_set_input>:
  40024c:	07d3      	lsls	r3, r2, #31
  40024e:	6441      	str	r1, [r0, #68]	; 0x44
  400250:	bf4c      	ite	mi
  400252:	6641      	strmi	r1, [r0, #100]	; 0x64
  400254:	6601      	strpl	r1, [r0, #96]	; 0x60
  400256:	f012 0f0a 	tst.w	r2, #10
  40025a:	bf14      	ite	ne
  40025c:	6201      	strne	r1, [r0, #32]
  40025e:	6241      	streq	r1, [r0, #36]	; 0x24
  400260:	0793      	lsls	r3, r2, #30
  400262:	d504      	bpl.n	40026e <pio_set_input+0x22>
  400264:	f8c0 1080 	str.w	r1, [r0, #128]	; 0x80
  400268:	6141      	str	r1, [r0, #20]
  40026a:	6001      	str	r1, [r0, #0]
  40026c:	4770      	bx	lr
  40026e:	0713      	lsls	r3, r2, #28
  400270:	bf48      	it	mi
  400272:	f8c0 1084 	strmi.w	r1, [r0, #132]	; 0x84
  400276:	e7f7      	b.n	400268 <pio_set_input+0x1c>

00400278 <pio_set_output>:
  400278:	b510      	push	{r4, lr}
  40027a:	9c02      	ldr	r4, [sp, #8]
  40027c:	6441      	str	r1, [r0, #68]	; 0x44
  40027e:	b13c      	cbz	r4, 400290 <pio_set_output+0x18>
  400280:	6641      	str	r1, [r0, #100]	; 0x64
  400282:	b13b      	cbz	r3, 400294 <pio_set_output+0x1c>
  400284:	6501      	str	r1, [r0, #80]	; 0x50
  400286:	b13a      	cbz	r2, 400298 <pio_set_output+0x20>
  400288:	6301      	str	r1, [r0, #48]	; 0x30
  40028a:	6101      	str	r1, [r0, #16]
  40028c:	6001      	str	r1, [r0, #0]
  40028e:	bd10      	pop	{r4, pc}
  400290:	6601      	str	r1, [r0, #96]	; 0x60
  400292:	e7f6      	b.n	400282 <pio_set_output+0xa>
  400294:	6541      	str	r1, [r0, #84]	; 0x54
  400296:	e7f6      	b.n	400286 <pio_set_output+0xe>
  400298:	6341      	str	r1, [r0, #52]	; 0x34
  40029a:	e7f6      	b.n	40028a <pio_set_output+0x12>

0040029c <pio_configure>:
  40029c:	f1b1 5f20 	cmp.w	r1, #671088640	; 0x28000000
  4002a0:	b573      	push	{r0, r1, r4, r5, r6, lr}
  4002a2:	4605      	mov	r5, r0
  4002a4:	4614      	mov	r4, r2
  4002a6:	461e      	mov	r6, r3
  4002a8:	d027      	beq.n	4002fa <pio_configure+0x5e>
  4002aa:	d807      	bhi.n	4002bc <pio_configure+0x20>
  4002ac:	f1b1 6f00 	cmp.w	r1, #134217728	; 0x8000000
  4002b0:	d018      	beq.n	4002e4 <pio_configure+0x48>
  4002b2:	f1b1 5f80 	cmp.w	r1, #268435456	; 0x10000000
  4002b6:	d015      	beq.n	4002e4 <pio_configure+0x48>
  4002b8:	2000      	movs	r0, #0
  4002ba:	e01c      	b.n	4002f6 <pio_configure+0x5a>
  4002bc:	f1b1 5f40 	cmp.w	r1, #805306368	; 0x30000000
  4002c0:	d002      	beq.n	4002c8 <pio_configure+0x2c>
  4002c2:	f1b1 5f60 	cmp.w	r1, #939524096	; 0x38000000
  4002c6:	d1f7      	bne.n	4002b8 <pio_configure+0x1c>
  4002c8:	f101 4148 	add.w	r1, r1, #3355443200	; 0xc8000000
  4002cc:	f006 0301 	and.w	r3, r6, #1
  4002d0:	424a      	negs	r2, r1
  4002d2:	9300      	str	r3, [sp, #0]
  4002d4:	414a      	adcs	r2, r1
  4002d6:	f3c6 0380 	ubfx	r3, r6, #2, #1
  4002da:	4621      	mov	r1, r4
  4002dc:	4628      	mov	r0, r5
  4002de:	4c09      	ldr	r4, [pc, #36]	; (400304 <pio_configure+0x68>)
  4002e0:	47a0      	blx	r4
  4002e2:	e007      	b.n	4002f4 <pio_configure+0x58>
  4002e4:	4628      	mov	r0, r5
  4002e6:	4622      	mov	r2, r4
  4002e8:	4b07      	ldr	r3, [pc, #28]	; (400308 <pio_configure+0x6c>)
  4002ea:	4798      	blx	r3
  4002ec:	07f0      	lsls	r0, r6, #31
  4002ee:	bf4c      	ite	mi
  4002f0:	666c      	strmi	r4, [r5, #100]	; 0x64
  4002f2:	662c      	strpl	r4, [r5, #96]	; 0x60
  4002f4:	2001      	movs	r0, #1
  4002f6:	b002      	add	sp, #8
  4002f8:	bd70      	pop	{r4, r5, r6, pc}
  4002fa:	461a      	mov	r2, r3
  4002fc:	4621      	mov	r1, r4
  4002fe:	4b03      	ldr	r3, [pc, #12]	; (40030c <pio_configure+0x70>)
  400300:	4798      	blx	r3
  400302:	e7f7      	b.n	4002f4 <pio_configure+0x58>
  400304:	00400279 	.word	0x00400279
  400308:	004001f5 	.word	0x004001f5
  40030c:	0040024d 	.word	0x0040024d

00400310 <pio_enable_interrupt>:
  400310:	6401      	str	r1, [r0, #64]	; 0x40
  400312:	4770      	bx	lr

00400314 <pio_disable_interrupt>:
  400314:	6441      	str	r1, [r0, #68]	; 0x44
  400316:	4770      	bx	lr

00400318 <pio_get_interrupt_status>:
  400318:	6cc0      	ldr	r0, [r0, #76]	; 0x4c
  40031a:	4770      	bx	lr

0040031c <pio_get_interrupt_mask>:
  40031c:	6c80      	ldr	r0, [r0, #72]	; 0x48
  40031e:	4770      	bx	lr

00400320 <pio_set_additional_interrupt_mode>:
  400320:	06d3      	lsls	r3, r2, #27
  400322:	d50e      	bpl.n	400342 <pio_set_additional_interrupt_mode+0x22>
  400324:	0693      	lsls	r3, r2, #26
  400326:	f8c0 10b0 	str.w	r1, [r0, #176]	; 0xb0
  40032a:	bf4c      	ite	mi
  40032c:	f8c0 10d4 	strmi.w	r1, [r0, #212]	; 0xd4
  400330:	f8c0 10d0 	strpl.w	r1, [r0, #208]	; 0xd0
  400334:	0653      	lsls	r3, r2, #25
  400336:	bf4c      	ite	mi
  400338:	f8c0 10c0 	strmi.w	r1, [r0, #192]	; 0xc0
  40033c:	f8c0 10c4 	strpl.w	r1, [r0, #196]	; 0xc4
  400340:	4770      	bx	lr
  400342:	f8c0 10b4 	str.w	r1, [r0, #180]	; 0xb4
  400346:	4770      	bx	lr

00400348 <pio_configure_interrupt>:
  400348:	4b00      	ldr	r3, [pc, #0]	; (40034c <pio_configure_interrupt+0x4>)
  40034a:	4718      	bx	r3
  40034c:	00400321 	.word	0x00400321

00400350 <pio_handler_process>:
  400350:	b5f8      	push	{r3, r4, r5, r6, r7, lr}
  400352:	4b0f      	ldr	r3, [pc, #60]	; (400390 <pio_handler_process+0x40>)
  400354:	4604      	mov	r4, r0
  400356:	460e      	mov	r6, r1
  400358:	4798      	blx	r3
  40035a:	4b0e      	ldr	r3, [pc, #56]	; (400394 <pio_handler_process+0x44>)
  40035c:	4605      	mov	r5, r0
  40035e:	4620      	mov	r0, r4
  400360:	4798      	blx	r3
  400362:	4005      	ands	r5, r0
  400364:	d013      	beq.n	40038e <pio_handler_process+0x3e>
  400366:	4c0c      	ldr	r4, [pc, #48]	; (400398 <pio_handler_process+0x48>)
  400368:	f104 0760 	add.w	r7, r4, #96	; 0x60
  40036c:	6823      	ldr	r3, [r4, #0]
  40036e:	42b3      	cmp	r3, r6
  400370:	d108      	bne.n	400384 <pio_handler_process+0x34>
  400372:	6861      	ldr	r1, [r4, #4]
  400374:	4229      	tst	r1, r5
  400376:	d005      	beq.n	400384 <pio_handler_process+0x34>
  400378:	68e3      	ldr	r3, [r4, #12]
  40037a:	4630      	mov	r0, r6
  40037c:	4798      	blx	r3
  40037e:	6863      	ldr	r3, [r4, #4]
  400380:	ea25 0503 	bic.w	r5, r5, r3
  400384:	42bc      	cmp	r4, r7
  400386:	d002      	beq.n	40038e <pio_handler_process+0x3e>
  400388:	3410      	adds	r4, #16
  40038a:	2d00      	cmp	r5, #0
  40038c:	d1ee      	bne.n	40036c <pio_handler_process+0x1c>
  40038e:	bdf8      	pop	{r3, r4, r5, r6, r7, pc}
  400390:	00400319 	.word	0x00400319
  400394:	0040031d 	.word	0x0040031d
  400398:	20000a64 	.word	0x20000a64

0040039c <pio_handler_set>:
  40039c:	e92d 43f8 	stmdb	sp!, {r3, r4, r5, r6, r7, r8, r9, lr}
  4003a0:	4e16      	ldr	r6, [pc, #88]	; (4003fc <pio_handler_set+0x60>)
  4003a2:	6834      	ldr	r4, [r6, #0]
  4003a4:	2c06      	cmp	r4, #6
  4003a6:	4689      	mov	r9, r1
  4003a8:	46b4      	mov	ip, r6
  4003aa:	4611      	mov	r1, r2
  4003ac:	d823      	bhi.n	4003f6 <pio_handler_set+0x5a>
  4003ae:	4f14      	ldr	r7, [pc, #80]	; (400400 <pio_handler_set+0x64>)
  4003b0:	2600      	movs	r6, #0
  4003b2:	fa5f f886 	uxtb.w	r8, r6
  4003b6:	4544      	cmp	r4, r8
  4003b8:	d210      	bcs.n	4003dc <pio_handler_set+0x40>
  4003ba:	9a08      	ldr	r2, [sp, #32]
  4003bc:	60ab      	str	r3, [r5, #8]
  4003be:	3401      	adds	r4, #1
  4003c0:	60ea      	str	r2, [r5, #12]
  4003c2:	4544      	cmp	r4, r8
  4003c4:	461a      	mov	r2, r3
  4003c6:	f8c5 9000 	str.w	r9, [r5]
  4003ca:	6069      	str	r1, [r5, #4]
  4003cc:	4b0d      	ldr	r3, [pc, #52]	; (400404 <pio_handler_set+0x68>)
  4003ce:	bf08      	it	eq
  4003d0:	f8cc 8000 	streq.w	r8, [ip]
  4003d4:	4798      	blx	r3
  4003d6:	2000      	movs	r0, #0
  4003d8:	e8bd 83f8 	ldmia.w	sp!, {r3, r4, r5, r6, r7, r8, r9, pc}
  4003dc:	ea4f 1e08 	mov.w	lr, r8, lsl #4
  4003e0:	eb07 050e 	add.w	r5, r7, lr
  4003e4:	f857 200e 	ldr.w	r2, [r7, lr]
  4003e8:	454a      	cmp	r2, r9
  4003ea:	d102      	bne.n	4003f2 <pio_handler_set+0x56>
  4003ec:	686a      	ldr	r2, [r5, #4]
  4003ee:	428a      	cmp	r2, r1
  4003f0:	d0e3      	beq.n	4003ba <pio_handler_set+0x1e>
  4003f2:	3601      	adds	r6, #1
  4003f4:	e7dd      	b.n	4003b2 <pio_handler_set+0x16>
  4003f6:	2001      	movs	r0, #1
  4003f8:	e8bd 83f8 	ldmia.w	sp!, {r3, r4, r5, r6, r7, r8, r9, pc}
  4003fc:	20000ad4 	.word	0x20000ad4
  400400:	20000a64 	.word	0x20000a64
  400404:	00400349 	.word	0x00400349

00400408 <PIOA_Handler>:
  400408:	210b      	movs	r1, #11
  40040a:	4801      	ldr	r0, [pc, #4]	; (400410 <PIOA_Handler+0x8>)
  40040c:	4b01      	ldr	r3, [pc, #4]	; (400414 <PIOA_Handler+0xc>)
  40040e:	4718      	bx	r3
  400410:	400e0e00 	.word	0x400e0e00
  400414:	00400351 	.word	0x00400351

00400418 <PIOB_Handler>:
  400418:	210c      	movs	r1, #12
  40041a:	4801      	ldr	r0, [pc, #4]	; (400420 <PIOB_Handler+0x8>)
  40041c:	4b01      	ldr	r3, [pc, #4]	; (400424 <PIOB_Handler+0xc>)
  40041e:	4718      	bx	r3
  400420:	400e1000 	.word	0x400e1000
  400424:	00400351 	.word	0x00400351

00400428 <pio_handler_set_priority>:
  400428:	e92d 41f0 	stmdb	sp!, {r4, r5, r6, r7, r8, lr}
  40042c:	4b1a      	ldr	r3, [pc, #104]	; (400498 <pio_handler_set_priority+0x70>)
  40042e:	460c      	mov	r4, r1
  400430:	4606      	mov	r6, r0
  400432:	4615      	mov	r5, r2
  400434:	4798      	blx	r3
  400436:	f04f 31ff 	mov.w	r1, #4294967295
  40043a:	4607      	mov	r7, r0
  40043c:	4b17      	ldr	r3, [pc, #92]	; (40049c <pio_handler_set_priority+0x74>)
  40043e:	4630      	mov	r0, r6
  400440:	4798      	blx	r3
  400442:	4630      	mov	r0, r6
  400444:	4b16      	ldr	r3, [pc, #88]	; (4004a0 <pio_handler_set_priority+0x78>)
  400446:	4798      	blx	r3
  400448:	b2e0      	uxtb	r0, r4
  40044a:	f000 031f 	and.w	r3, r0, #31
  40044e:	2101      	movs	r1, #1
  400450:	4099      	lsls	r1, r3
  400452:	0963      	lsrs	r3, r4, #5
  400454:	009b      	lsls	r3, r3, #2
  400456:	2c00      	cmp	r4, #0
  400458:	f103 4360 	add.w	r3, r3, #3758096384	; 0xe0000000
  40045c:	ea4f 1205 	mov.w	r2, r5, lsl #4
  400460:	f503 4361 	add.w	r3, r3, #57600	; 0xe100
  400464:	bfae      	itee	ge
  400466:	f104 4460 	addge.w	r4, r4, #3758096384	; 0xe0000000
  40046a:	f000 000f 	andlt.w	r0, r0, #15
  40046e:	4c0d      	ldrlt	r4, [pc, #52]	; (4004a4 <pio_handler_set_priority+0x7c>)
  400470:	f8c3 1080 	str.w	r1, [r3, #128]	; 0x80
  400474:	bfac      	ite	ge
  400476:	f504 4461 	addge.w	r4, r4, #57600	; 0xe100
  40047a:	b2d2      	uxtblt	r2, r2
  40047c:	f8c3 1180 	str.w	r1, [r3, #384]	; 0x180
  400480:	bfaa      	itet	ge
  400482:	b2d2      	uxtbge	r2, r2
  400484:	5422      	strblt	r2, [r4, r0]
  400486:	f884 2300 	strbge.w	r2, [r4, #768]	; 0x300
  40048a:	6019      	str	r1, [r3, #0]
  40048c:	4630      	mov	r0, r6
  40048e:	4639      	mov	r1, r7
  400490:	4b05      	ldr	r3, [pc, #20]	; (4004a8 <pio_handler_set_priority+0x80>)
  400492:	e8bd 41f0 	ldmia.w	sp!, {r4, r5, r6, r7, r8, lr}
  400496:	4718      	bx	r3
  400498:	0040031d 	.word	0x0040031d
  40049c:	00400315 	.word	0x00400315
  4004a0:	00400319 	.word	0x00400319
  4004a4:	e000ed14 	.word	0xe000ed14
  4004a8:	00400311 	.word	0x00400311

004004ac <spi_set_peripheral_chip_select_value>:
  4004ac:	6843      	ldr	r3, [r0, #4]
  4004ae:	f423 3340 	bic.w	r3, r3, #196608	; 0x30000
  4004b2:	6043      	str	r3, [r0, #4]
  4004b4:	6843      	ldr	r3, [r0, #4]
  4004b6:	0409      	lsls	r1, r1, #16
  4004b8:	f401 3140 	and.w	r1, r1, #196608	; 0x30000
  4004bc:	4319      	orrs	r1, r3
  4004be:	6041      	str	r1, [r0, #4]
  4004c0:	4770      	bx	lr
	...

004004c4 <spi_read>:
  4004c4:	b510      	push	{r4, lr}
  4004c6:	f643 2399 	movw	r3, #15001	; 0x3a99
  4004ca:	6904      	ldr	r4, [r0, #16]
  4004cc:	07e4      	lsls	r4, r4, #31
  4004ce:	d508      	bpl.n	4004e2 <spi_read+0x1e>
  4004d0:	6883      	ldr	r3, [r0, #8]
  4004d2:	6840      	ldr	r0, [r0, #4]
  4004d4:	4c07      	ldr	r4, [pc, #28]	; (4004f4 <spi_read+0x30>)
  4004d6:	0780      	lsls	r0, r0, #30
  4004d8:	6023      	str	r3, [r4, #0]
  4004da:	d406      	bmi.n	4004ea <spi_read+0x26>
  4004dc:	800b      	strh	r3, [r1, #0]
  4004de:	2000      	movs	r0, #0
  4004e0:	bd10      	pop	{r4, pc}
  4004e2:	3b01      	subs	r3, #1
  4004e4:	d1f1      	bne.n	4004ca <spi_read+0x6>
  4004e6:	2001      	movs	r0, #1
  4004e8:	bd10      	pop	{r4, pc}
  4004ea:	f3c3 4003 	ubfx	r0, r3, #16, #4
  4004ee:	7010      	strb	r0, [r2, #0]
  4004f0:	e7f4      	b.n	4004dc <spi_read+0x18>
  4004f2:	bf00      	nop
  4004f4:	20000ad8 	.word	0x20000ad8

004004f8 <spi_write>:
  4004f8:	b530      	push	{r4, r5, lr}
  4004fa:	f643 2499 	movw	r4, #15001	; 0x3a99
  4004fe:	6905      	ldr	r5, [r0, #16]
  400500:	07ad      	lsls	r5, r5, #30
  400502:	d50c      	bpl.n	40051e <spi_write+0x26>
  400504:	6844      	ldr	r4, [r0, #4]
  400506:	07a4      	lsls	r4, r4, #30
  400508:	d506      	bpl.n	400518 <spi_write+0x20>
  40050a:	0412      	lsls	r2, r2, #16
  40050c:	f402 2270 	and.w	r2, r2, #983040	; 0xf0000
  400510:	4311      	orrs	r1, r2
  400512:	b10b      	cbz	r3, 400518 <spi_write+0x20>
  400514:	f041 7180 	orr.w	r1, r1, #16777216	; 0x1000000
  400518:	60c1      	str	r1, [r0, #12]
  40051a:	2000      	movs	r0, #0
  40051c:	bd30      	pop	{r4, r5, pc}
  40051e:	3c01      	subs	r4, #1
  400520:	d1ed      	bne.n	4004fe <spi_write+0x6>
  400522:	2001      	movs	r0, #1
  400524:	bd30      	pop	{r4, r5, pc}

00400526 <spi_set_clock_polarity>:
  400526:	0089      	lsls	r1, r1, #2
  400528:	4408      	add	r0, r1
  40052a:	6b03      	ldr	r3, [r0, #48]	; 0x30
  40052c:	b11a      	cbz	r2, 400536 <spi_set_clock_polarity+0x10>
  40052e:	f043 0301 	orr.w	r3, r3, #1
  400532:	6303      	str	r3, [r0, #48]	; 0x30
  400534:	4770      	bx	lr
  400536:	f023 0301 	bic.w	r3, r3, #1
  40053a:	e7fa      	b.n	400532 <spi_set_clock_polarity+0xc>

0040053c <spi_set_clock_phase>:
  40053c:	0089      	lsls	r1, r1, #2
  40053e:	4408      	add	r0, r1
  400540:	6b03      	ldr	r3, [r0, #48]	; 0x30
  400542:	b11a      	cbz	r2, 40054c <spi_set_clock_phase+0x10>
  400544:	f043 0302 	orr.w	r3, r3, #2
  400548:	6303      	str	r3, [r0, #48]	; 0x30
  40054a:	4770      	bx	lr
  40054c:	f023 0302 	bic.w	r3, r3, #2
  400550:	e7fa      	b.n	400548 <spi_set_clock_phase+0xc>

00400552 <spi_set_bits_per_transfer>:
  400552:	eb00 0181 	add.w	r1, r0, r1, lsl #2
  400556:	6b0b      	ldr	r3, [r1, #48]	; 0x30
  400558:	f023 03f0 	bic.w	r3, r3, #240	; 0xf0
  40055c:	630b      	str	r3, [r1, #48]	; 0x30
  40055e:	6b0b      	ldr	r3, [r1, #48]	; 0x30
  400560:	431a      	orrs	r2, r3
  400562:	630a      	str	r2, [r1, #48]	; 0x30
  400564:	4770      	bx	lr

00400566 <spi_set_baudrate_div>:
  400566:	b15a      	cbz	r2, 400580 <spi_set_baudrate_div+0x1a>
  400568:	eb00 0181 	add.w	r1, r0, r1, lsl #2
  40056c:	2000      	movs	r0, #0
  40056e:	6b0b      	ldr	r3, [r1, #48]	; 0x30
  400570:	f423 437f 	bic.w	r3, r3, #65280	; 0xff00
  400574:	630b      	str	r3, [r1, #48]	; 0x30
  400576:	6b0b      	ldr	r3, [r1, #48]	; 0x30
  400578:	ea43 2202 	orr.w	r2, r3, r2, lsl #8
  40057c:	630a      	str	r2, [r1, #48]	; 0x30
  40057e:	4770      	bx	lr
  400580:	f04f 30ff 	mov.w	r0, #4294967295
  400584:	4770      	bx	lr

00400586 <spi_set_transfer_delay>:
  400586:	b510      	push	{r4, lr}
  400588:	eb00 0181 	add.w	r1, r0, r1, lsl #2
  40058c:	6b08      	ldr	r0, [r1, #48]	; 0x30
  40058e:	b280      	uxth	r0, r0
  400590:	6308      	str	r0, [r1, #48]	; 0x30
  400592:	6b0c      	ldr	r4, [r1, #48]	; 0x30
  400594:	ea44 6303 	orr.w	r3, r4, r3, lsl #24
  400598:	ea43 4302 	orr.w	r3, r3, r2, lsl #16
  40059c:	630b      	str	r3, [r1, #48]	; 0x30
  40059e:	bd10      	pop	{r4, pc}

004005a0 <usart_set_async_baudrate>:
  4005a0:	ebb2 1f01 	cmp.w	r2, r1, lsl #4
  4005a4:	b530      	push	{r4, r5, lr}
  4005a6:	bf2c      	ite	cs
  4005a8:	2410      	movcs	r4, #16
  4005aa:	2408      	movcc	r4, #8
  4005ac:	4361      	muls	r1, r4
  4005ae:	084b      	lsrs	r3, r1, #1
  4005b0:	eb03 02c2 	add.w	r2, r3, r2, lsl #3
  4005b4:	fbb2 f2f1 	udiv	r2, r2, r1
  4005b8:	08d1      	lsrs	r1, r2, #3
  4005ba:	1e4d      	subs	r5, r1, #1
  4005bc:	f64f 73fe 	movw	r3, #65534	; 0xfffe
  4005c0:	429d      	cmp	r5, r3
  4005c2:	d810      	bhi.n	4005e6 <usart_set_async_baudrate+0x46>
  4005c4:	2c08      	cmp	r4, #8
  4005c6:	bf08      	it	eq
  4005c8:	6843      	ldreq	r3, [r0, #4]
  4005ca:	ea4f 4202 	mov.w	r2, r2, lsl #16
  4005ce:	f402 22e0 	and.w	r2, r2, #458752	; 0x70000
  4005d2:	bf08      	it	eq
  4005d4:	f443 2300 	orreq.w	r3, r3, #524288	; 0x80000
  4005d8:	ea42 0201 	orr.w	r2, r2, r1
  4005dc:	bf08      	it	eq
  4005de:	6043      	streq	r3, [r0, #4]
  4005e0:	6202      	str	r2, [r0, #32]
  4005e2:	2000      	movs	r0, #0
  4005e4:	bd30      	pop	{r4, r5, pc}
  4005e6:	2001      	movs	r0, #1
  4005e8:	bd30      	pop	{r4, r5, pc}
	...

004005ec <usart_reset>:
  4005ec:	4b08      	ldr	r3, [pc, #32]	; (400610 <usart_reset+0x24>)
  4005ee:	f8c0 30e4 	str.w	r3, [r0, #228]	; 0xe4
  4005f2:	2300      	movs	r3, #0
  4005f4:	6043      	str	r3, [r0, #4]
  4005f6:	6243      	str	r3, [r0, #36]	; 0x24
  4005f8:	6283      	str	r3, [r0, #40]	; 0x28
  4005fa:	2388      	movs	r3, #136	; 0x88
  4005fc:	6003      	str	r3, [r0, #0]
  4005fe:	2324      	movs	r3, #36	; 0x24
  400600:	6003      	str	r3, [r0, #0]
  400602:	f44f 7380 	mov.w	r3, #256	; 0x100
  400606:	6003      	str	r3, [r0, #0]
  400608:	f44f 2300 	mov.w	r3, #524288	; 0x80000
  40060c:	6003      	str	r3, [r0, #0]
  40060e:	4770      	bx	lr
  400610:	55534100 	.word	0x55534100

00400614 <usart_init_rs232>:
  400614:	b570      	push	{r4, r5, r6, lr}
  400616:	4b0d      	ldr	r3, [pc, #52]	; (40064c <usart_init_rs232+0x38>)
  400618:	4e0d      	ldr	r6, [pc, #52]	; (400650 <usart_init_rs232+0x3c>)
  40061a:	4605      	mov	r5, r0
  40061c:	460c      	mov	r4, r1
  40061e:	4798      	blx	r3
  400620:	2300      	movs	r3, #0
  400622:	6033      	str	r3, [r6, #0]
  400624:	b909      	cbnz	r1, 40062a <usart_init_rs232+0x16>
  400626:	2001      	movs	r0, #1
  400628:	bd70      	pop	{r4, r5, r6, pc}
  40062a:	6809      	ldr	r1, [r1, #0]
  40062c:	4b09      	ldr	r3, [pc, #36]	; (400654 <usart_init_rs232+0x40>)
  40062e:	4798      	blx	r3
  400630:	2800      	cmp	r0, #0
  400632:	d1f8      	bne.n	400626 <usart_init_rs232+0x12>
  400634:	68a2      	ldr	r2, [r4, #8]
  400636:	6863      	ldr	r3, [r4, #4]
  400638:	4313      	orrs	r3, r2
  40063a:	6922      	ldr	r2, [r4, #16]
  40063c:	4313      	orrs	r3, r2
  40063e:	68e2      	ldr	r2, [r4, #12]
  400640:	4313      	orrs	r3, r2
  400642:	686a      	ldr	r2, [r5, #4]
  400644:	6033      	str	r3, [r6, #0]
  400646:	4313      	orrs	r3, r2
  400648:	606b      	str	r3, [r5, #4]
  40064a:	bd70      	pop	{r4, r5, r6, pc}
  40064c:	004005ed 	.word	0x004005ed
  400650:	20000adc 	.word	0x20000adc
  400654:	004005a1 	.word	0x004005a1

00400658 <usart_enable_tx>:
  400658:	2340      	movs	r3, #64	; 0x40
  40065a:	6003      	str	r3, [r0, #0]
  40065c:	4770      	bx	lr

0040065e <usart_enable_rx>:
  40065e:	2310      	movs	r3, #16
  400660:	6003      	str	r3, [r0, #0]
  400662:	4770      	bx	lr

00400664 <usart_enable_interrupt>:
  400664:	6081      	str	r1, [r0, #8]
  400666:	4770      	bx	lr

00400668 <usart_get_status>:
  400668:	6940      	ldr	r0, [r0, #20]
  40066a:	4770      	bx	lr

0040066c <usart_write>:
  40066c:	6943      	ldr	r3, [r0, #20]
  40066e:	079b      	lsls	r3, r3, #30
  400670:	bf43      	ittte	mi
  400672:	f3c1 0108 	ubfxmi	r1, r1, #0, #9
  400676:	61c1      	strmi	r1, [r0, #28]
  400678:	2000      	movmi	r0, #0
  40067a:	2001      	movpl	r0, #1
  40067c:	4770      	bx	lr

0040067e <usart_read>:
  40067e:	6943      	ldr	r3, [r0, #20]
  400680:	07db      	lsls	r3, r3, #31
  400682:	bf41      	itttt	mi
  400684:	6983      	ldrmi	r3, [r0, #24]
  400686:	f3c3 0308 	ubfxmi	r3, r3, #0, #9
  40068a:	2000      	movmi	r0, #0
  40068c:	600b      	strmi	r3, [r1, #0]
  40068e:	bf58      	it	pl
  400690:	2001      	movpl	r0, #1
  400692:	4770      	bx	lr

00400694 <usart_get_pdc_base>:
  400694:	4b18      	ldr	r3, [pc, #96]	; (4006f8 <usart_get_pdc_base+0x64>)
  400696:	4298      	cmp	r0, r3
  400698:	d01f      	beq.n	4006da <usart_get_pdc_base+0x46>
  40069a:	f503 33a0 	add.w	r3, r3, #81920	; 0x14000
  40069e:	4298      	cmp	r0, r3
  4006a0:	d01d      	beq.n	4006de <usart_get_pdc_base+0x4a>
  4006a2:	f503 4380 	add.w	r3, r3, #16384	; 0x4000
  4006a6:	4298      	cmp	r0, r3
  4006a8:	d01b      	beq.n	4006e2 <usart_get_pdc_base+0x4e>
  4006aa:	f5a3 4340 	sub.w	r3, r3, #49152	; 0xc000
  4006ae:	4298      	cmp	r0, r3
  4006b0:	d019      	beq.n	4006e6 <usart_get_pdc_base+0x52>
  4006b2:	f503 4380 	add.w	r3, r3, #16384	; 0x4000
  4006b6:	4298      	cmp	r0, r3
  4006b8:	d017      	beq.n	4006ea <usart_get_pdc_base+0x56>
  4006ba:	f5a3 33a0 	sub.w	r3, r3, #81920	; 0x14000
  4006be:	4298      	cmp	r0, r3
  4006c0:	d015      	beq.n	4006ee <usart_get_pdc_base+0x5a>
  4006c2:	f503 3360 	add.w	r3, r3, #229376	; 0x38000
  4006c6:	4298      	cmp	r0, r3
  4006c8:	d013      	beq.n	4006f2 <usart_get_pdc_base+0x5e>
  4006ca:	4a0c      	ldr	r2, [pc, #48]	; (4006fc <usart_get_pdc_base+0x68>)
  4006cc:	f5a3 433f 	sub.w	r3, r3, #48896	; 0xbf00
  4006d0:	4290      	cmp	r0, r2
  4006d2:	bf0c      	ite	eq
  4006d4:	4618      	moveq	r0, r3
  4006d6:	2000      	movne	r0, #0
  4006d8:	4770      	bx	lr
  4006da:	4809      	ldr	r0, [pc, #36]	; (400700 <usart_get_pdc_base+0x6c>)
  4006dc:	4770      	bx	lr
  4006de:	4809      	ldr	r0, [pc, #36]	; (400704 <usart_get_pdc_base+0x70>)
  4006e0:	4770      	bx	lr
  4006e2:	4809      	ldr	r0, [pc, #36]	; (400708 <usart_get_pdc_base+0x74>)
  4006e4:	4770      	bx	lr
  4006e6:	4809      	ldr	r0, [pc, #36]	; (40070c <usart_get_pdc_base+0x78>)
  4006e8:	4770      	bx	lr
  4006ea:	4809      	ldr	r0, [pc, #36]	; (400710 <usart_get_pdc_base+0x7c>)
  4006ec:	4770      	bx	lr
  4006ee:	4809      	ldr	r0, [pc, #36]	; (400714 <usart_get_pdc_base+0x80>)
  4006f0:	4770      	bx	lr
  4006f2:	4809      	ldr	r0, [pc, #36]	; (400718 <usart_get_pdc_base+0x84>)
  4006f4:	4770      	bx	lr
  4006f6:	bf00      	nop
  4006f8:	4000c200 	.word	0x4000c200
  4006fc:	40034200 	.word	0x40034200
  400700:	4000c300 	.word	0x4000c300
  400704:	40020300 	.word	0x40020300
  400708:	40024300 	.word	0x40024300
  40070c:	40018300 	.word	0x40018300
  400710:	4001c300 	.word	0x4001c300
  400714:	40008300 	.word	0x40008300
  400718:	40040300 	.word	0x40040300

0040071c <vListInitialise>:
  40071c:	f100 0308 	add.w	r3, r0, #8
  400720:	6043      	str	r3, [r0, #4]
  400722:	f04f 32ff 	mov.w	r2, #4294967295
  400726:	60c3      	str	r3, [r0, #12]
  400728:	6103      	str	r3, [r0, #16]
  40072a:	2300      	movs	r3, #0
  40072c:	6082      	str	r2, [r0, #8]
  40072e:	6003      	str	r3, [r0, #0]
  400730:	4770      	bx	lr

00400732 <vListInitialiseItem>:
  400732:	2300      	movs	r3, #0
  400734:	6103      	str	r3, [r0, #16]
  400736:	4770      	bx	lr

00400738 <vListInsertEnd>:
  400738:	6843      	ldr	r3, [r0, #4]
  40073a:	604b      	str	r3, [r1, #4]
  40073c:	689a      	ldr	r2, [r3, #8]
  40073e:	608a      	str	r2, [r1, #8]
  400740:	689a      	ldr	r2, [r3, #8]
  400742:	6051      	str	r1, [r2, #4]
  400744:	6099      	str	r1, [r3, #8]
  400746:	6108      	str	r0, [r1, #16]
  400748:	6803      	ldr	r3, [r0, #0]
  40074a:	3301      	adds	r3, #1
  40074c:	6003      	str	r3, [r0, #0]
  40074e:	4770      	bx	lr

00400750 <vListInsert>:
  400750:	680a      	ldr	r2, [r1, #0]
  400752:	1c53      	adds	r3, r2, #1
  400754:	b530      	push	{r4, r5, lr}
  400756:	d10a      	bne.n	40076e <vListInsert+0x1e>
  400758:	6903      	ldr	r3, [r0, #16]
  40075a:	685a      	ldr	r2, [r3, #4]
  40075c:	604a      	str	r2, [r1, #4]
  40075e:	6091      	str	r1, [r2, #8]
  400760:	608b      	str	r3, [r1, #8]
  400762:	6059      	str	r1, [r3, #4]
  400764:	6108      	str	r0, [r1, #16]
  400766:	6803      	ldr	r3, [r0, #0]
  400768:	3301      	adds	r3, #1
  40076a:	6003      	str	r3, [r0, #0]
  40076c:	bd30      	pop	{r4, r5, pc}
  40076e:	f100 0308 	add.w	r3, r0, #8
  400772:	685c      	ldr	r4, [r3, #4]
  400774:	6825      	ldr	r5, [r4, #0]
  400776:	42aa      	cmp	r2, r5
  400778:	d3ef      	bcc.n	40075a <vListInsert+0xa>
  40077a:	4623      	mov	r3, r4
  40077c:	e7f9      	b.n	400772 <vListInsert+0x22>

0040077e <uxListRemove>:
  40077e:	6842      	ldr	r2, [r0, #4]
  400780:	6881      	ldr	r1, [r0, #8]
  400782:	6903      	ldr	r3, [r0, #16]
  400784:	6091      	str	r1, [r2, #8]
  400786:	6882      	ldr	r2, [r0, #8]
  400788:	6841      	ldr	r1, [r0, #4]
  40078a:	6051      	str	r1, [r2, #4]
  40078c:	685a      	ldr	r2, [r3, #4]
  40078e:	4290      	cmp	r0, r2
  400790:	bf04      	itt	eq
  400792:	6882      	ldreq	r2, [r0, #8]
  400794:	605a      	streq	r2, [r3, #4]
  400796:	2200      	movs	r2, #0
  400798:	6102      	str	r2, [r0, #16]
  40079a:	6818      	ldr	r0, [r3, #0]
  40079c:	3801      	subs	r0, #1
  40079e:	6018      	str	r0, [r3, #0]
  4007a0:	4770      	bx	lr
	...

004007a4 <prvPortStartFirstTask>:
  4007a4:	4805      	ldr	r0, [pc, #20]	; (4007bc <prvPortStartFirstTask+0x18>)
  4007a6:	6800      	ldr	r0, [r0, #0]
  4007a8:	6800      	ldr	r0, [r0, #0]
  4007aa:	f380 8808 	msr	MSP, r0
  4007ae:	b662      	cpsie	i
  4007b0:	f3bf 8f4f 	dsb	sy
  4007b4:	f3bf 8f6f 	isb	sy
  4007b8:	df00      	svc	0
  4007ba:	bf00      	nop
  4007bc:	e000ed08 	.word	0xe000ed08

004007c0 <vPortEnableVFP>:
  4007c0:	f8df 000c 	ldr.w	r0, [pc, #12]	; 4007d0 <vPortEnableVFP+0x10>
  4007c4:	6801      	ldr	r1, [r0, #0]
  4007c6:	f441 0170 	orr.w	r1, r1, #15728640	; 0xf00000
  4007ca:	6001      	str	r1, [r0, #0]
  4007cc:	4770      	bx	lr
  4007ce:	0000      	.short	0x0000
  4007d0:	e000ed88 	.word	0xe000ed88

004007d4 <pxPortInitialiseStack>:
  4007d4:	f04f 7380 	mov.w	r3, #16777216	; 0x1000000
  4007d8:	e900 000a 	stmdb	r0, {r1, r3}
  4007dc:	4b05      	ldr	r3, [pc, #20]	; (4007f4 <pxPortInitialiseStack+0x20>)
  4007de:	f840 3c0c 	str.w	r3, [r0, #-12]
  4007e2:	f06f 0302 	mvn.w	r3, #2
  4007e6:	f840 2c20 	str.w	r2, [r0, #-32]
  4007ea:	f840 3c24 	str.w	r3, [r0, #-36]
  4007ee:	3844      	subs	r0, #68	; 0x44
  4007f0:	4770      	bx	lr
  4007f2:	bf00      	nop
  4007f4:	00400841 	.word	0x00400841

004007f8 <SVC_Handler>:
  4007f8:	4b06      	ldr	r3, [pc, #24]	; (400814 <pxCurrentTCBConst2>)
  4007fa:	6819      	ldr	r1, [r3, #0]
  4007fc:	6808      	ldr	r0, [r1, #0]
  4007fe:	e8b0 4ff0 	ldmia.w	r0!, {r4, r5, r6, r7, r8, r9, sl, fp, lr}
  400802:	f380 8809 	msr	PSP, r0
  400806:	f3bf 8f6f 	isb	sy
  40080a:	f04f 0000 	mov.w	r0, #0
  40080e:	f380 8811 	msr	BASEPRI, r0
  400812:	4770      	bx	lr

00400814 <pxCurrentTCBConst2>:
  400814:	200136fc 	.word	0x200136fc

00400818 <vPortYield>:
  400818:	4b04      	ldr	r3, [pc, #16]	; (40082c <vPortYield+0x14>)
  40081a:	f04f 5280 	mov.w	r2, #268435456	; 0x10000000
  40081e:	601a      	str	r2, [r3, #0]
  400820:	f3bf 8f4f 	dsb	sy
  400824:	f3bf 8f6f 	isb	sy
  400828:	4770      	bx	lr
  40082a:	bf00      	nop
  40082c:	e000ed04 	.word	0xe000ed04

00400830 <ulPortSetInterruptMask>:
  400830:	f3ef 8011 	mrs	r0, BASEPRI
  400834:	f04f 01a0 	mov.w	r1, #160	; 0xa0
  400838:	f381 8811 	msr	BASEPRI, r1
  40083c:	4770      	bx	lr
  40083e:	2000      	movs	r0, #0

00400840 <prvTaskExitError>:
  400840:	b508      	push	{r3, lr}
  400842:	4b04      	ldr	r3, [pc, #16]	; (400854 <prvTaskExitError+0x14>)
  400844:	681b      	ldr	r3, [r3, #0]
  400846:	3301      	adds	r3, #1
  400848:	4b03      	ldr	r3, [pc, #12]	; (400858 <prvTaskExitError+0x18>)
  40084a:	d001      	beq.n	400850 <prvTaskExitError+0x10>
  40084c:	4798      	blx	r3
  40084e:	e7fe      	b.n	40084e <prvTaskExitError+0xe>
  400850:	4798      	blx	r3
  400852:	e7fe      	b.n	400852 <prvTaskExitError+0x12>
  400854:	20000084 	.word	0x20000084
  400858:	00400831 	.word	0x00400831

0040085c <vPortEnterCritical>:
  40085c:	b508      	push	{r3, lr}
  40085e:	4b05      	ldr	r3, [pc, #20]	; (400874 <vPortEnterCritical+0x18>)
  400860:	4798      	blx	r3
  400862:	4a05      	ldr	r2, [pc, #20]	; (400878 <vPortEnterCritical+0x1c>)
  400864:	6813      	ldr	r3, [r2, #0]
  400866:	3301      	adds	r3, #1
  400868:	6013      	str	r3, [r2, #0]
  40086a:	f3bf 8f4f 	dsb	sy
  40086e:	f3bf 8f6f 	isb	sy
  400872:	bd08      	pop	{r3, pc}
  400874:	00400831 	.word	0x00400831
  400878:	20000084 	.word	0x20000084

0040087c <vPortClearInterruptMask>:
  40087c:	f380 8811 	msr	BASEPRI, r0
  400880:	4770      	bx	lr
	...

00400884 <vPortExitCritical>:
  400884:	b510      	push	{r4, lr}
  400886:	4b07      	ldr	r3, [pc, #28]	; (4008a4 <vPortExitCritical+0x20>)
  400888:	6818      	ldr	r0, [r3, #0]
  40088a:	b910      	cbnz	r0, 400892 <vPortExitCritical+0xe>
  40088c:	4b06      	ldr	r3, [pc, #24]	; (4008a8 <vPortExitCritical+0x24>)
  40088e:	4798      	blx	r3
  400890:	e7fe      	b.n	400890 <vPortExitCritical+0xc>
  400892:	3801      	subs	r0, #1
  400894:	6018      	str	r0, [r3, #0]
  400896:	b918      	cbnz	r0, 4008a0 <vPortExitCritical+0x1c>
  400898:	4b04      	ldr	r3, [pc, #16]	; (4008ac <vPortExitCritical+0x28>)
  40089a:	e8bd 4010 	ldmia.w	sp!, {r4, lr}
  40089e:	4718      	bx	r3
  4008a0:	bd10      	pop	{r4, pc}
  4008a2:	bf00      	nop
  4008a4:	20000084 	.word	0x20000084
  4008a8:	00400831 	.word	0x00400831
  4008ac:	0040087d 	.word	0x0040087d

004008b0 <PendSV_Handler>:
  4008b0:	f3ef 8009 	mrs	r0, PSP
  4008b4:	f3bf 8f6f 	isb	sy
  4008b8:	4b12      	ldr	r3, [pc, #72]	; (400904 <pxCurrentTCBConst>)
  4008ba:	681a      	ldr	r2, [r3, #0]
  4008bc:	f01e 0f10 	tst.w	lr, #16
  4008c0:	bf08      	it	eq
  4008c2:	ed20 8a10 	vstmdbeq	r0!, {s16-s31}
  4008c6:	e920 4ff0 	stmdb	r0!, {r4, r5, r6, r7, r8, r9, sl, fp, lr}
  4008ca:	6010      	str	r0, [r2, #0]
  4008cc:	f84d 3d04 	str.w	r3, [sp, #-4]!
  4008d0:	f04f 00a0 	mov.w	r0, #160	; 0xa0
  4008d4:	f380 8811 	msr	BASEPRI, r0
  4008d8:	f000 fefc 	bl	4016d4 <vTaskSwitchContext>
  4008dc:	f04f 0000 	mov.w	r0, #0
  4008e0:	f380 8811 	msr	BASEPRI, r0
  4008e4:	bc08      	pop	{r3}
  4008e6:	6819      	ldr	r1, [r3, #0]
  4008e8:	6808      	ldr	r0, [r1, #0]
  4008ea:	e8b0 4ff0 	ldmia.w	r0!, {r4, r5, r6, r7, r8, r9, sl, fp, lr}
  4008ee:	f01e 0f10 	tst.w	lr, #16
  4008f2:	bf08      	it	eq
  4008f4:	ecb0 8a10 	vldmiaeq	r0!, {s16-s31}
  4008f8:	f380 8809 	msr	PSP, r0
  4008fc:	f3bf 8f6f 	isb	sy
  400900:	4770      	bx	lr
  400902:	bf00      	nop

00400904 <pxCurrentTCBConst>:
  400904:	200136fc 	.word	0x200136fc

00400908 <SysTick_Handler>:
  400908:	b510      	push	{r4, lr}
  40090a:	4b07      	ldr	r3, [pc, #28]	; (400928 <SysTick_Handler+0x20>)
  40090c:	4798      	blx	r3
  40090e:	4b07      	ldr	r3, [pc, #28]	; (40092c <SysTick_Handler+0x24>)
  400910:	4798      	blx	r3
  400912:	b118      	cbz	r0, 40091c <SysTick_Handler+0x14>
  400914:	4b06      	ldr	r3, [pc, #24]	; (400930 <SysTick_Handler+0x28>)
  400916:	f04f 5280 	mov.w	r2, #268435456	; 0x10000000
  40091a:	601a      	str	r2, [r3, #0]
  40091c:	2000      	movs	r0, #0
  40091e:	4b05      	ldr	r3, [pc, #20]	; (400934 <SysTick_Handler+0x2c>)
  400920:	e8bd 4010 	ldmia.w	sp!, {r4, lr}
  400924:	4718      	bx	r3
  400926:	bf00      	nop
  400928:	00400831 	.word	0x00400831
  40092c:	00401445 	.word	0x00401445
  400930:	e000ed04 	.word	0xe000ed04
  400934:	0040087d 	.word	0x0040087d

00400938 <vPortSetupTimerInterrupt>:
  400938:	4b03      	ldr	r3, [pc, #12]	; (400948 <vPortSetupTimerInterrupt+0x10>)
  40093a:	f641 723f 	movw	r2, #7999	; 0x1f3f
  40093e:	601a      	str	r2, [r3, #0]
  400940:	2207      	movs	r2, #7
  400942:	f843 2c04 	str.w	r2, [r3, #-4]
  400946:	4770      	bx	lr
  400948:	e000e014 	.word	0xe000e014

0040094c <xPortStartScheduler>:
  40094c:	b513      	push	{r0, r1, r4, lr}
  40094e:	4b23      	ldr	r3, [pc, #140]	; (4009dc <xPortStartScheduler+0x90>)
  400950:	781a      	ldrb	r2, [r3, #0]
  400952:	b2d2      	uxtb	r2, r2
  400954:	9201      	str	r2, [sp, #4]
  400956:	22ff      	movs	r2, #255	; 0xff
  400958:	701a      	strb	r2, [r3, #0]
  40095a:	781b      	ldrb	r3, [r3, #0]
  40095c:	4a20      	ldr	r2, [pc, #128]	; (4009e0 <xPortStartScheduler+0x94>)
  40095e:	b2db      	uxtb	r3, r3
  400960:	f88d 3003 	strb.w	r3, [sp, #3]
  400964:	f89d 3003 	ldrb.w	r3, [sp, #3]
  400968:	f003 03a0 	and.w	r3, r3, #160	; 0xa0
  40096c:	7013      	strb	r3, [r2, #0]
  40096e:	4b1d      	ldr	r3, [pc, #116]	; (4009e4 <xPortStartScheduler+0x98>)
  400970:	2207      	movs	r2, #7
  400972:	601a      	str	r2, [r3, #0]
  400974:	2100      	movs	r1, #0
  400976:	f89d 0003 	ldrb.w	r0, [sp, #3]
  40097a:	0600      	lsls	r0, r0, #24
  40097c:	f102 34ff 	add.w	r4, r2, #4294967295
  400980:	d423      	bmi.n	4009ca <xPortStartScheduler+0x7e>
  400982:	b101      	cbz	r1, 400986 <xPortStartScheduler+0x3a>
  400984:	601a      	str	r2, [r3, #0]
  400986:	681a      	ldr	r2, [r3, #0]
  400988:	0212      	lsls	r2, r2, #8
  40098a:	f402 62e0 	and.w	r2, r2, #1792	; 0x700
  40098e:	601a      	str	r2, [r3, #0]
  400990:	9b01      	ldr	r3, [sp, #4]
  400992:	4a12      	ldr	r2, [pc, #72]	; (4009dc <xPortStartScheduler+0x90>)
  400994:	b2db      	uxtb	r3, r3
  400996:	7013      	strb	r3, [r2, #0]
  400998:	4b13      	ldr	r3, [pc, #76]	; (4009e8 <xPortStartScheduler+0x9c>)
  40099a:	681a      	ldr	r2, [r3, #0]
  40099c:	f442 0270 	orr.w	r2, r2, #15728640	; 0xf00000
  4009a0:	601a      	str	r2, [r3, #0]
  4009a2:	681a      	ldr	r2, [r3, #0]
  4009a4:	f042 4270 	orr.w	r2, r2, #4026531840	; 0xf0000000
  4009a8:	601a      	str	r2, [r3, #0]
  4009aa:	4b10      	ldr	r3, [pc, #64]	; (4009ec <xPortStartScheduler+0xa0>)
  4009ac:	4798      	blx	r3
  4009ae:	4b10      	ldr	r3, [pc, #64]	; (4009f0 <xPortStartScheduler+0xa4>)
  4009b0:	2200      	movs	r2, #0
  4009b2:	601a      	str	r2, [r3, #0]
  4009b4:	4b0f      	ldr	r3, [pc, #60]	; (4009f4 <xPortStartScheduler+0xa8>)
  4009b6:	4798      	blx	r3
  4009b8:	4a0f      	ldr	r2, [pc, #60]	; (4009f8 <xPortStartScheduler+0xac>)
  4009ba:	6813      	ldr	r3, [r2, #0]
  4009bc:	f043 4340 	orr.w	r3, r3, #3221225472	; 0xc0000000
  4009c0:	6013      	str	r3, [r2, #0]
  4009c2:	4b0e      	ldr	r3, [pc, #56]	; (4009fc <xPortStartScheduler+0xb0>)
  4009c4:	4798      	blx	r3
  4009c6:	4b0e      	ldr	r3, [pc, #56]	; (400a00 <xPortStartScheduler+0xb4>)
  4009c8:	4798      	blx	r3
  4009ca:	f89d 2003 	ldrb.w	r2, [sp, #3]
  4009ce:	0052      	lsls	r2, r2, #1
  4009d0:	b2d2      	uxtb	r2, r2
  4009d2:	f88d 2003 	strb.w	r2, [sp, #3]
  4009d6:	2101      	movs	r1, #1
  4009d8:	4622      	mov	r2, r4
  4009da:	e7cc      	b.n	400976 <xPortStartScheduler+0x2a>
  4009dc:	e000e400 	.word	0xe000e400
  4009e0:	20000ae0 	.word	0x20000ae0
  4009e4:	20000ae4 	.word	0x20000ae4
  4009e8:	e000ed20 	.word	0xe000ed20
  4009ec:	00400939 	.word	0x00400939
  4009f0:	20000084 	.word	0x20000084
  4009f4:	004007c1 	.word	0x004007c1
  4009f8:	e000ef34 	.word	0xe000ef34
  4009fc:	004007a5 	.word	0x004007a5
  400a00:	00400841 	.word	0x00400841

00400a04 <vPortValidateInterruptPriority>:
  400a04:	b508      	push	{r3, lr}
  400a06:	f3ef 8305 	mrs	r3, IPSR
  400a0a:	2b0f      	cmp	r3, #15
  400a0c:	d908      	bls.n	400a20 <vPortValidateInterruptPriority+0x1c>
  400a0e:	4a0a      	ldr	r2, [pc, #40]	; (400a38 <vPortValidateInterruptPriority+0x34>)
  400a10:	5c9b      	ldrb	r3, [r3, r2]
  400a12:	4a0a      	ldr	r2, [pc, #40]	; (400a3c <vPortValidateInterruptPriority+0x38>)
  400a14:	7812      	ldrb	r2, [r2, #0]
  400a16:	429a      	cmp	r2, r3
  400a18:	d902      	bls.n	400a20 <vPortValidateInterruptPriority+0x1c>
  400a1a:	4b09      	ldr	r3, [pc, #36]	; (400a40 <vPortValidateInterruptPriority+0x3c>)
  400a1c:	4798      	blx	r3
  400a1e:	e7fe      	b.n	400a1e <vPortValidateInterruptPriority+0x1a>
  400a20:	4b08      	ldr	r3, [pc, #32]	; (400a44 <vPortValidateInterruptPriority+0x40>)
  400a22:	4a09      	ldr	r2, [pc, #36]	; (400a48 <vPortValidateInterruptPriority+0x44>)
  400a24:	681b      	ldr	r3, [r3, #0]
  400a26:	6812      	ldr	r2, [r2, #0]
  400a28:	f403 63e0 	and.w	r3, r3, #1792	; 0x700
  400a2c:	4293      	cmp	r3, r2
  400a2e:	d902      	bls.n	400a36 <vPortValidateInterruptPriority+0x32>
  400a30:	4b03      	ldr	r3, [pc, #12]	; (400a40 <vPortValidateInterruptPriority+0x3c>)
  400a32:	4798      	blx	r3
  400a34:	e7fe      	b.n	400a34 <vPortValidateInterruptPriority+0x30>
  400a36:	bd08      	pop	{r3, pc}
  400a38:	e000e3f0 	.word	0xe000e3f0
  400a3c:	20000ae0 	.word	0x20000ae0
  400a40:	00400831 	.word	0x00400831
  400a44:	e000ed0c 	.word	0xe000ed0c
  400a48:	20000ae4 	.word	0x20000ae4

00400a4c <pvPortMalloc>:
  400a4c:	b570      	push	{r4, r5, r6, lr}
  400a4e:	4b27      	ldr	r3, [pc, #156]	; (400aec <pvPortMalloc+0xa0>)
  400a50:	4604      	mov	r4, r0
  400a52:	4798      	blx	r3
  400a54:	4826      	ldr	r0, [pc, #152]	; (400af0 <pvPortMalloc+0xa4>)
  400a56:	6801      	ldr	r1, [r0, #0]
  400a58:	b969      	cbnz	r1, 400a76 <pvPortMalloc+0x2a>
  400a5a:	4b26      	ldr	r3, [pc, #152]	; (400af4 <pvPortMalloc+0xa8>)
  400a5c:	4a26      	ldr	r2, [pc, #152]	; (400af8 <pvPortMalloc+0xac>)
  400a5e:	4d27      	ldr	r5, [pc, #156]	; (400afc <pvPortMalloc+0xb0>)
  400a60:	6051      	str	r1, [r2, #4]
  400a62:	f023 0307 	bic.w	r3, r3, #7
  400a66:	6013      	str	r3, [r2, #0]
  400a68:	4a25      	ldr	r2, [pc, #148]	; (400b00 <pvPortMalloc+0xb4>)
  400a6a:	e882 0022 	stmia.w	r2, {r1, r5}
  400a6e:	e883 0024 	stmia.w	r3, {r2, r5}
  400a72:	2301      	movs	r3, #1
  400a74:	6003      	str	r3, [r0, #0]
  400a76:	b12c      	cbz	r4, 400a84 <pvPortMalloc+0x38>
  400a78:	3408      	adds	r4, #8
  400a7a:	0763      	lsls	r3, r4, #29
  400a7c:	bf1c      	itt	ne
  400a7e:	f024 0407 	bicne.w	r4, r4, #7
  400a82:	3408      	addne	r4, #8
  400a84:	4b1f      	ldr	r3, [pc, #124]	; (400b04 <pvPortMalloc+0xb8>)
  400a86:	1e62      	subs	r2, r4, #1
  400a88:	429a      	cmp	r2, r3
  400a8a:	d807      	bhi.n	400a9c <pvPortMalloc+0x50>
  400a8c:	4a1a      	ldr	r2, [pc, #104]	; (400af8 <pvPortMalloc+0xac>)
  400a8e:	6813      	ldr	r3, [r2, #0]
  400a90:	6859      	ldr	r1, [r3, #4]
  400a92:	428c      	cmp	r4, r1
  400a94:	d804      	bhi.n	400aa0 <pvPortMalloc+0x54>
  400a96:	491a      	ldr	r1, [pc, #104]	; (400b00 <pvPortMalloc+0xb4>)
  400a98:	428b      	cmp	r3, r1
  400a9a:	d107      	bne.n	400aac <pvPortMalloc+0x60>
  400a9c:	2500      	movs	r5, #0
  400a9e:	e01e      	b.n	400ade <pvPortMalloc+0x92>
  400aa0:	6819      	ldr	r1, [r3, #0]
  400aa2:	2900      	cmp	r1, #0
  400aa4:	d0f7      	beq.n	400a96 <pvPortMalloc+0x4a>
  400aa6:	461a      	mov	r2, r3
  400aa8:	460b      	mov	r3, r1
  400aaa:	e7f1      	b.n	400a90 <pvPortMalloc+0x44>
  400aac:	6819      	ldr	r1, [r3, #0]
  400aae:	6815      	ldr	r5, [r2, #0]
  400ab0:	6011      	str	r1, [r2, #0]
  400ab2:	6859      	ldr	r1, [r3, #4]
  400ab4:	1b09      	subs	r1, r1, r4
  400ab6:	2910      	cmp	r1, #16
  400ab8:	f105 0508 	add.w	r5, r5, #8
  400abc:	d90a      	bls.n	400ad4 <pvPortMalloc+0x88>
  400abe:	191a      	adds	r2, r3, r4
  400ac0:	6051      	str	r1, [r2, #4]
  400ac2:	605c      	str	r4, [r3, #4]
  400ac4:	6856      	ldr	r6, [r2, #4]
  400ac6:	490c      	ldr	r1, [pc, #48]	; (400af8 <pvPortMalloc+0xac>)
  400ac8:	6808      	ldr	r0, [r1, #0]
  400aca:	6844      	ldr	r4, [r0, #4]
  400acc:	42a6      	cmp	r6, r4
  400ace:	d80a      	bhi.n	400ae6 <pvPortMalloc+0x9a>
  400ad0:	6010      	str	r0, [r2, #0]
  400ad2:	600a      	str	r2, [r1, #0]
  400ad4:	490c      	ldr	r1, [pc, #48]	; (400b08 <pvPortMalloc+0xbc>)
  400ad6:	685b      	ldr	r3, [r3, #4]
  400ad8:	680a      	ldr	r2, [r1, #0]
  400ada:	1ad2      	subs	r2, r2, r3
  400adc:	600a      	str	r2, [r1, #0]
  400ade:	4b0b      	ldr	r3, [pc, #44]	; (400b0c <pvPortMalloc+0xc0>)
  400ae0:	4798      	blx	r3
  400ae2:	4628      	mov	r0, r5
  400ae4:	bd70      	pop	{r4, r5, r6, pc}
  400ae6:	4601      	mov	r1, r0
  400ae8:	e7ee      	b.n	400ac8 <pvPortMalloc+0x7c>
  400aea:	bf00      	nop
  400aec:	00401415 	.word	0x00401415
  400af0:	200136f0 	.word	0x200136f0
  400af4:	20000af0 	.word	0x20000af0
  400af8:	200136f4 	.word	0x200136f4
  400afc:	00012bf8 	.word	0x00012bf8
  400b00:	200136e8 	.word	0x200136e8
  400b04:	00012bf6 	.word	0x00012bf6
  400b08:	20000088 	.word	0x20000088
  400b0c:	0040156d 	.word	0x0040156d

00400b10 <vPortFree>:
  400b10:	b570      	push	{r4, r5, r6, lr}
  400b12:	4604      	mov	r4, r0
  400b14:	b1c8      	cbz	r0, 400b4a <vPortFree+0x3a>
  400b16:	4b0d      	ldr	r3, [pc, #52]	; (400b4c <vPortFree+0x3c>)
  400b18:	f1a0 0508 	sub.w	r5, r0, #8
  400b1c:	4798      	blx	r3
  400b1e:	f854 0c04 	ldr.w	r0, [r4, #-4]
  400b22:	4b0b      	ldr	r3, [pc, #44]	; (400b50 <vPortFree+0x40>)
  400b24:	681a      	ldr	r2, [r3, #0]
  400b26:	6851      	ldr	r1, [r2, #4]
  400b28:	4288      	cmp	r0, r1
  400b2a:	d80c      	bhi.n	400b46 <vPortFree+0x36>
  400b2c:	f844 2c08 	str.w	r2, [r4, #-8]
  400b30:	4a08      	ldr	r2, [pc, #32]	; (400b54 <vPortFree+0x44>)
  400b32:	601d      	str	r5, [r3, #0]
  400b34:	f854 3c04 	ldr.w	r3, [r4, #-4]
  400b38:	6811      	ldr	r1, [r2, #0]
  400b3a:	440b      	add	r3, r1
  400b3c:	6013      	str	r3, [r2, #0]
  400b3e:	e8bd 4070 	ldmia.w	sp!, {r4, r5, r6, lr}
  400b42:	4b05      	ldr	r3, [pc, #20]	; (400b58 <vPortFree+0x48>)
  400b44:	4718      	bx	r3
  400b46:	4613      	mov	r3, r2
  400b48:	e7ec      	b.n	400b24 <vPortFree+0x14>
  400b4a:	bd70      	pop	{r4, r5, r6, pc}
  400b4c:	00401415 	.word	0x00401415
  400b50:	200136f4 	.word	0x200136f4
  400b54:	20000088 	.word	0x20000088
  400b58:	0040156d 	.word	0x0040156d

00400b5c <prvCopyDataToQueue>:
  400b5c:	b538      	push	{r3, r4, r5, lr}
  400b5e:	4615      	mov	r5, r2
  400b60:	6c02      	ldr	r2, [r0, #64]	; 0x40
  400b62:	4604      	mov	r4, r0
  400b64:	b94a      	cbnz	r2, 400b7a <prvCopyDataToQueue+0x1e>
  400b66:	6805      	ldr	r5, [r0, #0]
  400b68:	b91d      	cbnz	r5, 400b72 <prvCopyDataToQueue+0x16>
  400b6a:	6840      	ldr	r0, [r0, #4]
  400b6c:	4b15      	ldr	r3, [pc, #84]	; (400bc4 <prvCopyDataToQueue+0x68>)
  400b6e:	4798      	blx	r3
  400b70:	6065      	str	r5, [r4, #4]
  400b72:	6ba3      	ldr	r3, [r4, #56]	; 0x38
  400b74:	3301      	adds	r3, #1
  400b76:	63a3      	str	r3, [r4, #56]	; 0x38
  400b78:	bd38      	pop	{r3, r4, r5, pc}
  400b7a:	4b13      	ldr	r3, [pc, #76]	; (400bc8 <prvCopyDataToQueue+0x6c>)
  400b7c:	b95d      	cbnz	r5, 400b96 <prvCopyDataToQueue+0x3a>
  400b7e:	6880      	ldr	r0, [r0, #8]
  400b80:	4798      	blx	r3
  400b82:	68a3      	ldr	r3, [r4, #8]
  400b84:	6c22      	ldr	r2, [r4, #64]	; 0x40
  400b86:	4413      	add	r3, r2
  400b88:	6862      	ldr	r2, [r4, #4]
  400b8a:	60a3      	str	r3, [r4, #8]
  400b8c:	4293      	cmp	r3, r2
  400b8e:	d3f0      	bcc.n	400b72 <prvCopyDataToQueue+0x16>
  400b90:	6823      	ldr	r3, [r4, #0]
  400b92:	60a3      	str	r3, [r4, #8]
  400b94:	e7ed      	b.n	400b72 <prvCopyDataToQueue+0x16>
  400b96:	68c0      	ldr	r0, [r0, #12]
  400b98:	4798      	blx	r3
  400b9a:	6c23      	ldr	r3, [r4, #64]	; 0x40
  400b9c:	68e2      	ldr	r2, [r4, #12]
  400b9e:	6821      	ldr	r1, [r4, #0]
  400ba0:	425b      	negs	r3, r3
  400ba2:	441a      	add	r2, r3
  400ba4:	428a      	cmp	r2, r1
  400ba6:	60e2      	str	r2, [r4, #12]
  400ba8:	bf3e      	ittt	cc
  400baa:	6862      	ldrcc	r2, [r4, #4]
  400bac:	189b      	addcc	r3, r3, r2
  400bae:	60e3      	strcc	r3, [r4, #12]
  400bb0:	2d02      	cmp	r5, #2
  400bb2:	d1de      	bne.n	400b72 <prvCopyDataToQueue+0x16>
  400bb4:	6ba3      	ldr	r3, [r4, #56]	; 0x38
  400bb6:	2b00      	cmp	r3, #0
  400bb8:	d0db      	beq.n	400b72 <prvCopyDataToQueue+0x16>
  400bba:	6ba3      	ldr	r3, [r4, #56]	; 0x38
  400bbc:	3b01      	subs	r3, #1
  400bbe:	63a3      	str	r3, [r4, #56]	; 0x38
  400bc0:	e7d7      	b.n	400b72 <prvCopyDataToQueue+0x16>
  400bc2:	bf00      	nop
  400bc4:	004019b1 	.word	0x004019b1
  400bc8:	00403b85 	.word	0x00403b85

00400bcc <prvNotifyQueueSetContainer>:
  400bcc:	b513      	push	{r0, r1, r4, lr}
  400bce:	6cc4      	ldr	r4, [r0, #76]	; 0x4c
  400bd0:	9001      	str	r0, [sp, #4]
  400bd2:	460a      	mov	r2, r1
  400bd4:	b914      	cbnz	r4, 400bdc <prvNotifyQueueSetContainer+0x10>
  400bd6:	4b0f      	ldr	r3, [pc, #60]	; (400c14 <prvNotifyQueueSetContainer+0x48>)
  400bd8:	4798      	blx	r3
  400bda:	e7fe      	b.n	400bda <prvNotifyQueueSetContainer+0xe>
  400bdc:	6ba1      	ldr	r1, [r4, #56]	; 0x38
  400bde:	6be3      	ldr	r3, [r4, #60]	; 0x3c
  400be0:	4299      	cmp	r1, r3
  400be2:	d302      	bcc.n	400bea <prvNotifyQueueSetContainer+0x1e>
  400be4:	4b0b      	ldr	r3, [pc, #44]	; (400c14 <prvNotifyQueueSetContainer+0x48>)
  400be6:	4798      	blx	r3
  400be8:	e7fe      	b.n	400be8 <prvNotifyQueueSetContainer+0x1c>
  400bea:	6ba1      	ldr	r1, [r4, #56]	; 0x38
  400bec:	428b      	cmp	r3, r1
  400bee:	d802      	bhi.n	400bf6 <prvNotifyQueueSetContainer+0x2a>
  400bf0:	2000      	movs	r0, #0
  400bf2:	b002      	add	sp, #8
  400bf4:	bd10      	pop	{r4, pc}
  400bf6:	4b08      	ldr	r3, [pc, #32]	; (400c18 <prvNotifyQueueSetContainer+0x4c>)
  400bf8:	a901      	add	r1, sp, #4
  400bfa:	4620      	mov	r0, r4
  400bfc:	4798      	blx	r3
  400bfe:	6a63      	ldr	r3, [r4, #36]	; 0x24
  400c00:	2b00      	cmp	r3, #0
  400c02:	d0f5      	beq.n	400bf0 <prvNotifyQueueSetContainer+0x24>
  400c04:	f104 0024 	add.w	r0, r4, #36	; 0x24
  400c08:	4b04      	ldr	r3, [pc, #16]	; (400c1c <prvNotifyQueueSetContainer+0x50>)
  400c0a:	4798      	blx	r3
  400c0c:	3000      	adds	r0, #0
  400c0e:	bf18      	it	ne
  400c10:	2001      	movne	r0, #1
  400c12:	e7ee      	b.n	400bf2 <prvNotifyQueueSetContainer+0x26>
  400c14:	00400831 	.word	0x00400831
  400c18:	00400b5d 	.word	0x00400b5d
  400c1c:	004017ed 	.word	0x004017ed

00400c20 <prvCopyDataFromQueue>:
  400c20:	b430      	push	{r4, r5}
  400c22:	4603      	mov	r3, r0
  400c24:	4608      	mov	r0, r1
  400c26:	681c      	ldr	r4, [r3, #0]
  400c28:	b15c      	cbz	r4, 400c42 <prvCopyDataFromQueue+0x22>
  400c2a:	68d9      	ldr	r1, [r3, #12]
  400c2c:	6c1a      	ldr	r2, [r3, #64]	; 0x40
  400c2e:	685d      	ldr	r5, [r3, #4]
  400c30:	4411      	add	r1, r2
  400c32:	42a9      	cmp	r1, r5
  400c34:	60d9      	str	r1, [r3, #12]
  400c36:	bf28      	it	cs
  400c38:	60dc      	strcs	r4, [r3, #12]
  400c3a:	68d9      	ldr	r1, [r3, #12]
  400c3c:	4b02      	ldr	r3, [pc, #8]	; (400c48 <prvCopyDataFromQueue+0x28>)
  400c3e:	bc30      	pop	{r4, r5}
  400c40:	4718      	bx	r3
  400c42:	bc30      	pop	{r4, r5}
  400c44:	4770      	bx	lr
  400c46:	bf00      	nop
  400c48:	00403b85 	.word	0x00403b85

00400c4c <prvUnlockQueue>:
  400c4c:	e92d 41f0 	stmdb	sp!, {r4, r5, r6, r7, r8, lr}
  400c50:	4e1f      	ldr	r6, [pc, #124]	; (400cd0 <prvUnlockQueue+0x84>)
  400c52:	4d20      	ldr	r5, [pc, #128]	; (400cd4 <prvUnlockQueue+0x88>)
  400c54:	4f20      	ldr	r7, [pc, #128]	; (400cd8 <prvUnlockQueue+0x8c>)
  400c56:	f8df 8088 	ldr.w	r8, [pc, #136]	; 400ce0 <prvUnlockQueue+0x94>
  400c5a:	4604      	mov	r4, r0
  400c5c:	47b0      	blx	r6
  400c5e:	6ca3      	ldr	r3, [r4, #72]	; 0x48
  400c60:	2b00      	cmp	r3, #0
  400c62:	dc14      	bgt.n	400c8e <prvUnlockQueue+0x42>
  400c64:	f04f 33ff 	mov.w	r3, #4294967295
  400c68:	64a3      	str	r3, [r4, #72]	; 0x48
  400c6a:	4d1c      	ldr	r5, [pc, #112]	; (400cdc <prvUnlockQueue+0x90>)
  400c6c:	4f19      	ldr	r7, [pc, #100]	; (400cd4 <prvUnlockQueue+0x88>)
  400c6e:	f8df 8068 	ldr.w	r8, [pc, #104]	; 400cd8 <prvUnlockQueue+0x8c>
  400c72:	47a8      	blx	r5
  400c74:	47b0      	blx	r6
  400c76:	f104 0610 	add.w	r6, r4, #16
  400c7a:	6c63      	ldr	r3, [r4, #68]	; 0x44
  400c7c:	2b00      	cmp	r3, #0
  400c7e:	dc1b      	bgt.n	400cb8 <prvUnlockQueue+0x6c>
  400c80:	f04f 33ff 	mov.w	r3, #4294967295
  400c84:	6463      	str	r3, [r4, #68]	; 0x44
  400c86:	462b      	mov	r3, r5
  400c88:	e8bd 41f0 	ldmia.w	sp!, {r4, r5, r6, r7, r8, lr}
  400c8c:	4718      	bx	r3
  400c8e:	6ce3      	ldr	r3, [r4, #76]	; 0x4c
  400c90:	b14b      	cbz	r3, 400ca6 <prvUnlockQueue+0x5a>
  400c92:	2100      	movs	r1, #0
  400c94:	4620      	mov	r0, r4
  400c96:	47c0      	blx	r8
  400c98:	2801      	cmp	r0, #1
  400c9a:	d100      	bne.n	400c9e <prvUnlockQueue+0x52>
  400c9c:	47b8      	blx	r7
  400c9e:	6ca3      	ldr	r3, [r4, #72]	; 0x48
  400ca0:	3b01      	subs	r3, #1
  400ca2:	64a3      	str	r3, [r4, #72]	; 0x48
  400ca4:	e7db      	b.n	400c5e <prvUnlockQueue+0x12>
  400ca6:	6a63      	ldr	r3, [r4, #36]	; 0x24
  400ca8:	2b00      	cmp	r3, #0
  400caa:	d0db      	beq.n	400c64 <prvUnlockQueue+0x18>
  400cac:	f104 0024 	add.w	r0, r4, #36	; 0x24
  400cb0:	47a8      	blx	r5
  400cb2:	2800      	cmp	r0, #0
  400cb4:	d0f3      	beq.n	400c9e <prvUnlockQueue+0x52>
  400cb6:	e7f1      	b.n	400c9c <prvUnlockQueue+0x50>
  400cb8:	6923      	ldr	r3, [r4, #16]
  400cba:	2b00      	cmp	r3, #0
  400cbc:	d0e0      	beq.n	400c80 <prvUnlockQueue+0x34>
  400cbe:	4630      	mov	r0, r6
  400cc0:	47b8      	blx	r7
  400cc2:	b100      	cbz	r0, 400cc6 <prvUnlockQueue+0x7a>
  400cc4:	47c0      	blx	r8
  400cc6:	6c63      	ldr	r3, [r4, #68]	; 0x44
  400cc8:	3b01      	subs	r3, #1
  400cca:	6463      	str	r3, [r4, #68]	; 0x44
  400ccc:	e7d5      	b.n	400c7a <prvUnlockQueue+0x2e>
  400cce:	bf00      	nop
  400cd0:	0040085d 	.word	0x0040085d
  400cd4:	004017ed 	.word	0x004017ed
  400cd8:	004018fd 	.word	0x004018fd
  400cdc:	00400885 	.word	0x00400885
  400ce0:	00400bcd 	.word	0x00400bcd

00400ce4 <xQueueGenericReset>:
  400ce4:	b538      	push	{r3, r4, r5, lr}
  400ce6:	460d      	mov	r5, r1
  400ce8:	4604      	mov	r4, r0
  400cea:	b910      	cbnz	r0, 400cf2 <xQueueGenericReset+0xe>
  400cec:	4b15      	ldr	r3, [pc, #84]	; (400d44 <xQueueGenericReset+0x60>)
  400cee:	4798      	blx	r3
  400cf0:	e7fe      	b.n	400cf0 <xQueueGenericReset+0xc>
  400cf2:	4b15      	ldr	r3, [pc, #84]	; (400d48 <xQueueGenericReset+0x64>)
  400cf4:	4798      	blx	r3
  400cf6:	6c20      	ldr	r0, [r4, #64]	; 0x40
  400cf8:	6be3      	ldr	r3, [r4, #60]	; 0x3c
  400cfa:	6822      	ldr	r2, [r4, #0]
  400cfc:	60a2      	str	r2, [r4, #8]
  400cfe:	4343      	muls	r3, r0
  400d00:	18d1      	adds	r1, r2, r3
  400d02:	1a1b      	subs	r3, r3, r0
  400d04:	4413      	add	r3, r2
  400d06:	6061      	str	r1, [r4, #4]
  400d08:	60e3      	str	r3, [r4, #12]
  400d0a:	2100      	movs	r1, #0
  400d0c:	f04f 33ff 	mov.w	r3, #4294967295
  400d10:	63a1      	str	r1, [r4, #56]	; 0x38
  400d12:	6463      	str	r3, [r4, #68]	; 0x44
  400d14:	64a3      	str	r3, [r4, #72]	; 0x48
  400d16:	b96d      	cbnz	r5, 400d34 <xQueueGenericReset+0x50>
  400d18:	6923      	ldr	r3, [r4, #16]
  400d1a:	b13b      	cbz	r3, 400d2c <xQueueGenericReset+0x48>
  400d1c:	f104 0010 	add.w	r0, r4, #16
  400d20:	4b0a      	ldr	r3, [pc, #40]	; (400d4c <xQueueGenericReset+0x68>)
  400d22:	4798      	blx	r3
  400d24:	2801      	cmp	r0, #1
  400d26:	d101      	bne.n	400d2c <xQueueGenericReset+0x48>
  400d28:	4b09      	ldr	r3, [pc, #36]	; (400d50 <xQueueGenericReset+0x6c>)
  400d2a:	4798      	blx	r3
  400d2c:	4b09      	ldr	r3, [pc, #36]	; (400d54 <xQueueGenericReset+0x70>)
  400d2e:	4798      	blx	r3
  400d30:	2001      	movs	r0, #1
  400d32:	bd38      	pop	{r3, r4, r5, pc}
  400d34:	f104 0010 	add.w	r0, r4, #16
  400d38:	4d07      	ldr	r5, [pc, #28]	; (400d58 <xQueueGenericReset+0x74>)
  400d3a:	47a8      	blx	r5
  400d3c:	f104 0024 	add.w	r0, r4, #36	; 0x24
  400d40:	47a8      	blx	r5
  400d42:	e7f3      	b.n	400d2c <xQueueGenericReset+0x48>
  400d44:	00400831 	.word	0x00400831
  400d48:	0040085d 	.word	0x0040085d
  400d4c:	004017ed 	.word	0x004017ed
  400d50:	00400819 	.word	0x00400819
  400d54:	00400885 	.word	0x00400885
  400d58:	0040071d 	.word	0x0040071d

00400d5c <xQueueGenericCreate>:
  400d5c:	b5f8      	push	{r3, r4, r5, r6, r7, lr}
  400d5e:	460e      	mov	r6, r1
  400d60:	4605      	mov	r5, r0
  400d62:	b168      	cbz	r0, 400d80 <xQueueGenericCreate+0x24>
  400d64:	2050      	movs	r0, #80	; 0x50
  400d66:	4f0d      	ldr	r7, [pc, #52]	; (400d9c <xQueueGenericCreate+0x40>)
  400d68:	47b8      	blx	r7
  400d6a:	4604      	mov	r4, r0
  400d6c:	b140      	cbz	r0, 400d80 <xQueueGenericCreate+0x24>
  400d6e:	fb06 f005 	mul.w	r0, r6, r5
  400d72:	3001      	adds	r0, #1
  400d74:	47b8      	blx	r7
  400d76:	6020      	str	r0, [r4, #0]
  400d78:	b928      	cbnz	r0, 400d86 <xQueueGenericCreate+0x2a>
  400d7a:	4620      	mov	r0, r4
  400d7c:	4b08      	ldr	r3, [pc, #32]	; (400da0 <xQueueGenericCreate+0x44>)
  400d7e:	4798      	blx	r3
  400d80:	4b08      	ldr	r3, [pc, #32]	; (400da4 <xQueueGenericCreate+0x48>)
  400d82:	4798      	blx	r3
  400d84:	e7fe      	b.n	400d84 <xQueueGenericCreate+0x28>
  400d86:	63e5      	str	r5, [r4, #60]	; 0x3c
  400d88:	6426      	str	r6, [r4, #64]	; 0x40
  400d8a:	2101      	movs	r1, #1
  400d8c:	4620      	mov	r0, r4
  400d8e:	4b06      	ldr	r3, [pc, #24]	; (400da8 <xQueueGenericCreate+0x4c>)
  400d90:	4798      	blx	r3
  400d92:	2300      	movs	r3, #0
  400d94:	64e3      	str	r3, [r4, #76]	; 0x4c
  400d96:	4620      	mov	r0, r4
  400d98:	bdf8      	pop	{r3, r4, r5, r6, r7, pc}
  400d9a:	bf00      	nop
  400d9c:	00400a4d 	.word	0x00400a4d
  400da0:	00400b11 	.word	0x00400b11
  400da4:	00400831 	.word	0x00400831
  400da8:	00400ce5 	.word	0x00400ce5

00400dac <xQueueGenericSend>:
  400dac:	e92d 4ff0 	stmdb	sp!, {r4, r5, r6, r7, r8, r9, sl, fp, lr}
  400db0:	b087      	sub	sp, #28
  400db2:	468a      	mov	sl, r1
  400db4:	9203      	str	r2, [sp, #12]
  400db6:	4698      	mov	r8, r3
  400db8:	4604      	mov	r4, r0
  400dba:	b910      	cbnz	r0, 400dc2 <xQueueGenericSend+0x16>
  400dbc:	4b43      	ldr	r3, [pc, #268]	; (400ecc <xQueueGenericSend+0x120>)
  400dbe:	4798      	blx	r3
  400dc0:	e7fe      	b.n	400dc0 <xQueueGenericSend+0x14>
  400dc2:	2900      	cmp	r1, #0
  400dc4:	d16e      	bne.n	400ea4 <xQueueGenericSend+0xf8>
  400dc6:	6c03      	ldr	r3, [r0, #64]	; 0x40
  400dc8:	2b00      	cmp	r3, #0
  400dca:	d06b      	beq.n	400ea4 <xQueueGenericSend+0xf8>
  400dcc:	4b3f      	ldr	r3, [pc, #252]	; (400ecc <xQueueGenericSend+0x120>)
  400dce:	4798      	blx	r3
  400dd0:	e7fe      	b.n	400dd0 <xQueueGenericSend+0x24>
  400dd2:	9e03      	ldr	r6, [sp, #12]
  400dd4:	2e00      	cmp	r6, #0
  400dd6:	d070      	beq.n	400eba <xQueueGenericSend+0x10e>
  400dd8:	4b3c      	ldr	r3, [pc, #240]	; (400ecc <xQueueGenericSend+0x120>)
  400dda:	4798      	blx	r3
  400ddc:	e7fe      	b.n	400ddc <xQueueGenericSend+0x30>
  400dde:	6a63      	ldr	r3, [r4, #36]	; 0x24
  400de0:	2b00      	cmp	r3, #0
  400de2:	d052      	beq.n	400e8a <xQueueGenericSend+0xde>
  400de4:	f104 0024 	add.w	r0, r4, #36	; 0x24
  400de8:	4b39      	ldr	r3, [pc, #228]	; (400ed0 <xQueueGenericSend+0x124>)
  400dea:	4798      	blx	r3
  400dec:	e049      	b.n	400e82 <xQueueGenericSend+0xd6>
  400dee:	9d03      	ldr	r5, [sp, #12]
  400df0:	b915      	cbnz	r5, 400df8 <xQueueGenericSend+0x4c>
  400df2:	47b8      	blx	r7
  400df4:	2000      	movs	r0, #0
  400df6:	e04a      	b.n	400e8e <xQueueGenericSend+0xe2>
  400df8:	b916      	cbnz	r6, 400e00 <xQueueGenericSend+0x54>
  400dfa:	a804      	add	r0, sp, #16
  400dfc:	4b35      	ldr	r3, [pc, #212]	; (400ed4 <xQueueGenericSend+0x128>)
  400dfe:	4798      	blx	r3
  400e00:	47b8      	blx	r7
  400e02:	4b35      	ldr	r3, [pc, #212]	; (400ed8 <xQueueGenericSend+0x12c>)
  400e04:	4e35      	ldr	r6, [pc, #212]	; (400edc <xQueueGenericSend+0x130>)
  400e06:	4d36      	ldr	r5, [pc, #216]	; (400ee0 <xQueueGenericSend+0x134>)
  400e08:	4798      	blx	r3
  400e0a:	47c8      	blx	r9
  400e0c:	6c63      	ldr	r3, [r4, #68]	; 0x44
  400e0e:	3301      	adds	r3, #1
  400e10:	bf04      	itt	eq
  400e12:	2300      	moveq	r3, #0
  400e14:	6463      	streq	r3, [r4, #68]	; 0x44
  400e16:	6ca3      	ldr	r3, [r4, #72]	; 0x48
  400e18:	3301      	adds	r3, #1
  400e1a:	bf04      	itt	eq
  400e1c:	2300      	moveq	r3, #0
  400e1e:	64a3      	streq	r3, [r4, #72]	; 0x48
  400e20:	47b8      	blx	r7
  400e22:	a903      	add	r1, sp, #12
  400e24:	a804      	add	r0, sp, #16
  400e26:	4b2f      	ldr	r3, [pc, #188]	; (400ee4 <xQueueGenericSend+0x138>)
  400e28:	4798      	blx	r3
  400e2a:	2800      	cmp	r0, #0
  400e2c:	d136      	bne.n	400e9c <xQueueGenericSend+0xf0>
  400e2e:	47c8      	blx	r9
  400e30:	6ba2      	ldr	r2, [r4, #56]	; 0x38
  400e32:	6be3      	ldr	r3, [r4, #60]	; 0x3c
  400e34:	9202      	str	r2, [sp, #8]
  400e36:	9301      	str	r3, [sp, #4]
  400e38:	47b8      	blx	r7
  400e3a:	9b01      	ldr	r3, [sp, #4]
  400e3c:	9a02      	ldr	r2, [sp, #8]
  400e3e:	429a      	cmp	r2, r3
  400e40:	d128      	bne.n	400e94 <xQueueGenericSend+0xe8>
  400e42:	9903      	ldr	r1, [sp, #12]
  400e44:	4b28      	ldr	r3, [pc, #160]	; (400ee8 <xQueueGenericSend+0x13c>)
  400e46:	f104 0010 	add.w	r0, r4, #16
  400e4a:	4798      	blx	r3
  400e4c:	4620      	mov	r0, r4
  400e4e:	47b0      	blx	r6
  400e50:	47a8      	blx	r5
  400e52:	b908      	cbnz	r0, 400e58 <xQueueGenericSend+0xac>
  400e54:	4b25      	ldr	r3, [pc, #148]	; (400eec <xQueueGenericSend+0x140>)
  400e56:	4798      	blx	r3
  400e58:	2601      	movs	r6, #1
  400e5a:	47d8      	blx	fp
  400e5c:	6ba2      	ldr	r2, [r4, #56]	; 0x38
  400e5e:	6be3      	ldr	r3, [r4, #60]	; 0x3c
  400e60:	429a      	cmp	r2, r3
  400e62:	d302      	bcc.n	400e6a <xQueueGenericSend+0xbe>
  400e64:	f1b8 0f02 	cmp.w	r8, #2
  400e68:	d1c1      	bne.n	400dee <xQueueGenericSend+0x42>
  400e6a:	4b21      	ldr	r3, [pc, #132]	; (400ef0 <xQueueGenericSend+0x144>)
  400e6c:	4642      	mov	r2, r8
  400e6e:	4651      	mov	r1, sl
  400e70:	4620      	mov	r0, r4
  400e72:	4798      	blx	r3
  400e74:	6ce3      	ldr	r3, [r4, #76]	; 0x4c
  400e76:	2b00      	cmp	r3, #0
  400e78:	d0b1      	beq.n	400dde <xQueueGenericSend+0x32>
  400e7a:	4641      	mov	r1, r8
  400e7c:	4620      	mov	r0, r4
  400e7e:	4b1d      	ldr	r3, [pc, #116]	; (400ef4 <xQueueGenericSend+0x148>)
  400e80:	4798      	blx	r3
  400e82:	2801      	cmp	r0, #1
  400e84:	d101      	bne.n	400e8a <xQueueGenericSend+0xde>
  400e86:	4b19      	ldr	r3, [pc, #100]	; (400eec <xQueueGenericSend+0x140>)
  400e88:	4798      	blx	r3
  400e8a:	47b8      	blx	r7
  400e8c:	2001      	movs	r0, #1
  400e8e:	b007      	add	sp, #28
  400e90:	e8bd 8ff0 	ldmia.w	sp!, {r4, r5, r6, r7, r8, r9, sl, fp, pc}
  400e94:	4620      	mov	r0, r4
  400e96:	47b0      	blx	r6
  400e98:	47a8      	blx	r5
  400e9a:	e7dd      	b.n	400e58 <xQueueGenericSend+0xac>
  400e9c:	4620      	mov	r0, r4
  400e9e:	47b0      	blx	r6
  400ea0:	47a8      	blx	r5
  400ea2:	e7a7      	b.n	400df4 <xQueueGenericSend+0x48>
  400ea4:	f1b8 0f02 	cmp.w	r8, #2
  400ea8:	d102      	bne.n	400eb0 <xQueueGenericSend+0x104>
  400eaa:	6be3      	ldr	r3, [r4, #60]	; 0x3c
  400eac:	2b01      	cmp	r3, #1
  400eae:	d109      	bne.n	400ec4 <xQueueGenericSend+0x118>
  400eb0:	4b11      	ldr	r3, [pc, #68]	; (400ef8 <xQueueGenericSend+0x14c>)
  400eb2:	4798      	blx	r3
  400eb4:	2800      	cmp	r0, #0
  400eb6:	d08c      	beq.n	400dd2 <xQueueGenericSend+0x26>
  400eb8:	2600      	movs	r6, #0
  400eba:	f8df b044 	ldr.w	fp, [pc, #68]	; 400f00 <xQueueGenericSend+0x154>
  400ebe:	4f0f      	ldr	r7, [pc, #60]	; (400efc <xQueueGenericSend+0x150>)
  400ec0:	46d9      	mov	r9, fp
  400ec2:	e7ca      	b.n	400e5a <xQueueGenericSend+0xae>
  400ec4:	4b01      	ldr	r3, [pc, #4]	; (400ecc <xQueueGenericSend+0x120>)
  400ec6:	4798      	blx	r3
  400ec8:	e7fe      	b.n	400ec8 <xQueueGenericSend+0x11c>
  400eca:	bf00      	nop
  400ecc:	00400831 	.word	0x00400831
  400ed0:	004017ed 	.word	0x004017ed
  400ed4:	0040186d 	.word	0x0040186d
  400ed8:	00401415 	.word	0x00401415
  400edc:	00400c4d 	.word	0x00400c4d
  400ee0:	0040156d 	.word	0x0040156d
  400ee4:	00401891 	.word	0x00401891
  400ee8:	00401749 	.word	0x00401749
  400eec:	00400819 	.word	0x00400819
  400ef0:	00400b5d 	.word	0x00400b5d
  400ef4:	00400bcd 	.word	0x00400bcd
  400ef8:	00401915 	.word	0x00401915
  400efc:	00400885 	.word	0x00400885
  400f00:	0040085d 	.word	0x0040085d

00400f04 <xQueueGenericSendFromISR>:
  400f04:	e92d 41f0 	stmdb	sp!, {r4, r5, r6, r7, r8, lr}
  400f08:	460f      	mov	r7, r1
  400f0a:	4690      	mov	r8, r2
  400f0c:	461d      	mov	r5, r3
  400f0e:	4604      	mov	r4, r0
  400f10:	4e23      	ldr	r6, [pc, #140]	; (400fa0 <xQueueGenericSendFromISR+0x9c>)
  400f12:	b908      	cbnz	r0, 400f18 <xQueueGenericSendFromISR+0x14>
  400f14:	47b0      	blx	r6
  400f16:	e7fe      	b.n	400f16 <xQueueGenericSendFromISR+0x12>
  400f18:	b9f1      	cbnz	r1, 400f58 <xQueueGenericSendFromISR+0x54>
  400f1a:	6c03      	ldr	r3, [r0, #64]	; 0x40
  400f1c:	b1e3      	cbz	r3, 400f58 <xQueueGenericSendFromISR+0x54>
  400f1e:	47b0      	blx	r6
  400f20:	e7fe      	b.n	400f20 <xQueueGenericSendFromISR+0x1c>
  400f22:	6a63      	ldr	r3, [r4, #36]	; 0x24
  400f24:	2b00      	cmp	r3, #0
  400f26:	d037      	beq.n	400f98 <xQueueGenericSendFromISR+0x94>
  400f28:	f104 0024 	add.w	r0, r4, #36	; 0x24
  400f2c:	4b1d      	ldr	r3, [pc, #116]	; (400fa4 <xQueueGenericSendFromISR+0xa0>)
  400f2e:	4798      	blx	r3
  400f30:	2800      	cmp	r0, #0
  400f32:	d031      	beq.n	400f98 <xQueueGenericSendFromISR+0x94>
  400f34:	f1b8 0f00 	cmp.w	r8, #0
  400f38:	d02e      	beq.n	400f98 <xQueueGenericSendFromISR+0x94>
  400f3a:	2401      	movs	r4, #1
  400f3c:	f8c8 4000 	str.w	r4, [r8]
  400f40:	4630      	mov	r0, r6
  400f42:	4b19      	ldr	r3, [pc, #100]	; (400fa8 <xQueueGenericSendFromISR+0xa4>)
  400f44:	4798      	blx	r3
  400f46:	4620      	mov	r0, r4
  400f48:	e8bd 81f0 	ldmia.w	sp!, {r4, r5, r6, r7, r8, pc}
  400f4c:	6ca3      	ldr	r3, [r4, #72]	; 0x48
  400f4e:	3301      	adds	r3, #1
  400f50:	64a3      	str	r3, [r4, #72]	; 0x48
  400f52:	e021      	b.n	400f98 <xQueueGenericSendFromISR+0x94>
  400f54:	2400      	movs	r4, #0
  400f56:	e7f3      	b.n	400f40 <xQueueGenericSendFromISR+0x3c>
  400f58:	2d02      	cmp	r5, #2
  400f5a:	d102      	bne.n	400f62 <xQueueGenericSendFromISR+0x5e>
  400f5c:	6be3      	ldr	r3, [r4, #60]	; 0x3c
  400f5e:	2b01      	cmp	r3, #1
  400f60:	d11c      	bne.n	400f9c <xQueueGenericSendFromISR+0x98>
  400f62:	4b12      	ldr	r3, [pc, #72]	; (400fac <xQueueGenericSendFromISR+0xa8>)
  400f64:	4798      	blx	r3
  400f66:	47b0      	blx	r6
  400f68:	6ba2      	ldr	r2, [r4, #56]	; 0x38
  400f6a:	6be3      	ldr	r3, [r4, #60]	; 0x3c
  400f6c:	429a      	cmp	r2, r3
  400f6e:	4606      	mov	r6, r0
  400f70:	d301      	bcc.n	400f76 <xQueueGenericSendFromISR+0x72>
  400f72:	2d02      	cmp	r5, #2
  400f74:	d1ee      	bne.n	400f54 <xQueueGenericSendFromISR+0x50>
  400f76:	4b0e      	ldr	r3, [pc, #56]	; (400fb0 <xQueueGenericSendFromISR+0xac>)
  400f78:	462a      	mov	r2, r5
  400f7a:	4639      	mov	r1, r7
  400f7c:	4620      	mov	r0, r4
  400f7e:	4798      	blx	r3
  400f80:	6ca3      	ldr	r3, [r4, #72]	; 0x48
  400f82:	3301      	adds	r3, #1
  400f84:	d1e2      	bne.n	400f4c <xQueueGenericSendFromISR+0x48>
  400f86:	6ce3      	ldr	r3, [r4, #76]	; 0x4c
  400f88:	2b00      	cmp	r3, #0
  400f8a:	d0ca      	beq.n	400f22 <xQueueGenericSendFromISR+0x1e>
  400f8c:	4629      	mov	r1, r5
  400f8e:	4620      	mov	r0, r4
  400f90:	4b08      	ldr	r3, [pc, #32]	; (400fb4 <xQueueGenericSendFromISR+0xb0>)
  400f92:	4798      	blx	r3
  400f94:	2801      	cmp	r0, #1
  400f96:	d0cd      	beq.n	400f34 <xQueueGenericSendFromISR+0x30>
  400f98:	2401      	movs	r4, #1
  400f9a:	e7d1      	b.n	400f40 <xQueueGenericSendFromISR+0x3c>
  400f9c:	47b0      	blx	r6
  400f9e:	e7fe      	b.n	400f9e <xQueueGenericSendFromISR+0x9a>
  400fa0:	00400831 	.word	0x00400831
  400fa4:	004017ed 	.word	0x004017ed
  400fa8:	0040087d 	.word	0x0040087d
  400fac:	00400a05 	.word	0x00400a05
  400fb0:	00400b5d 	.word	0x00400b5d
  400fb4:	00400bcd 	.word	0x00400bcd

00400fb8 <xQueueGenericReceive>:
  400fb8:	e92d 4ff0 	stmdb	sp!, {r4, r5, r6, r7, r8, r9, sl, fp, lr}
  400fbc:	b085      	sub	sp, #20
  400fbe:	4689      	mov	r9, r1
  400fc0:	9201      	str	r2, [sp, #4]
  400fc2:	469a      	mov	sl, r3
  400fc4:	4604      	mov	r4, r0
  400fc6:	b910      	cbnz	r0, 400fce <xQueueGenericReceive+0x16>
  400fc8:	4b45      	ldr	r3, [pc, #276]	; (4010e0 <xQueueGenericReceive+0x128>)
  400fca:	4798      	blx	r3
  400fcc:	e7fe      	b.n	400fcc <xQueueGenericReceive+0x14>
  400fce:	2900      	cmp	r1, #0
  400fd0:	d17b      	bne.n	4010ca <xQueueGenericReceive+0x112>
  400fd2:	6c03      	ldr	r3, [r0, #64]	; 0x40
  400fd4:	2b00      	cmp	r3, #0
  400fd6:	d078      	beq.n	4010ca <xQueueGenericReceive+0x112>
  400fd8:	4b41      	ldr	r3, [pc, #260]	; (4010e0 <xQueueGenericReceive+0x128>)
  400fda:	4798      	blx	r3
  400fdc:	e7fe      	b.n	400fdc <xQueueGenericReceive+0x24>
  400fde:	9f01      	ldr	r7, [sp, #4]
  400fe0:	2f00      	cmp	r7, #0
  400fe2:	d077      	beq.n	4010d4 <xQueueGenericReceive+0x11c>
  400fe4:	4b3e      	ldr	r3, [pc, #248]	; (4010e0 <xQueueGenericReceive+0x128>)
  400fe6:	4798      	blx	r3
  400fe8:	e7fe      	b.n	400fe8 <xQueueGenericReceive+0x30>
  400fea:	6a63      	ldr	r3, [r4, #36]	; 0x24
  400fec:	60e5      	str	r5, [r4, #12]
  400fee:	2b00      	cmp	r3, #0
  400ff0:	d05e      	beq.n	4010b0 <xQueueGenericReceive+0xf8>
  400ff2:	f104 0024 	add.w	r0, r4, #36	; 0x24
  400ff6:	4b3b      	ldr	r3, [pc, #236]	; (4010e4 <xQueueGenericReceive+0x12c>)
  400ff8:	4798      	blx	r3
  400ffa:	2800      	cmp	r0, #0
  400ffc:	d058      	beq.n	4010b0 <xQueueGenericReceive+0xf8>
  400ffe:	e055      	b.n	4010ac <xQueueGenericReceive+0xf4>
  401000:	9d01      	ldr	r5, [sp, #4]
  401002:	b915      	cbnz	r5, 40100a <xQueueGenericReceive+0x52>
  401004:	47b0      	blx	r6
  401006:	2000      	movs	r0, #0
  401008:	e054      	b.n	4010b4 <xQueueGenericReceive+0xfc>
  40100a:	b917      	cbnz	r7, 401012 <xQueueGenericReceive+0x5a>
  40100c:	a802      	add	r0, sp, #8
  40100e:	4b36      	ldr	r3, [pc, #216]	; (4010e8 <xQueueGenericReceive+0x130>)
  401010:	4798      	blx	r3
  401012:	47b0      	blx	r6
  401014:	4b35      	ldr	r3, [pc, #212]	; (4010ec <xQueueGenericReceive+0x134>)
  401016:	4f36      	ldr	r7, [pc, #216]	; (4010f0 <xQueueGenericReceive+0x138>)
  401018:	4d36      	ldr	r5, [pc, #216]	; (4010f4 <xQueueGenericReceive+0x13c>)
  40101a:	4798      	blx	r3
  40101c:	47c0      	blx	r8
  40101e:	6c63      	ldr	r3, [r4, #68]	; 0x44
  401020:	3301      	adds	r3, #1
  401022:	bf04      	itt	eq
  401024:	2300      	moveq	r3, #0
  401026:	6463      	streq	r3, [r4, #68]	; 0x44
  401028:	6ca3      	ldr	r3, [r4, #72]	; 0x48
  40102a:	3301      	adds	r3, #1
  40102c:	bf04      	itt	eq
  40102e:	2300      	moveq	r3, #0
  401030:	64a3      	streq	r3, [r4, #72]	; 0x48
  401032:	47b0      	blx	r6
  401034:	a901      	add	r1, sp, #4
  401036:	a802      	add	r0, sp, #8
  401038:	4b2f      	ldr	r3, [pc, #188]	; (4010f8 <xQueueGenericReceive+0x140>)
  40103a:	4798      	blx	r3
  40103c:	2800      	cmp	r0, #0
  40103e:	d140      	bne.n	4010c2 <xQueueGenericReceive+0x10a>
  401040:	47c0      	blx	r8
  401042:	6ba3      	ldr	r3, [r4, #56]	; 0x38
  401044:	9300      	str	r3, [sp, #0]
  401046:	47b0      	blx	r6
  401048:	9b00      	ldr	r3, [sp, #0]
  40104a:	2b00      	cmp	r3, #0
  40104c:	d135      	bne.n	4010ba <xQueueGenericReceive+0x102>
  40104e:	6823      	ldr	r3, [r4, #0]
  401050:	b923      	cbnz	r3, 40105c <xQueueGenericReceive+0xa4>
  401052:	47c0      	blx	r8
  401054:	6860      	ldr	r0, [r4, #4]
  401056:	4b29      	ldr	r3, [pc, #164]	; (4010fc <xQueueGenericReceive+0x144>)
  401058:	4798      	blx	r3
  40105a:	47b0      	blx	r6
  40105c:	9901      	ldr	r1, [sp, #4]
  40105e:	4b28      	ldr	r3, [pc, #160]	; (401100 <xQueueGenericReceive+0x148>)
  401060:	f104 0024 	add.w	r0, r4, #36	; 0x24
  401064:	4798      	blx	r3
  401066:	4620      	mov	r0, r4
  401068:	47b8      	blx	r7
  40106a:	47a8      	blx	r5
  40106c:	b908      	cbnz	r0, 401072 <xQueueGenericReceive+0xba>
  40106e:	4b25      	ldr	r3, [pc, #148]	; (401104 <xQueueGenericReceive+0x14c>)
  401070:	4798      	blx	r3
  401072:	2701      	movs	r7, #1
  401074:	47d8      	blx	fp
  401076:	6ba3      	ldr	r3, [r4, #56]	; 0x38
  401078:	2b00      	cmp	r3, #0
  40107a:	d0c1      	beq.n	401000 <xQueueGenericReceive+0x48>
  40107c:	4649      	mov	r1, r9
  40107e:	4620      	mov	r0, r4
  401080:	4b21      	ldr	r3, [pc, #132]	; (401108 <xQueueGenericReceive+0x150>)
  401082:	68e5      	ldr	r5, [r4, #12]
  401084:	4798      	blx	r3
  401086:	f1ba 0f00 	cmp.w	sl, #0
  40108a:	d1ae      	bne.n	400fea <xQueueGenericReceive+0x32>
  40108c:	6ba3      	ldr	r3, [r4, #56]	; 0x38
  40108e:	3b01      	subs	r3, #1
  401090:	63a3      	str	r3, [r4, #56]	; 0x38
  401092:	6823      	ldr	r3, [r4, #0]
  401094:	b913      	cbnz	r3, 40109c <xQueueGenericReceive+0xe4>
  401096:	4b1d      	ldr	r3, [pc, #116]	; (40110c <xQueueGenericReceive+0x154>)
  401098:	4798      	blx	r3
  40109a:	6060      	str	r0, [r4, #4]
  40109c:	6923      	ldr	r3, [r4, #16]
  40109e:	b13b      	cbz	r3, 4010b0 <xQueueGenericReceive+0xf8>
  4010a0:	f104 0010 	add.w	r0, r4, #16
  4010a4:	4b0f      	ldr	r3, [pc, #60]	; (4010e4 <xQueueGenericReceive+0x12c>)
  4010a6:	4798      	blx	r3
  4010a8:	2801      	cmp	r0, #1
  4010aa:	d101      	bne.n	4010b0 <xQueueGenericReceive+0xf8>
  4010ac:	4b15      	ldr	r3, [pc, #84]	; (401104 <xQueueGenericReceive+0x14c>)
  4010ae:	4798      	blx	r3
  4010b0:	47b0      	blx	r6
  4010b2:	2001      	movs	r0, #1
  4010b4:	b005      	add	sp, #20
  4010b6:	e8bd 8ff0 	ldmia.w	sp!, {r4, r5, r6, r7, r8, r9, sl, fp, pc}
  4010ba:	4620      	mov	r0, r4
  4010bc:	47b8      	blx	r7
  4010be:	47a8      	blx	r5
  4010c0:	e7d7      	b.n	401072 <xQueueGenericReceive+0xba>
  4010c2:	4620      	mov	r0, r4
  4010c4:	47b8      	blx	r7
  4010c6:	47a8      	blx	r5
  4010c8:	e79d      	b.n	401006 <xQueueGenericReceive+0x4e>
  4010ca:	4b11      	ldr	r3, [pc, #68]	; (401110 <xQueueGenericReceive+0x158>)
  4010cc:	4798      	blx	r3
  4010ce:	2800      	cmp	r0, #0
  4010d0:	d085      	beq.n	400fde <xQueueGenericReceive+0x26>
  4010d2:	2700      	movs	r7, #0
  4010d4:	f8df b040 	ldr.w	fp, [pc, #64]	; 401118 <xQueueGenericReceive+0x160>
  4010d8:	4e0e      	ldr	r6, [pc, #56]	; (401114 <xQueueGenericReceive+0x15c>)
  4010da:	46d8      	mov	r8, fp
  4010dc:	e7ca      	b.n	401074 <xQueueGenericReceive+0xbc>
  4010de:	bf00      	nop
  4010e0:	00400831 	.word	0x00400831
  4010e4:	004017ed 	.word	0x004017ed
  4010e8:	0040186d 	.word	0x0040186d
  4010ec:	00401415 	.word	0x00401415
  4010f0:	00400c4d 	.word	0x00400c4d
  4010f4:	0040156d 	.word	0x0040156d
  4010f8:	00401891 	.word	0x00401891
  4010fc:	00401935 	.word	0x00401935
  401100:	00401749 	.word	0x00401749
  401104:	00400819 	.word	0x00400819
  401108:	00400c21 	.word	0x00400c21
  40110c:	00401909 	.word	0x00401909
  401110:	00401915 	.word	0x00401915
  401114:	00400885 	.word	0x00400885
  401118:	0040085d 	.word	0x0040085d

0040111c <vQueueWaitForMessageRestricted>:
  40111c:	b570      	push	{r4, r5, r6, lr}
  40111e:	4604      	mov	r4, r0
  401120:	4b0d      	ldr	r3, [pc, #52]	; (401158 <vQueueWaitForMessageRestricted+0x3c>)
  401122:	460d      	mov	r5, r1
  401124:	4798      	blx	r3
  401126:	6c63      	ldr	r3, [r4, #68]	; 0x44
  401128:	3301      	adds	r3, #1
  40112a:	bf04      	itt	eq
  40112c:	2300      	moveq	r3, #0
  40112e:	6463      	streq	r3, [r4, #68]	; 0x44
  401130:	6ca3      	ldr	r3, [r4, #72]	; 0x48
  401132:	3301      	adds	r3, #1
  401134:	bf04      	itt	eq
  401136:	2300      	moveq	r3, #0
  401138:	64a3      	streq	r3, [r4, #72]	; 0x48
  40113a:	4b08      	ldr	r3, [pc, #32]	; (40115c <vQueueWaitForMessageRestricted+0x40>)
  40113c:	4798      	blx	r3
  40113e:	6ba3      	ldr	r3, [r4, #56]	; 0x38
  401140:	b923      	cbnz	r3, 40114c <vQueueWaitForMessageRestricted+0x30>
  401142:	4629      	mov	r1, r5
  401144:	f104 0024 	add.w	r0, r4, #36	; 0x24
  401148:	4b05      	ldr	r3, [pc, #20]	; (401160 <vQueueWaitForMessageRestricted+0x44>)
  40114a:	4798      	blx	r3
  40114c:	4620      	mov	r0, r4
  40114e:	4b05      	ldr	r3, [pc, #20]	; (401164 <vQueueWaitForMessageRestricted+0x48>)
  401150:	e8bd 4070 	ldmia.w	sp!, {r4, r5, r6, lr}
  401154:	4718      	bx	r3
  401156:	bf00      	nop
  401158:	0040085d 	.word	0x0040085d
  40115c:	00400885 	.word	0x00400885
  401160:	004017a9 	.word	0x004017a9
  401164:	00400c4d 	.word	0x00400c4d

00401168 <prvResetNextTaskUnblockTime>:
  401168:	4a06      	ldr	r2, [pc, #24]	; (401184 <prvResetNextTaskUnblockTime+0x1c>)
  40116a:	6813      	ldr	r3, [r2, #0]
  40116c:	6819      	ldr	r1, [r3, #0]
  40116e:	4b06      	ldr	r3, [pc, #24]	; (401188 <prvResetNextTaskUnblockTime+0x20>)
  401170:	b919      	cbnz	r1, 40117a <prvResetNextTaskUnblockTime+0x12>
  401172:	f04f 32ff 	mov.w	r2, #4294967295
  401176:	601a      	str	r2, [r3, #0]
  401178:	4770      	bx	lr
  40117a:	6812      	ldr	r2, [r2, #0]
  40117c:	68d2      	ldr	r2, [r2, #12]
  40117e:	68d2      	ldr	r2, [r2, #12]
  401180:	6852      	ldr	r2, [r2, #4]
  401182:	e7f8      	b.n	401176 <prvResetNextTaskUnblockTime+0xe>
  401184:	20013700 	.word	0x20013700
  401188:	2000008c 	.word	0x2000008c

0040118c <prvAddCurrentTaskToDelayedList>:
  40118c:	b510      	push	{r4, lr}
  40118e:	4b0d      	ldr	r3, [pc, #52]	; (4011c4 <prvAddCurrentTaskToDelayedList+0x38>)
  401190:	681a      	ldr	r2, [r3, #0]
  401192:	6050      	str	r0, [r2, #4]
  401194:	4a0c      	ldr	r2, [pc, #48]	; (4011c8 <prvAddCurrentTaskToDelayedList+0x3c>)
  401196:	6812      	ldr	r2, [r2, #0]
  401198:	4290      	cmp	r0, r2
  40119a:	4604      	mov	r4, r0
  40119c:	4a0b      	ldr	r2, [pc, #44]	; (4011cc <prvAddCurrentTaskToDelayedList+0x40>)
  40119e:	d206      	bcs.n	4011ae <prvAddCurrentTaskToDelayedList+0x22>
  4011a0:	490b      	ldr	r1, [pc, #44]	; (4011d0 <prvAddCurrentTaskToDelayedList+0x44>)
  4011a2:	6808      	ldr	r0, [r1, #0]
  4011a4:	6819      	ldr	r1, [r3, #0]
  4011a6:	e8bd 4010 	ldmia.w	sp!, {r4, lr}
  4011aa:	3104      	adds	r1, #4
  4011ac:	4710      	bx	r2
  4011ae:	4909      	ldr	r1, [pc, #36]	; (4011d4 <prvAddCurrentTaskToDelayedList+0x48>)
  4011b0:	6808      	ldr	r0, [r1, #0]
  4011b2:	6819      	ldr	r1, [r3, #0]
  4011b4:	3104      	adds	r1, #4
  4011b6:	4790      	blx	r2
  4011b8:	4b07      	ldr	r3, [pc, #28]	; (4011d8 <prvAddCurrentTaskToDelayedList+0x4c>)
  4011ba:	681a      	ldr	r2, [r3, #0]
  4011bc:	4294      	cmp	r4, r2
  4011be:	bf38      	it	cc
  4011c0:	601c      	strcc	r4, [r3, #0]
  4011c2:	bd10      	pop	{r4, pc}
  4011c4:	200136fc 	.word	0x200136fc
  4011c8:	200137f0 	.word	0x200137f0
  4011cc:	00400751 	.word	0x00400751
  4011d0:	20013704 	.word	0x20013704
  4011d4:	20013700 	.word	0x20013700
  4011d8:	2000008c 	.word	0x2000008c

004011dc <xTaskGenericCreate>:
  4011dc:	e92d 4ff8 	stmdb	sp!, {r3, r4, r5, r6, r7, r8, r9, sl, fp, lr}
  4011e0:	9e0a      	ldr	r6, [sp, #40]	; 0x28
  4011e2:	f8dd b030 	ldr.w	fp, [sp, #48]	; 0x30
  4011e6:	460f      	mov	r7, r1
  4011e8:	4615      	mov	r5, r2
  4011ea:	469a      	mov	sl, r3
  4011ec:	4680      	mov	r8, r0
  4011ee:	b910      	cbnz	r0, 4011f6 <xTaskGenericCreate+0x1a>
  4011f0:	4b52      	ldr	r3, [pc, #328]	; (40133c <xTaskGenericCreate+0x160>)
  4011f2:	4798      	blx	r3
  4011f4:	e7fe      	b.n	4011f4 <xTaskGenericCreate+0x18>
  4011f6:	2e04      	cmp	r6, #4
  4011f8:	d902      	bls.n	401200 <xTaskGenericCreate+0x24>
  4011fa:	4b50      	ldr	r3, [pc, #320]	; (40133c <xTaskGenericCreate+0x160>)
  4011fc:	4798      	blx	r3
  4011fe:	e7fe      	b.n	4011fe <xTaskGenericCreate+0x22>
  401200:	2044      	movs	r0, #68	; 0x44
  401202:	f8df 9190 	ldr.w	r9, [pc, #400]	; 401394 <xTaskGenericCreate+0x1b8>
  401206:	47c8      	blx	r9
  401208:	4604      	mov	r4, r0
  40120a:	b148      	cbz	r0, 401220 <xTaskGenericCreate+0x44>
  40120c:	f1bb 0f00 	cmp.w	fp, #0
  401210:	d10a      	bne.n	401228 <xTaskGenericCreate+0x4c>
  401212:	00a8      	lsls	r0, r5, #2
  401214:	47c8      	blx	r9
  401216:	6320      	str	r0, [r4, #48]	; 0x30
  401218:	b990      	cbnz	r0, 401240 <xTaskGenericCreate+0x64>
  40121a:	4620      	mov	r0, r4
  40121c:	4b48      	ldr	r3, [pc, #288]	; (401340 <xTaskGenericCreate+0x164>)
  40121e:	4798      	blx	r3
  401220:	f04f 30ff 	mov.w	r0, #4294967295
  401224:	e8bd 8ff8 	ldmia.w	sp!, {r3, r4, r5, r6, r7, r8, r9, sl, fp, pc}
  401228:	4658      	mov	r0, fp
  40122a:	e7f4      	b.n	401216 <xTaskGenericCreate+0x3a>
  40122c:	f8d9 3000 	ldr.w	r3, [r9]
  401230:	2b00      	cmp	r3, #0
  401232:	d163      	bne.n	4012fc <xTaskGenericCreate+0x120>
  401234:	6813      	ldr	r3, [r2, #0]
  401236:	6adb      	ldr	r3, [r3, #44]	; 0x2c
  401238:	429e      	cmp	r6, r3
  40123a:	bf28      	it	cs
  40123c:	6014      	strcs	r4, [r2, #0]
  40123e:	e05d      	b.n	4012fc <xTaskGenericCreate+0x120>
  401240:	f105 4580 	add.w	r5, r5, #1073741824	; 0x40000000
  401244:	3d01      	subs	r5, #1
  401246:	eb00 0085 	add.w	r0, r0, r5, lsl #2
  40124a:	1e7b      	subs	r3, r7, #1
  40124c:	f020 0507 	bic.w	r5, r0, #7
  401250:	f104 0234 	add.w	r2, r4, #52	; 0x34
  401254:	3709      	adds	r7, #9
  401256:	7859      	ldrb	r1, [r3, #1]
  401258:	f802 1b01 	strb.w	r1, [r2], #1
  40125c:	f813 1f01 	ldrb.w	r1, [r3, #1]!
  401260:	b109      	cbz	r1, 401266 <xTaskGenericCreate+0x8a>
  401262:	429f      	cmp	r7, r3
  401264:	d1f7      	bne.n	401256 <xTaskGenericCreate+0x7a>
  401266:	2300      	movs	r3, #0
  401268:	1d27      	adds	r7, r4, #4
  40126a:	f884 303d 	strb.w	r3, [r4, #61]	; 0x3d
  40126e:	4638      	mov	r0, r7
  401270:	f8df b124 	ldr.w	fp, [pc, #292]	; 401398 <xTaskGenericCreate+0x1bc>
  401274:	62e6      	str	r6, [r4, #44]	; 0x2c
  401276:	6426      	str	r6, [r4, #64]	; 0x40
  401278:	47d8      	blx	fp
  40127a:	f104 0018 	add.w	r0, r4, #24
  40127e:	47d8      	blx	fp
  401280:	f1c6 0305 	rsb	r3, r6, #5
  401284:	61a3      	str	r3, [r4, #24]
  401286:	6124      	str	r4, [r4, #16]
  401288:	4b2e      	ldr	r3, [pc, #184]	; (401344 <xTaskGenericCreate+0x168>)
  40128a:	6264      	str	r4, [r4, #36]	; 0x24
  40128c:	4652      	mov	r2, sl
  40128e:	4641      	mov	r1, r8
  401290:	4628      	mov	r0, r5
  401292:	4798      	blx	r3
  401294:	9b0b      	ldr	r3, [sp, #44]	; 0x2c
  401296:	6020      	str	r0, [r4, #0]
  401298:	b103      	cbz	r3, 40129c <xTaskGenericCreate+0xc0>
  40129a:	601c      	str	r4, [r3, #0]
  40129c:	4b2a      	ldr	r3, [pc, #168]	; (401348 <xTaskGenericCreate+0x16c>)
  40129e:	f8df 90fc 	ldr.w	r9, [pc, #252]	; 40139c <xTaskGenericCreate+0x1c0>
  4012a2:	4798      	blx	r3
  4012a4:	4b29      	ldr	r3, [pc, #164]	; (40134c <xTaskGenericCreate+0x170>)
  4012a6:	681a      	ldr	r2, [r3, #0]
  4012a8:	3201      	adds	r2, #1
  4012aa:	601a      	str	r2, [r3, #0]
  4012ac:	4a28      	ldr	r2, [pc, #160]	; (401350 <xTaskGenericCreate+0x174>)
  4012ae:	6811      	ldr	r1, [r2, #0]
  4012b0:	4690      	mov	r8, r2
  4012b2:	2900      	cmp	r1, #0
  4012b4:	d1ba      	bne.n	40122c <xTaskGenericCreate+0x50>
  4012b6:	6014      	str	r4, [r2, #0]
  4012b8:	681b      	ldr	r3, [r3, #0]
  4012ba:	2b01      	cmp	r3, #1
  4012bc:	d11e      	bne.n	4012fc <xTaskGenericCreate+0x120>
  4012be:	4d25      	ldr	r5, [pc, #148]	; (401354 <xTaskGenericCreate+0x178>)
  4012c0:	4825      	ldr	r0, [pc, #148]	; (401358 <xTaskGenericCreate+0x17c>)
  4012c2:	f8df b0dc 	ldr.w	fp, [pc, #220]	; 4013a0 <xTaskGenericCreate+0x1c4>
  4012c6:	f8df a0dc 	ldr.w	sl, [pc, #220]	; 4013a4 <xTaskGenericCreate+0x1c8>
  4012ca:	47a8      	blx	r5
  4012cc:	4823      	ldr	r0, [pc, #140]	; (40135c <xTaskGenericCreate+0x180>)
  4012ce:	47a8      	blx	r5
  4012d0:	4823      	ldr	r0, [pc, #140]	; (401360 <xTaskGenericCreate+0x184>)
  4012d2:	47a8      	blx	r5
  4012d4:	4823      	ldr	r0, [pc, #140]	; (401364 <xTaskGenericCreate+0x188>)
  4012d6:	47a8      	blx	r5
  4012d8:	4823      	ldr	r0, [pc, #140]	; (401368 <xTaskGenericCreate+0x18c>)
  4012da:	47a8      	blx	r5
  4012dc:	4658      	mov	r0, fp
  4012de:	47a8      	blx	r5
  4012e0:	4650      	mov	r0, sl
  4012e2:	47a8      	blx	r5
  4012e4:	4821      	ldr	r0, [pc, #132]	; (40136c <xTaskGenericCreate+0x190>)
  4012e6:	47a8      	blx	r5
  4012e8:	4821      	ldr	r0, [pc, #132]	; (401370 <xTaskGenericCreate+0x194>)
  4012ea:	47a8      	blx	r5
  4012ec:	4821      	ldr	r0, [pc, #132]	; (401374 <xTaskGenericCreate+0x198>)
  4012ee:	47a8      	blx	r5
  4012f0:	4b21      	ldr	r3, [pc, #132]	; (401378 <xTaskGenericCreate+0x19c>)
  4012f2:	f8c3 b000 	str.w	fp, [r3]
  4012f6:	4b21      	ldr	r3, [pc, #132]	; (40137c <xTaskGenericCreate+0x1a0>)
  4012f8:	f8c3 a000 	str.w	sl, [r3]
  4012fc:	4a20      	ldr	r2, [pc, #128]	; (401380 <xTaskGenericCreate+0x1a4>)
  4012fe:	6813      	ldr	r3, [r2, #0]
  401300:	3301      	adds	r3, #1
  401302:	6013      	str	r3, [r2, #0]
  401304:	4a1f      	ldr	r2, [pc, #124]	; (401384 <xTaskGenericCreate+0x1a8>)
  401306:	6ae3      	ldr	r3, [r4, #44]	; 0x2c
  401308:	6811      	ldr	r1, [r2, #0]
  40130a:	428b      	cmp	r3, r1
  40130c:	bf88      	it	hi
  40130e:	6013      	strhi	r3, [r2, #0]
  401310:	4a11      	ldr	r2, [pc, #68]	; (401358 <xTaskGenericCreate+0x17c>)
  401312:	2014      	movs	r0, #20
  401314:	fb00 2003 	mla	r0, r0, r3, r2
  401318:	4639      	mov	r1, r7
  40131a:	4b1b      	ldr	r3, [pc, #108]	; (401388 <xTaskGenericCreate+0x1ac>)
  40131c:	4798      	blx	r3
  40131e:	4b1b      	ldr	r3, [pc, #108]	; (40138c <xTaskGenericCreate+0x1b0>)
  401320:	4798      	blx	r3
  401322:	f8d9 3000 	ldr.w	r3, [r9]
  401326:	b133      	cbz	r3, 401336 <xTaskGenericCreate+0x15a>
  401328:	f8d8 3000 	ldr.w	r3, [r8]
  40132c:	6adb      	ldr	r3, [r3, #44]	; 0x2c
  40132e:	429e      	cmp	r6, r3
  401330:	d901      	bls.n	401336 <xTaskGenericCreate+0x15a>
  401332:	4b17      	ldr	r3, [pc, #92]	; (401390 <xTaskGenericCreate+0x1b4>)
  401334:	4798      	blx	r3
  401336:	2001      	movs	r0, #1
  401338:	e8bd 8ff8 	ldmia.w	sp!, {r3, r4, r5, r6, r7, r8, r9, sl, fp, pc}
  40133c:	00400831 	.word	0x00400831
  401340:	00400b11 	.word	0x00400b11
  401344:	004007d5 	.word	0x004007d5
  401348:	0040085d 	.word	0x0040085d
  40134c:	2001376c 	.word	0x2001376c
  401350:	200136fc 	.word	0x200136fc
  401354:	0040071d 	.word	0x0040071d
  401358:	20013708 	.word	0x20013708
  40135c:	2001371c 	.word	0x2001371c
  401360:	20013730 	.word	0x20013730
  401364:	20013744 	.word	0x20013744
  401368:	20013758 	.word	0x20013758
  40136c:	200137b0 	.word	0x200137b0
  401370:	200137dc 	.word	0x200137dc
  401374:	200137c8 	.word	0x200137c8
  401378:	20013700 	.word	0x20013700
  40137c:	20013704 	.word	0x20013704
  401380:	20013778 	.word	0x20013778
  401384:	20013780 	.word	0x20013780
  401388:	00400739 	.word	0x00400739
  40138c:	00400885 	.word	0x00400885
  401390:	00400819 	.word	0x00400819
  401394:	00400a4d 	.word	0x00400a4d
  401398:	00400733 	.word	0x00400733
  40139c:	200137c4 	.word	0x200137c4
  4013a0:	20013784 	.word	0x20013784
  4013a4:	20013798 	.word	0x20013798

004013a8 <vTaskStartScheduler>:
  4013a8:	b530      	push	{r4, r5, lr}
  4013aa:	b085      	sub	sp, #20
  4013ac:	2400      	movs	r4, #0
  4013ae:	4d11      	ldr	r5, [pc, #68]	; (4013f4 <vTaskStartScheduler+0x4c>)
  4013b0:	9403      	str	r4, [sp, #12]
  4013b2:	9402      	str	r4, [sp, #8]
  4013b4:	9401      	str	r4, [sp, #4]
  4013b6:	9400      	str	r4, [sp, #0]
  4013b8:	4623      	mov	r3, r4
  4013ba:	2282      	movs	r2, #130	; 0x82
  4013bc:	490e      	ldr	r1, [pc, #56]	; (4013f8 <vTaskStartScheduler+0x50>)
  4013be:	480f      	ldr	r0, [pc, #60]	; (4013fc <vTaskStartScheduler+0x54>)
  4013c0:	47a8      	blx	r5
  4013c2:	2801      	cmp	r0, #1
  4013c4:	4605      	mov	r5, r0
  4013c6:	d10f      	bne.n	4013e8 <vTaskStartScheduler+0x40>
  4013c8:	4b0d      	ldr	r3, [pc, #52]	; (401400 <vTaskStartScheduler+0x58>)
  4013ca:	4798      	blx	r3
  4013cc:	2801      	cmp	r0, #1
  4013ce:	4605      	mov	r5, r0
  4013d0:	d10a      	bne.n	4013e8 <vTaskStartScheduler+0x40>
  4013d2:	4b0c      	ldr	r3, [pc, #48]	; (401404 <vTaskStartScheduler+0x5c>)
  4013d4:	4798      	blx	r3
  4013d6:	4b0c      	ldr	r3, [pc, #48]	; (401408 <vTaskStartScheduler+0x60>)
  4013d8:	601d      	str	r5, [r3, #0]
  4013da:	4b0c      	ldr	r3, [pc, #48]	; (40140c <vTaskStartScheduler+0x64>)
  4013dc:	601c      	str	r4, [r3, #0]
  4013de:	4b0c      	ldr	r3, [pc, #48]	; (401410 <vTaskStartScheduler+0x68>)
  4013e0:	b005      	add	sp, #20
  4013e2:	e8bd 4030 	ldmia.w	sp!, {r4, r5, lr}
  4013e6:	4718      	bx	r3
  4013e8:	b915      	cbnz	r5, 4013f0 <vTaskStartScheduler+0x48>
  4013ea:	4b06      	ldr	r3, [pc, #24]	; (401404 <vTaskStartScheduler+0x5c>)
  4013ec:	4798      	blx	r3
  4013ee:	e7fe      	b.n	4013ee <vTaskStartScheduler+0x46>
  4013f0:	b005      	add	sp, #20
  4013f2:	bd30      	pop	{r4, r5, pc}
  4013f4:	004011dd 	.word	0x004011dd
  4013f8:	00406a88 	.word	0x00406a88
  4013fc:	00401655 	.word	0x00401655
  401400:	00401ab1 	.word	0x00401ab1
  401404:	00400831 	.word	0x00400831
  401408:	200137c4 	.word	0x200137c4
  40140c:	200137f0 	.word	0x200137f0
  401410:	0040094d 	.word	0x0040094d

00401414 <vTaskSuspendAll>:
  401414:	4a02      	ldr	r2, [pc, #8]	; (401420 <vTaskSuspendAll+0xc>)
  401416:	6813      	ldr	r3, [r2, #0]
  401418:	3301      	adds	r3, #1
  40141a:	6013      	str	r3, [r2, #0]
  40141c:	4770      	bx	lr
  40141e:	bf00      	nop
  401420:	20013774 	.word	0x20013774

00401424 <xTaskGetTickCount>:
  401424:	b510      	push	{r4, lr}
  401426:	4b04      	ldr	r3, [pc, #16]	; (401438 <xTaskGetTickCount+0x14>)
  401428:	4798      	blx	r3
  40142a:	4b04      	ldr	r3, [pc, #16]	; (40143c <xTaskGetTickCount+0x18>)
  40142c:	681c      	ldr	r4, [r3, #0]
  40142e:	4b04      	ldr	r3, [pc, #16]	; (401440 <xTaskGetTickCount+0x1c>)
  401430:	4798      	blx	r3
  401432:	4620      	mov	r0, r4
  401434:	bd10      	pop	{r4, pc}
  401436:	bf00      	nop
  401438:	0040085d 	.word	0x0040085d
  40143c:	200137f0 	.word	0x200137f0
  401440:	00400885 	.word	0x00400885

00401444 <xTaskIncrementTick>:
  401444:	e92d 4ff8 	stmdb	sp!, {r3, r4, r5, r6, r7, r8, r9, sl, fp, lr}
  401448:	4b39      	ldr	r3, [pc, #228]	; (401530 <xTaskIncrementTick+0xec>)
  40144a:	681b      	ldr	r3, [r3, #0]
  40144c:	2b00      	cmp	r3, #0
  40144e:	d14c      	bne.n	4014ea <xTaskIncrementTick+0xa6>
  401450:	4b38      	ldr	r3, [pc, #224]	; (401534 <xTaskIncrementTick+0xf0>)
  401452:	681a      	ldr	r2, [r3, #0]
  401454:	3201      	adds	r2, #1
  401456:	601a      	str	r2, [r3, #0]
  401458:	681d      	ldr	r5, [r3, #0]
  40145a:	b98d      	cbnz	r5, 401480 <xTaskIncrementTick+0x3c>
  40145c:	4b36      	ldr	r3, [pc, #216]	; (401538 <xTaskIncrementTick+0xf4>)
  40145e:	681a      	ldr	r2, [r3, #0]
  401460:	6812      	ldr	r2, [r2, #0]
  401462:	b112      	cbz	r2, 40146a <xTaskIncrementTick+0x26>
  401464:	4b35      	ldr	r3, [pc, #212]	; (40153c <xTaskIncrementTick+0xf8>)
  401466:	4798      	blx	r3
  401468:	e7fe      	b.n	401468 <xTaskIncrementTick+0x24>
  40146a:	4a35      	ldr	r2, [pc, #212]	; (401540 <xTaskIncrementTick+0xfc>)
  40146c:	6819      	ldr	r1, [r3, #0]
  40146e:	6810      	ldr	r0, [r2, #0]
  401470:	6018      	str	r0, [r3, #0]
  401472:	6011      	str	r1, [r2, #0]
  401474:	4a33      	ldr	r2, [pc, #204]	; (401544 <xTaskIncrementTick+0x100>)
  401476:	6813      	ldr	r3, [r2, #0]
  401478:	3301      	adds	r3, #1
  40147a:	6013      	str	r3, [r2, #0]
  40147c:	4b32      	ldr	r3, [pc, #200]	; (401548 <xTaskIncrementTick+0x104>)
  40147e:	4798      	blx	r3
  401480:	4c32      	ldr	r4, [pc, #200]	; (40154c <xTaskIncrementTick+0x108>)
  401482:	4f33      	ldr	r7, [pc, #204]	; (401550 <xTaskIncrementTick+0x10c>)
  401484:	6823      	ldr	r3, [r4, #0]
  401486:	429d      	cmp	r5, r3
  401488:	f04f 0900 	mov.w	r9, #0
  40148c:	d33c      	bcc.n	401508 <xTaskIncrementTick+0xc4>
  40148e:	f8df 80a8 	ldr.w	r8, [pc, #168]	; 401538 <xTaskIncrementTick+0xf4>
  401492:	f8df a0d4 	ldr.w	sl, [pc, #212]	; 401568 <xTaskIncrementTick+0x124>
  401496:	f8d8 2000 	ldr.w	r2, [r8]
  40149a:	6812      	ldr	r2, [r2, #0]
  40149c:	bb62      	cbnz	r2, 4014f8 <xTaskIncrementTick+0xb4>
  40149e:	f04f 32ff 	mov.w	r2, #4294967295
  4014a2:	6022      	str	r2, [r4, #0]
  4014a4:	e030      	b.n	401508 <xTaskIncrementTick+0xc4>
  4014a6:	f106 0b04 	add.w	fp, r6, #4
  4014aa:	4658      	mov	r0, fp
  4014ac:	4b29      	ldr	r3, [pc, #164]	; (401554 <xTaskIncrementTick+0x110>)
  4014ae:	4798      	blx	r3
  4014b0:	6ab1      	ldr	r1, [r6, #40]	; 0x28
  4014b2:	b119      	cbz	r1, 4014bc <xTaskIncrementTick+0x78>
  4014b4:	f106 0018 	add.w	r0, r6, #24
  4014b8:	4b26      	ldr	r3, [pc, #152]	; (401554 <xTaskIncrementTick+0x110>)
  4014ba:	4798      	blx	r3
  4014bc:	6af0      	ldr	r0, [r6, #44]	; 0x2c
  4014be:	f8da 1000 	ldr.w	r1, [sl]
  4014c2:	4b25      	ldr	r3, [pc, #148]	; (401558 <xTaskIncrementTick+0x114>)
  4014c4:	4288      	cmp	r0, r1
  4014c6:	f04f 0e14 	mov.w	lr, #20
  4014ca:	bf88      	it	hi
  4014cc:	f8ca 0000 	strhi.w	r0, [sl]
  4014d0:	4659      	mov	r1, fp
  4014d2:	fb0e 3000 	mla	r0, lr, r0, r3
  4014d6:	4b21      	ldr	r3, [pc, #132]	; (40155c <xTaskIncrementTick+0x118>)
  4014d8:	4798      	blx	r3
  4014da:	6838      	ldr	r0, [r7, #0]
  4014dc:	6af1      	ldr	r1, [r6, #44]	; 0x2c
  4014de:	6ac2      	ldr	r2, [r0, #44]	; 0x2c
  4014e0:	4291      	cmp	r1, r2
  4014e2:	bf28      	it	cs
  4014e4:	f04f 0901 	movcs.w	r9, #1
  4014e8:	e7d5      	b.n	401496 <xTaskIncrementTick+0x52>
  4014ea:	4a1d      	ldr	r2, [pc, #116]	; (401560 <xTaskIncrementTick+0x11c>)
  4014ec:	6813      	ldr	r3, [r2, #0]
  4014ee:	3301      	adds	r3, #1
  4014f0:	6013      	str	r3, [r2, #0]
  4014f2:	f04f 0900 	mov.w	r9, #0
  4014f6:	e011      	b.n	40151c <xTaskIncrementTick+0xd8>
  4014f8:	f8d8 2000 	ldr.w	r2, [r8]
  4014fc:	68d2      	ldr	r2, [r2, #12]
  4014fe:	68d6      	ldr	r6, [r2, #12]
  401500:	6871      	ldr	r1, [r6, #4]
  401502:	428d      	cmp	r5, r1
  401504:	d2cf      	bcs.n	4014a6 <xTaskIncrementTick+0x62>
  401506:	6021      	str	r1, [r4, #0]
  401508:	683a      	ldr	r2, [r7, #0]
  40150a:	4b13      	ldr	r3, [pc, #76]	; (401558 <xTaskIncrementTick+0x114>)
  40150c:	6ad1      	ldr	r1, [r2, #44]	; 0x2c
  40150e:	2214      	movs	r2, #20
  401510:	434a      	muls	r2, r1
  401512:	589a      	ldr	r2, [r3, r2]
  401514:	2a02      	cmp	r2, #2
  401516:	bf28      	it	cs
  401518:	f04f 0901 	movcs.w	r9, #1
  40151c:	4a11      	ldr	r2, [pc, #68]	; (401564 <xTaskIncrementTick+0x120>)
  40151e:	6812      	ldr	r2, [r2, #0]
  401520:	2a00      	cmp	r2, #0
  401522:	bf18      	it	ne
  401524:	f04f 0901 	movne.w	r9, #1
  401528:	4648      	mov	r0, r9
  40152a:	e8bd 8ff8 	ldmia.w	sp!, {r3, r4, r5, r6, r7, r8, r9, sl, fp, pc}
  40152e:	bf00      	nop
  401530:	20013774 	.word	0x20013774
  401534:	200137f0 	.word	0x200137f0
  401538:	20013700 	.word	0x20013700
  40153c:	00400831 	.word	0x00400831
  401540:	20013704 	.word	0x20013704
  401544:	200137ac 	.word	0x200137ac
  401548:	00401169 	.word	0x00401169
  40154c:	2000008c 	.word	0x2000008c
  401550:	200136fc 	.word	0x200136fc
  401554:	0040077f 	.word	0x0040077f
  401558:	20013708 	.word	0x20013708
  40155c:	00400739 	.word	0x00400739
  401560:	20013770 	.word	0x20013770
  401564:	200137f4 	.word	0x200137f4
  401568:	20013780 	.word	0x20013780

0040156c <xTaskResumeAll>:
  40156c:	e92d 41f0 	stmdb	sp!, {r4, r5, r6, r7, r8, lr}
  401570:	4c29      	ldr	r4, [pc, #164]	; (401618 <xTaskResumeAll+0xac>)
  401572:	6823      	ldr	r3, [r4, #0]
  401574:	b913      	cbnz	r3, 40157c <xTaskResumeAll+0x10>
  401576:	4b29      	ldr	r3, [pc, #164]	; (40161c <xTaskResumeAll+0xb0>)
  401578:	4798      	blx	r3
  40157a:	e7fe      	b.n	40157a <xTaskResumeAll+0xe>
  40157c:	4b28      	ldr	r3, [pc, #160]	; (401620 <xTaskResumeAll+0xb4>)
  40157e:	4798      	blx	r3
  401580:	6823      	ldr	r3, [r4, #0]
  401582:	3b01      	subs	r3, #1
  401584:	6023      	str	r3, [r4, #0]
  401586:	6823      	ldr	r3, [r4, #0]
  401588:	b12b      	cbz	r3, 401596 <xTaskResumeAll+0x2a>
  40158a:	2400      	movs	r4, #0
  40158c:	4b25      	ldr	r3, [pc, #148]	; (401624 <xTaskResumeAll+0xb8>)
  40158e:	4798      	blx	r3
  401590:	4620      	mov	r0, r4
  401592:	e8bd 81f0 	ldmia.w	sp!, {r4, r5, r6, r7, r8, pc}
  401596:	4b24      	ldr	r3, [pc, #144]	; (401628 <xTaskResumeAll+0xbc>)
  401598:	681b      	ldr	r3, [r3, #0]
  40159a:	2b00      	cmp	r3, #0
  40159c:	d0f5      	beq.n	40158a <xTaskResumeAll+0x1e>
  40159e:	4d23      	ldr	r5, [pc, #140]	; (40162c <xTaskResumeAll+0xc0>)
  4015a0:	4e23      	ldr	r6, [pc, #140]	; (401630 <xTaskResumeAll+0xc4>)
  4015a2:	e01d      	b.n	4015e0 <xTaskResumeAll+0x74>
  4015a4:	68eb      	ldr	r3, [r5, #12]
  4015a6:	68dc      	ldr	r4, [r3, #12]
  4015a8:	f104 0804 	add.w	r8, r4, #4
  4015ac:	f104 0018 	add.w	r0, r4, #24
  4015b0:	47b0      	blx	r6
  4015b2:	4640      	mov	r0, r8
  4015b4:	47b0      	blx	r6
  4015b6:	6ae3      	ldr	r3, [r4, #44]	; 0x2c
  4015b8:	683a      	ldr	r2, [r7, #0]
  4015ba:	4293      	cmp	r3, r2
  4015bc:	4a1d      	ldr	r2, [pc, #116]	; (401634 <xTaskResumeAll+0xc8>)
  4015be:	bf88      	it	hi
  4015c0:	603b      	strhi	r3, [r7, #0]
  4015c2:	2014      	movs	r0, #20
  4015c4:	fb00 2003 	mla	r0, r0, r3, r2
  4015c8:	4641      	mov	r1, r8
  4015ca:	4b1b      	ldr	r3, [pc, #108]	; (401638 <xTaskResumeAll+0xcc>)
  4015cc:	4798      	blx	r3
  4015ce:	4b1b      	ldr	r3, [pc, #108]	; (40163c <xTaskResumeAll+0xd0>)
  4015d0:	6ae2      	ldr	r2, [r4, #44]	; 0x2c
  4015d2:	681b      	ldr	r3, [r3, #0]
  4015d4:	6adb      	ldr	r3, [r3, #44]	; 0x2c
  4015d6:	429a      	cmp	r2, r3
  4015d8:	d303      	bcc.n	4015e2 <xTaskResumeAll+0x76>
  4015da:	4b19      	ldr	r3, [pc, #100]	; (401640 <xTaskResumeAll+0xd4>)
  4015dc:	2201      	movs	r2, #1
  4015de:	601a      	str	r2, [r3, #0]
  4015e0:	4f18      	ldr	r7, [pc, #96]	; (401644 <xTaskResumeAll+0xd8>)
  4015e2:	682b      	ldr	r3, [r5, #0]
  4015e4:	2b00      	cmp	r3, #0
  4015e6:	d1dd      	bne.n	4015a4 <xTaskResumeAll+0x38>
  4015e8:	4c17      	ldr	r4, [pc, #92]	; (401648 <xTaskResumeAll+0xdc>)
  4015ea:	6823      	ldr	r3, [r4, #0]
  4015ec:	b983      	cbnz	r3, 401610 <xTaskResumeAll+0xa4>
  4015ee:	4b14      	ldr	r3, [pc, #80]	; (401640 <xTaskResumeAll+0xd4>)
  4015f0:	681c      	ldr	r4, [r3, #0]
  4015f2:	2c01      	cmp	r4, #1
  4015f4:	d1c9      	bne.n	40158a <xTaskResumeAll+0x1e>
  4015f6:	4b15      	ldr	r3, [pc, #84]	; (40164c <xTaskResumeAll+0xe0>)
  4015f8:	4798      	blx	r3
  4015fa:	e7c7      	b.n	40158c <xTaskResumeAll+0x20>
  4015fc:	47a8      	blx	r5
  4015fe:	b100      	cbz	r0, 401602 <xTaskResumeAll+0x96>
  401600:	6037      	str	r7, [r6, #0]
  401602:	6823      	ldr	r3, [r4, #0]
  401604:	3b01      	subs	r3, #1
  401606:	6023      	str	r3, [r4, #0]
  401608:	6823      	ldr	r3, [r4, #0]
  40160a:	2b00      	cmp	r3, #0
  40160c:	d1f6      	bne.n	4015fc <xTaskResumeAll+0x90>
  40160e:	e7ee      	b.n	4015ee <xTaskResumeAll+0x82>
  401610:	4d0f      	ldr	r5, [pc, #60]	; (401650 <xTaskResumeAll+0xe4>)
  401612:	4e0b      	ldr	r6, [pc, #44]	; (401640 <xTaskResumeAll+0xd4>)
  401614:	2701      	movs	r7, #1
  401616:	e7f7      	b.n	401608 <xTaskResumeAll+0x9c>
  401618:	20013774 	.word	0x20013774
  40161c:	00400831 	.word	0x00400831
  401620:	0040085d 	.word	0x0040085d
  401624:	00400885 	.word	0x00400885
  401628:	2001376c 	.word	0x2001376c
  40162c:	200137b0 	.word	0x200137b0
  401630:	0040077f 	.word	0x0040077f
  401634:	20013708 	.word	0x20013708
  401638:	00400739 	.word	0x00400739
  40163c:	200136fc 	.word	0x200136fc
  401640:	200137f4 	.word	0x200137f4
  401644:	20013780 	.word	0x20013780
  401648:	20013770 	.word	0x20013770
  40164c:	00400819 	.word	0x00400819
  401650:	00401445 	.word	0x00401445

00401654 <prvIdleTask>:
  401654:	b580      	push	{r7, lr}
  401656:	4c14      	ldr	r4, [pc, #80]	; (4016a8 <prvIdleTask+0x54>)
  401658:	4e14      	ldr	r6, [pc, #80]	; (4016ac <prvIdleTask+0x58>)
  40165a:	4d15      	ldr	r5, [pc, #84]	; (4016b0 <prvIdleTask+0x5c>)
  40165c:	6823      	ldr	r3, [r4, #0]
  40165e:	b933      	cbnz	r3, 40166e <prvIdleTask+0x1a>
  401660:	4b14      	ldr	r3, [pc, #80]	; (4016b4 <prvIdleTask+0x60>)
  401662:	681b      	ldr	r3, [r3, #0]
  401664:	2b01      	cmp	r3, #1
  401666:	d9f8      	bls.n	40165a <prvIdleTask+0x6>
  401668:	4b13      	ldr	r3, [pc, #76]	; (4016b8 <prvIdleTask+0x64>)
  40166a:	4798      	blx	r3
  40166c:	e7f5      	b.n	40165a <prvIdleTask+0x6>
  40166e:	47b0      	blx	r6
  401670:	682f      	ldr	r7, [r5, #0]
  401672:	4b12      	ldr	r3, [pc, #72]	; (4016bc <prvIdleTask+0x68>)
  401674:	4798      	blx	r3
  401676:	2f00      	cmp	r7, #0
  401678:	d0f0      	beq.n	40165c <prvIdleTask+0x8>
  40167a:	4b11      	ldr	r3, [pc, #68]	; (4016c0 <prvIdleTask+0x6c>)
  40167c:	4f11      	ldr	r7, [pc, #68]	; (4016c4 <prvIdleTask+0x70>)
  40167e:	4798      	blx	r3
  401680:	68eb      	ldr	r3, [r5, #12]
  401682:	68dd      	ldr	r5, [r3, #12]
  401684:	4b10      	ldr	r3, [pc, #64]	; (4016c8 <prvIdleTask+0x74>)
  401686:	1d28      	adds	r0, r5, #4
  401688:	4798      	blx	r3
  40168a:	4a10      	ldr	r2, [pc, #64]	; (4016cc <prvIdleTask+0x78>)
  40168c:	6813      	ldr	r3, [r2, #0]
  40168e:	3b01      	subs	r3, #1
  401690:	6013      	str	r3, [r2, #0]
  401692:	6823      	ldr	r3, [r4, #0]
  401694:	3b01      	subs	r3, #1
  401696:	6023      	str	r3, [r4, #0]
  401698:	4b0d      	ldr	r3, [pc, #52]	; (4016d0 <prvIdleTask+0x7c>)
  40169a:	4798      	blx	r3
  40169c:	6b28      	ldr	r0, [r5, #48]	; 0x30
  40169e:	47b8      	blx	r7
  4016a0:	4628      	mov	r0, r5
  4016a2:	47b8      	blx	r7
  4016a4:	e7d9      	b.n	40165a <prvIdleTask+0x6>
  4016a6:	bf00      	nop
  4016a8:	2001377c 	.word	0x2001377c
  4016ac:	00401415 	.word	0x00401415
  4016b0:	200137dc 	.word	0x200137dc
  4016b4:	20013708 	.word	0x20013708
  4016b8:	00400819 	.word	0x00400819
  4016bc:	0040156d 	.word	0x0040156d
  4016c0:	0040085d 	.word	0x0040085d
  4016c4:	00400b11 	.word	0x00400b11
  4016c8:	0040077f 	.word	0x0040077f
  4016cc:	2001376c 	.word	0x2001376c
  4016d0:	00400885 	.word	0x00400885

004016d4 <vTaskSwitchContext>:
  4016d4:	b538      	push	{r3, r4, r5, lr}
  4016d6:	4b16      	ldr	r3, [pc, #88]	; (401730 <vTaskSwitchContext+0x5c>)
  4016d8:	681a      	ldr	r2, [r3, #0]
  4016da:	4b16      	ldr	r3, [pc, #88]	; (401734 <vTaskSwitchContext+0x60>)
  4016dc:	b112      	cbz	r2, 4016e4 <vTaskSwitchContext+0x10>
  4016de:	2201      	movs	r2, #1
  4016e0:	601a      	str	r2, [r3, #0]
  4016e2:	bd38      	pop	{r3, r4, r5, pc}
  4016e4:	601a      	str	r2, [r3, #0]
  4016e6:	4a14      	ldr	r2, [pc, #80]	; (401738 <vTaskSwitchContext+0x64>)
  4016e8:	4914      	ldr	r1, [pc, #80]	; (40173c <vTaskSwitchContext+0x68>)
  4016ea:	2314      	movs	r3, #20
  4016ec:	4615      	mov	r5, r2
  4016ee:	6808      	ldr	r0, [r1, #0]
  4016f0:	4358      	muls	r0, r3
  4016f2:	5810      	ldr	r0, [r2, r0]
  4016f4:	b190      	cbz	r0, 40171c <vTaskSwitchContext+0x48>
  4016f6:	6809      	ldr	r1, [r1, #0]
  4016f8:	434b      	muls	r3, r1
  4016fa:	18d0      	adds	r0, r2, r3
  4016fc:	3308      	adds	r3, #8
  4016fe:	6844      	ldr	r4, [r0, #4]
  401700:	6864      	ldr	r4, [r4, #4]
  401702:	6044      	str	r4, [r0, #4]
  401704:	4413      	add	r3, r2
  401706:	429c      	cmp	r4, r3
  401708:	bf04      	itt	eq
  40170a:	6863      	ldreq	r3, [r4, #4]
  40170c:	6043      	streq	r3, [r0, #4]
  40170e:	2314      	movs	r3, #20
  401710:	fb03 5101 	mla	r1, r3, r1, r5
  401714:	684b      	ldr	r3, [r1, #4]
  401716:	68da      	ldr	r2, [r3, #12]
  401718:	4b09      	ldr	r3, [pc, #36]	; (401740 <vTaskSwitchContext+0x6c>)
  40171a:	e7e1      	b.n	4016e0 <vTaskSwitchContext+0xc>
  40171c:	6808      	ldr	r0, [r1, #0]
  40171e:	b910      	cbnz	r0, 401726 <vTaskSwitchContext+0x52>
  401720:	4b08      	ldr	r3, [pc, #32]	; (401744 <vTaskSwitchContext+0x70>)
  401722:	4798      	blx	r3
  401724:	e7fe      	b.n	401724 <vTaskSwitchContext+0x50>
  401726:	6808      	ldr	r0, [r1, #0]
  401728:	3801      	subs	r0, #1
  40172a:	6008      	str	r0, [r1, #0]
  40172c:	e7df      	b.n	4016ee <vTaskSwitchContext+0x1a>
  40172e:	bf00      	nop
  401730:	20013774 	.word	0x20013774
  401734:	200137f4 	.word	0x200137f4
  401738:	20013708 	.word	0x20013708
  40173c:	20013780 	.word	0x20013780
  401740:	200136fc 	.word	0x200136fc
  401744:	00400831 	.word	0x00400831

00401748 <vTaskPlaceOnEventList>:
  401748:	b570      	push	{r4, r5, r6, lr}
  40174a:	460d      	mov	r5, r1
  40174c:	b910      	cbnz	r0, 401754 <vTaskPlaceOnEventList+0xc>
  40174e:	4b0e      	ldr	r3, [pc, #56]	; (401788 <vTaskPlaceOnEventList+0x40>)
  401750:	4798      	blx	r3
  401752:	e7fe      	b.n	401752 <vTaskPlaceOnEventList+0xa>
  401754:	4c0d      	ldr	r4, [pc, #52]	; (40178c <vTaskPlaceOnEventList+0x44>)
  401756:	4b0e      	ldr	r3, [pc, #56]	; (401790 <vTaskPlaceOnEventList+0x48>)
  401758:	6821      	ldr	r1, [r4, #0]
  40175a:	3118      	adds	r1, #24
  40175c:	4798      	blx	r3
  40175e:	6820      	ldr	r0, [r4, #0]
  401760:	4b0c      	ldr	r3, [pc, #48]	; (401794 <vTaskPlaceOnEventList+0x4c>)
  401762:	3004      	adds	r0, #4
  401764:	4798      	blx	r3
  401766:	1c6b      	adds	r3, r5, #1
  401768:	d106      	bne.n	401778 <vTaskPlaceOnEventList+0x30>
  40176a:	6821      	ldr	r1, [r4, #0]
  40176c:	480a      	ldr	r0, [pc, #40]	; (401798 <vTaskPlaceOnEventList+0x50>)
  40176e:	4b0b      	ldr	r3, [pc, #44]	; (40179c <vTaskPlaceOnEventList+0x54>)
  401770:	3104      	adds	r1, #4
  401772:	e8bd 4070 	ldmia.w	sp!, {r4, r5, r6, lr}
  401776:	4718      	bx	r3
  401778:	4b09      	ldr	r3, [pc, #36]	; (4017a0 <vTaskPlaceOnEventList+0x58>)
  40177a:	6818      	ldr	r0, [r3, #0]
  40177c:	4b09      	ldr	r3, [pc, #36]	; (4017a4 <vTaskPlaceOnEventList+0x5c>)
  40177e:	4428      	add	r0, r5
  401780:	e8bd 4070 	ldmia.w	sp!, {r4, r5, r6, lr}
  401784:	4718      	bx	r3
  401786:	bf00      	nop
  401788:	00400831 	.word	0x00400831
  40178c:	200136fc 	.word	0x200136fc
  401790:	00400751 	.word	0x00400751
  401794:	0040077f 	.word	0x0040077f
  401798:	200137c8 	.word	0x200137c8
  40179c:	00400739 	.word	0x00400739
  4017a0:	200137f0 	.word	0x200137f0
  4017a4:	0040118d 	.word	0x0040118d

004017a8 <vTaskPlaceOnEventListRestricted>:
  4017a8:	b570      	push	{r4, r5, r6, lr}
  4017aa:	460d      	mov	r5, r1
  4017ac:	b910      	cbnz	r0, 4017b4 <vTaskPlaceOnEventListRestricted+0xc>
  4017ae:	4b09      	ldr	r3, [pc, #36]	; (4017d4 <vTaskPlaceOnEventListRestricted+0x2c>)
  4017b0:	4798      	blx	r3
  4017b2:	e7fe      	b.n	4017b2 <vTaskPlaceOnEventListRestricted+0xa>
  4017b4:	4c08      	ldr	r4, [pc, #32]	; (4017d8 <vTaskPlaceOnEventListRestricted+0x30>)
  4017b6:	4b09      	ldr	r3, [pc, #36]	; (4017dc <vTaskPlaceOnEventListRestricted+0x34>)
  4017b8:	6821      	ldr	r1, [r4, #0]
  4017ba:	3118      	adds	r1, #24
  4017bc:	4798      	blx	r3
  4017be:	6820      	ldr	r0, [r4, #0]
  4017c0:	4b07      	ldr	r3, [pc, #28]	; (4017e0 <vTaskPlaceOnEventListRestricted+0x38>)
  4017c2:	3004      	adds	r0, #4
  4017c4:	4798      	blx	r3
  4017c6:	4b07      	ldr	r3, [pc, #28]	; (4017e4 <vTaskPlaceOnEventListRestricted+0x3c>)
  4017c8:	6818      	ldr	r0, [r3, #0]
  4017ca:	4b07      	ldr	r3, [pc, #28]	; (4017e8 <vTaskPlaceOnEventListRestricted+0x40>)
  4017cc:	4428      	add	r0, r5
  4017ce:	e8bd 4070 	ldmia.w	sp!, {r4, r5, r6, lr}
  4017d2:	4718      	bx	r3
  4017d4:	00400831 	.word	0x00400831
  4017d8:	200136fc 	.word	0x200136fc
  4017dc:	00400739 	.word	0x00400739
  4017e0:	0040077f 	.word	0x0040077f
  4017e4:	200137f0 	.word	0x200137f0
  4017e8:	0040118d 	.word	0x0040118d

004017ec <xTaskRemoveFromEventList>:
  4017ec:	b5f8      	push	{r3, r4, r5, r6, r7, lr}
  4017ee:	68c3      	ldr	r3, [r0, #12]
  4017f0:	68dc      	ldr	r4, [r3, #12]
  4017f2:	b914      	cbnz	r4, 4017fa <xTaskRemoveFromEventList+0xe>
  4017f4:	4b14      	ldr	r3, [pc, #80]	; (401848 <xTaskRemoveFromEventList+0x5c>)
  4017f6:	4798      	blx	r3
  4017f8:	e7fe      	b.n	4017f8 <xTaskRemoveFromEventList+0xc>
  4017fa:	f104 0618 	add.w	r6, r4, #24
  4017fe:	4630      	mov	r0, r6
  401800:	4f12      	ldr	r7, [pc, #72]	; (40184c <xTaskRemoveFromEventList+0x60>)
  401802:	4d13      	ldr	r5, [pc, #76]	; (401850 <xTaskRemoveFromEventList+0x64>)
  401804:	47b8      	blx	r7
  401806:	4b13      	ldr	r3, [pc, #76]	; (401854 <xTaskRemoveFromEventList+0x68>)
  401808:	681b      	ldr	r3, [r3, #0]
  40180a:	b9cb      	cbnz	r3, 401840 <xTaskRemoveFromEventList+0x54>
  40180c:	1d26      	adds	r6, r4, #4
  40180e:	4630      	mov	r0, r6
  401810:	47b8      	blx	r7
  401812:	4a11      	ldr	r2, [pc, #68]	; (401858 <xTaskRemoveFromEventList+0x6c>)
  401814:	6ae3      	ldr	r3, [r4, #44]	; 0x2c
  401816:	6811      	ldr	r1, [r2, #0]
  401818:	428b      	cmp	r3, r1
  40181a:	bf88      	it	hi
  40181c:	6013      	strhi	r3, [r2, #0]
  40181e:	4a0f      	ldr	r2, [pc, #60]	; (40185c <xTaskRemoveFromEventList+0x70>)
  401820:	2014      	movs	r0, #20
  401822:	4631      	mov	r1, r6
  401824:	fb00 2003 	mla	r0, r0, r3, r2
  401828:	47a8      	blx	r5
  40182a:	4b0d      	ldr	r3, [pc, #52]	; (401860 <xTaskRemoveFromEventList+0x74>)
  40182c:	6ae2      	ldr	r2, [r4, #44]	; 0x2c
  40182e:	681b      	ldr	r3, [r3, #0]
  401830:	6adb      	ldr	r3, [r3, #44]	; 0x2c
  401832:	429a      	cmp	r2, r3
  401834:	bf83      	ittte	hi
  401836:	4b0b      	ldrhi	r3, [pc, #44]	; (401864 <xTaskRemoveFromEventList+0x78>)
  401838:	2001      	movhi	r0, #1
  40183a:	6018      	strhi	r0, [r3, #0]
  40183c:	2000      	movls	r0, #0
  40183e:	bdf8      	pop	{r3, r4, r5, r6, r7, pc}
  401840:	4631      	mov	r1, r6
  401842:	4809      	ldr	r0, [pc, #36]	; (401868 <xTaskRemoveFromEventList+0x7c>)
  401844:	e7f0      	b.n	401828 <xTaskRemoveFromEventList+0x3c>
  401846:	bf00      	nop
  401848:	00400831 	.word	0x00400831
  40184c:	0040077f 	.word	0x0040077f
  401850:	00400739 	.word	0x00400739
  401854:	20013774 	.word	0x20013774
  401858:	20013780 	.word	0x20013780
  40185c:	20013708 	.word	0x20013708
  401860:	200136fc 	.word	0x200136fc
  401864:	200137f4 	.word	0x200137f4
  401868:	200137b0 	.word	0x200137b0

0040186c <vTaskSetTimeOutState>:
  40186c:	b508      	push	{r3, lr}
  40186e:	b910      	cbnz	r0, 401876 <vTaskSetTimeOutState+0xa>
  401870:	4b04      	ldr	r3, [pc, #16]	; (401884 <vTaskSetTimeOutState+0x18>)
  401872:	4798      	blx	r3
  401874:	e7fe      	b.n	401874 <vTaskSetTimeOutState+0x8>
  401876:	4b04      	ldr	r3, [pc, #16]	; (401888 <vTaskSetTimeOutState+0x1c>)
  401878:	681b      	ldr	r3, [r3, #0]
  40187a:	6003      	str	r3, [r0, #0]
  40187c:	4b03      	ldr	r3, [pc, #12]	; (40188c <vTaskSetTimeOutState+0x20>)
  40187e:	681b      	ldr	r3, [r3, #0]
  401880:	6043      	str	r3, [r0, #4]
  401882:	bd08      	pop	{r3, pc}
  401884:	00400831 	.word	0x00400831
  401888:	200137ac 	.word	0x200137ac
  40188c:	200137f0 	.word	0x200137f0

00401890 <xTaskCheckForTimeOut>:
  401890:	b538      	push	{r3, r4, r5, lr}
  401892:	460d      	mov	r5, r1
  401894:	4604      	mov	r4, r0
  401896:	b910      	cbnz	r0, 40189e <xTaskCheckForTimeOut+0xe>
  401898:	4b12      	ldr	r3, [pc, #72]	; (4018e4 <xTaskCheckForTimeOut+0x54>)
  40189a:	4798      	blx	r3
  40189c:	e7fe      	b.n	40189c <xTaskCheckForTimeOut+0xc>
  40189e:	b911      	cbnz	r1, 4018a6 <xTaskCheckForTimeOut+0x16>
  4018a0:	4b10      	ldr	r3, [pc, #64]	; (4018e4 <xTaskCheckForTimeOut+0x54>)
  4018a2:	4798      	blx	r3
  4018a4:	e7fe      	b.n	4018a4 <xTaskCheckForTimeOut+0x14>
  4018a6:	4b10      	ldr	r3, [pc, #64]	; (4018e8 <xTaskCheckForTimeOut+0x58>)
  4018a8:	4798      	blx	r3
  4018aa:	4b10      	ldr	r3, [pc, #64]	; (4018ec <xTaskCheckForTimeOut+0x5c>)
  4018ac:	6819      	ldr	r1, [r3, #0]
  4018ae:	682b      	ldr	r3, [r5, #0]
  4018b0:	1c5a      	adds	r2, r3, #1
  4018b2:	d010      	beq.n	4018d6 <xTaskCheckForTimeOut+0x46>
  4018b4:	4a0e      	ldr	r2, [pc, #56]	; (4018f0 <xTaskCheckForTimeOut+0x60>)
  4018b6:	6820      	ldr	r0, [r4, #0]
  4018b8:	6812      	ldr	r2, [r2, #0]
  4018ba:	4290      	cmp	r0, r2
  4018bc:	6862      	ldr	r2, [r4, #4]
  4018be:	d001      	beq.n	4018c4 <xTaskCheckForTimeOut+0x34>
  4018c0:	4291      	cmp	r1, r2
  4018c2:	d20d      	bcs.n	4018e0 <xTaskCheckForTimeOut+0x50>
  4018c4:	1a88      	subs	r0, r1, r2
  4018c6:	4283      	cmp	r3, r0
  4018c8:	d90a      	bls.n	4018e0 <xTaskCheckForTimeOut+0x50>
  4018ca:	1a5b      	subs	r3, r3, r1
  4018cc:	4413      	add	r3, r2
  4018ce:	602b      	str	r3, [r5, #0]
  4018d0:	4620      	mov	r0, r4
  4018d2:	4b08      	ldr	r3, [pc, #32]	; (4018f4 <xTaskCheckForTimeOut+0x64>)
  4018d4:	4798      	blx	r3
  4018d6:	2400      	movs	r4, #0
  4018d8:	4b07      	ldr	r3, [pc, #28]	; (4018f8 <xTaskCheckForTimeOut+0x68>)
  4018da:	4798      	blx	r3
  4018dc:	4620      	mov	r0, r4
  4018de:	bd38      	pop	{r3, r4, r5, pc}
  4018e0:	2401      	movs	r4, #1
  4018e2:	e7f9      	b.n	4018d8 <xTaskCheckForTimeOut+0x48>
  4018e4:	00400831 	.word	0x00400831
  4018e8:	0040085d 	.word	0x0040085d
  4018ec:	200137f0 	.word	0x200137f0
  4018f0:	200137ac 	.word	0x200137ac
  4018f4:	0040186d 	.word	0x0040186d
  4018f8:	00400885 	.word	0x00400885

004018fc <vTaskMissedYield>:
  4018fc:	4b01      	ldr	r3, [pc, #4]	; (401904 <vTaskMissedYield+0x8>)
  4018fe:	2201      	movs	r2, #1
  401900:	601a      	str	r2, [r3, #0]
  401902:	4770      	bx	lr
  401904:	200137f4 	.word	0x200137f4

00401908 <xTaskGetCurrentTaskHandle>:
  401908:	4b01      	ldr	r3, [pc, #4]	; (401910 <xTaskGetCurrentTaskHandle+0x8>)
  40190a:	6818      	ldr	r0, [r3, #0]
  40190c:	4770      	bx	lr
  40190e:	bf00      	nop
  401910:	200136fc 	.word	0x200136fc

00401914 <xTaskGetSchedulerState>:
  401914:	4b05      	ldr	r3, [pc, #20]	; (40192c <xTaskGetSchedulerState+0x18>)
  401916:	681b      	ldr	r3, [r3, #0]
  401918:	b133      	cbz	r3, 401928 <xTaskGetSchedulerState+0x14>
  40191a:	4b05      	ldr	r3, [pc, #20]	; (401930 <xTaskGetSchedulerState+0x1c>)
  40191c:	681b      	ldr	r3, [r3, #0]
  40191e:	2b00      	cmp	r3, #0
  401920:	bf0c      	ite	eq
  401922:	2002      	moveq	r0, #2
  401924:	2000      	movne	r0, #0
  401926:	4770      	bx	lr
  401928:	2001      	movs	r0, #1
  40192a:	4770      	bx	lr
  40192c:	200137c4 	.word	0x200137c4
  401930:	20013774 	.word	0x20013774

00401934 <vTaskPriorityInherit>:
  401934:	e92d 41f0 	stmdb	sp!, {r4, r5, r6, r7, r8, lr}
  401938:	4604      	mov	r4, r0
  40193a:	2800      	cmp	r0, #0
  40193c:	d02b      	beq.n	401996 <vTaskPriorityInherit+0x62>
  40193e:	4d17      	ldr	r5, [pc, #92]	; (40199c <vTaskPriorityInherit+0x68>)
  401940:	6ac3      	ldr	r3, [r0, #44]	; 0x2c
  401942:	682a      	ldr	r2, [r5, #0]
  401944:	6ad2      	ldr	r2, [r2, #44]	; 0x2c
  401946:	4293      	cmp	r3, r2
  401948:	d225      	bcs.n	401996 <vTaskPriorityInherit+0x62>
  40194a:	6982      	ldr	r2, [r0, #24]
  40194c:	4e14      	ldr	r6, [pc, #80]	; (4019a0 <vTaskPriorityInherit+0x6c>)
  40194e:	2a00      	cmp	r2, #0
  401950:	bfa1      	itttt	ge
  401952:	682a      	ldrge	r2, [r5, #0]
  401954:	6ad2      	ldrge	r2, [r2, #44]	; 0x2c
  401956:	f1c2 0205 	rsbge	r2, r2, #5
  40195a:	6182      	strge	r2, [r0, #24]
  40195c:	2214      	movs	r2, #20
  40195e:	fb02 6303 	mla	r3, r2, r3, r6
  401962:	6942      	ldr	r2, [r0, #20]
  401964:	429a      	cmp	r2, r3
  401966:	d113      	bne.n	401990 <vTaskPriorityInherit+0x5c>
  401968:	1d07      	adds	r7, r0, #4
  40196a:	4b0e      	ldr	r3, [pc, #56]	; (4019a4 <vTaskPriorityInherit+0x70>)
  40196c:	4638      	mov	r0, r7
  40196e:	4798      	blx	r3
  401970:	682b      	ldr	r3, [r5, #0]
  401972:	4a0d      	ldr	r2, [pc, #52]	; (4019a8 <vTaskPriorityInherit+0x74>)
  401974:	6adb      	ldr	r3, [r3, #44]	; 0x2c
  401976:	6811      	ldr	r1, [r2, #0]
  401978:	62e3      	str	r3, [r4, #44]	; 0x2c
  40197a:	428b      	cmp	r3, r1
  40197c:	d900      	bls.n	401980 <vTaskPriorityInherit+0x4c>
  40197e:	6013      	str	r3, [r2, #0]
  401980:	2014      	movs	r0, #20
  401982:	fb00 6003 	mla	r0, r0, r3, r6
  401986:	4639      	mov	r1, r7
  401988:	4b08      	ldr	r3, [pc, #32]	; (4019ac <vTaskPriorityInherit+0x78>)
  40198a:	e8bd 41f0 	ldmia.w	sp!, {r4, r5, r6, r7, r8, lr}
  40198e:	4718      	bx	r3
  401990:	682b      	ldr	r3, [r5, #0]
  401992:	6adb      	ldr	r3, [r3, #44]	; 0x2c
  401994:	62c3      	str	r3, [r0, #44]	; 0x2c
  401996:	e8bd 81f0 	ldmia.w	sp!, {r4, r5, r6, r7, r8, pc}
  40199a:	bf00      	nop
  40199c:	200136fc 	.word	0x200136fc
  4019a0:	20013708 	.word	0x20013708
  4019a4:	0040077f 	.word	0x0040077f
  4019a8:	20013780 	.word	0x20013780
  4019ac:	00400739 	.word	0x00400739

004019b0 <vTaskPriorityDisinherit>:
  4019b0:	b570      	push	{r4, r5, r6, lr}
  4019b2:	4604      	mov	r4, r0
  4019b4:	b1e8      	cbz	r0, 4019f2 <vTaskPriorityDisinherit+0x42>
  4019b6:	6ac2      	ldr	r2, [r0, #44]	; 0x2c
  4019b8:	6c03      	ldr	r3, [r0, #64]	; 0x40
  4019ba:	429a      	cmp	r2, r3
  4019bc:	d019      	beq.n	4019f2 <vTaskPriorityDisinherit+0x42>
  4019be:	1d05      	adds	r5, r0, #4
  4019c0:	4628      	mov	r0, r5
  4019c2:	4b0c      	ldr	r3, [pc, #48]	; (4019f4 <vTaskPriorityDisinherit+0x44>)
  4019c4:	4798      	blx	r3
  4019c6:	69a2      	ldr	r2, [r4, #24]
  4019c8:	6c23      	ldr	r3, [r4, #64]	; 0x40
  4019ca:	62e3      	str	r3, [r4, #44]	; 0x2c
  4019cc:	2a00      	cmp	r2, #0
  4019ce:	bfa4      	itt	ge
  4019d0:	f1c3 0205 	rsbge	r2, r3, #5
  4019d4:	61a2      	strge	r2, [r4, #24]
  4019d6:	4a08      	ldr	r2, [pc, #32]	; (4019f8 <vTaskPriorityDisinherit+0x48>)
  4019d8:	6811      	ldr	r1, [r2, #0]
  4019da:	428b      	cmp	r3, r1
  4019dc:	bf88      	it	hi
  4019de:	6013      	strhi	r3, [r2, #0]
  4019e0:	4a06      	ldr	r2, [pc, #24]	; (4019fc <vTaskPriorityDisinherit+0x4c>)
  4019e2:	2014      	movs	r0, #20
  4019e4:	4629      	mov	r1, r5
  4019e6:	fb00 2003 	mla	r0, r0, r3, r2
  4019ea:	e8bd 4070 	ldmia.w	sp!, {r4, r5, r6, lr}
  4019ee:	4b04      	ldr	r3, [pc, #16]	; (401a00 <vTaskPriorityDisinherit+0x50>)
  4019f0:	4718      	bx	r3
  4019f2:	bd70      	pop	{r4, r5, r6, pc}
  4019f4:	0040077f 	.word	0x0040077f
  4019f8:	20013780 	.word	0x20013780
  4019fc:	20013708 	.word	0x20013708
  401a00:	00400739 	.word	0x00400739

00401a04 <prvCheckForValidListAndQueue>:
  401a04:	e92d 41f0 	stmdb	sp!, {r4, r5, r6, r7, r8, lr}
  401a08:	4c0f      	ldr	r4, [pc, #60]	; (401a48 <prvCheckForValidListAndQueue+0x44>)
  401a0a:	4b10      	ldr	r3, [pc, #64]	; (401a4c <prvCheckForValidListAndQueue+0x48>)
  401a0c:	4798      	blx	r3
  401a0e:	6825      	ldr	r5, [r4, #0]
  401a10:	b9ad      	cbnz	r5, 401a3e <prvCheckForValidListAndQueue+0x3a>
  401a12:	4f0f      	ldr	r7, [pc, #60]	; (401a50 <prvCheckForValidListAndQueue+0x4c>)
  401a14:	4e0f      	ldr	r6, [pc, #60]	; (401a54 <prvCheckForValidListAndQueue+0x50>)
  401a16:	f8df 8054 	ldr.w	r8, [pc, #84]	; 401a6c <prvCheckForValidListAndQueue+0x68>
  401a1a:	4638      	mov	r0, r7
  401a1c:	47c0      	blx	r8
  401a1e:	4630      	mov	r0, r6
  401a20:	47c0      	blx	r8
  401a22:	4b0d      	ldr	r3, [pc, #52]	; (401a58 <prvCheckForValidListAndQueue+0x54>)
  401a24:	601f      	str	r7, [r3, #0]
  401a26:	4b0d      	ldr	r3, [pc, #52]	; (401a5c <prvCheckForValidListAndQueue+0x58>)
  401a28:	462a      	mov	r2, r5
  401a2a:	601e      	str	r6, [r3, #0]
  401a2c:	210c      	movs	r1, #12
  401a2e:	2002      	movs	r0, #2
  401a30:	4b0b      	ldr	r3, [pc, #44]	; (401a60 <prvCheckForValidListAndQueue+0x5c>)
  401a32:	4798      	blx	r3
  401a34:	6020      	str	r0, [r4, #0]
  401a36:	b910      	cbnz	r0, 401a3e <prvCheckForValidListAndQueue+0x3a>
  401a38:	4b0a      	ldr	r3, [pc, #40]	; (401a64 <prvCheckForValidListAndQueue+0x60>)
  401a3a:	4798      	blx	r3
  401a3c:	e7fe      	b.n	401a3c <prvCheckForValidListAndQueue+0x38>
  401a3e:	4b0a      	ldr	r3, [pc, #40]	; (401a68 <prvCheckForValidListAndQueue+0x64>)
  401a40:	e8bd 41f0 	ldmia.w	sp!, {r4, r5, r6, r7, r8, lr}
  401a44:	4718      	bx	r3
  401a46:	bf00      	nop
  401a48:	2001382c 	.word	0x2001382c
  401a4c:	0040085d 	.word	0x0040085d
  401a50:	20013800 	.word	0x20013800
  401a54:	20013814 	.word	0x20013814
  401a58:	200137f8 	.word	0x200137f8
  401a5c:	200137fc 	.word	0x200137fc
  401a60:	00400d5d 	.word	0x00400d5d
  401a64:	00400831 	.word	0x00400831
  401a68:	00400885 	.word	0x00400885
  401a6c:	0040071d 	.word	0x0040071d

00401a70 <prvInsertTimerInActiveList>:
  401a70:	4291      	cmp	r1, r2
  401a72:	b508      	push	{r3, lr}
  401a74:	6041      	str	r1, [r0, #4]
  401a76:	6100      	str	r0, [r0, #16]
  401a78:	d80a      	bhi.n	401a90 <prvInsertTimerInActiveList+0x20>
  401a7a:	1ad2      	subs	r2, r2, r3
  401a7c:	6983      	ldr	r3, [r0, #24]
  401a7e:	429a      	cmp	r2, r3
  401a80:	d20d      	bcs.n	401a9e <prvInsertTimerInActiveList+0x2e>
  401a82:	4b08      	ldr	r3, [pc, #32]	; (401aa4 <prvInsertTimerInActiveList+0x34>)
  401a84:	1d01      	adds	r1, r0, #4
  401a86:	6818      	ldr	r0, [r3, #0]
  401a88:	4b07      	ldr	r3, [pc, #28]	; (401aa8 <prvInsertTimerInActiveList+0x38>)
  401a8a:	4798      	blx	r3
  401a8c:	2000      	movs	r0, #0
  401a8e:	bd08      	pop	{r3, pc}
  401a90:	429a      	cmp	r2, r3
  401a92:	d201      	bcs.n	401a98 <prvInsertTimerInActiveList+0x28>
  401a94:	4299      	cmp	r1, r3
  401a96:	d202      	bcs.n	401a9e <prvInsertTimerInActiveList+0x2e>
  401a98:	1d01      	adds	r1, r0, #4
  401a9a:	4b04      	ldr	r3, [pc, #16]	; (401aac <prvInsertTimerInActiveList+0x3c>)
  401a9c:	e7f3      	b.n	401a86 <prvInsertTimerInActiveList+0x16>
  401a9e:	2001      	movs	r0, #1
  401aa0:	bd08      	pop	{r3, pc}
  401aa2:	bf00      	nop
  401aa4:	200137fc 	.word	0x200137fc
  401aa8:	00400751 	.word	0x00400751
  401aac:	200137f8 	.word	0x200137f8

00401ab0 <xTimerCreateTimerTask>:
  401ab0:	b51f      	push	{r0, r1, r2, r3, r4, lr}
  401ab2:	4b0c      	ldr	r3, [pc, #48]	; (401ae4 <xTimerCreateTimerTask+0x34>)
  401ab4:	4798      	blx	r3
  401ab6:	4b0c      	ldr	r3, [pc, #48]	; (401ae8 <xTimerCreateTimerTask+0x38>)
  401ab8:	681b      	ldr	r3, [r3, #0]
  401aba:	b913      	cbnz	r3, 401ac2 <xTimerCreateTimerTask+0x12>
  401abc:	4b0b      	ldr	r3, [pc, #44]	; (401aec <xTimerCreateTimerTask+0x3c>)
  401abe:	4798      	blx	r3
  401ac0:	e7fe      	b.n	401ac0 <xTimerCreateTimerTask+0x10>
  401ac2:	2300      	movs	r3, #0
  401ac4:	2202      	movs	r2, #2
  401ac6:	9200      	str	r2, [sp, #0]
  401ac8:	9303      	str	r3, [sp, #12]
  401aca:	9302      	str	r3, [sp, #8]
  401acc:	9301      	str	r3, [sp, #4]
  401ace:	f44f 7282 	mov.w	r2, #260	; 0x104
  401ad2:	4907      	ldr	r1, [pc, #28]	; (401af0 <xTimerCreateTimerTask+0x40>)
  401ad4:	4807      	ldr	r0, [pc, #28]	; (401af4 <xTimerCreateTimerTask+0x44>)
  401ad6:	4c08      	ldr	r4, [pc, #32]	; (401af8 <xTimerCreateTimerTask+0x48>)
  401ad8:	47a0      	blx	r4
  401ada:	2800      	cmp	r0, #0
  401adc:	d0ee      	beq.n	401abc <xTimerCreateTimerTask+0xc>
  401ade:	b004      	add	sp, #16
  401ae0:	bd10      	pop	{r4, pc}
  401ae2:	bf00      	nop
  401ae4:	00401a05 	.word	0x00401a05
  401ae8:	2001382c 	.word	0x2001382c
  401aec:	00400831 	.word	0x00400831
  401af0:	00406a8d 	.word	0x00406a8d
  401af4:	00401bc9 	.word	0x00401bc9
  401af8:	004011dd 	.word	0x004011dd

00401afc <xTimerGenericCommand>:
  401afc:	b57f      	push	{r0, r1, r2, r3, r4, r5, r6, lr}
  401afe:	4c0f      	ldr	r4, [pc, #60]	; (401b3c <xTimerGenericCommand+0x40>)
  401b00:	4605      	mov	r5, r0
  401b02:	6820      	ldr	r0, [r4, #0]
  401b04:	4616      	mov	r6, r2
  401b06:	461a      	mov	r2, r3
  401b08:	b180      	cbz	r0, 401b2c <xTimerGenericCommand+0x30>
  401b0a:	2905      	cmp	r1, #5
  401b0c:	9101      	str	r1, [sp, #4]
  401b0e:	9602      	str	r6, [sp, #8]
  401b10:	9503      	str	r5, [sp, #12]
  401b12:	dc0d      	bgt.n	401b30 <xTimerGenericCommand+0x34>
  401b14:	4b0a      	ldr	r3, [pc, #40]	; (401b40 <xTimerGenericCommand+0x44>)
  401b16:	4d0b      	ldr	r5, [pc, #44]	; (401b44 <xTimerGenericCommand+0x48>)
  401b18:	4798      	blx	r3
  401b1a:	2300      	movs	r3, #0
  401b1c:	2802      	cmp	r0, #2
  401b1e:	bf08      	it	eq
  401b20:	9a08      	ldreq	r2, [sp, #32]
  401b22:	6820      	ldr	r0, [r4, #0]
  401b24:	bf18      	it	ne
  401b26:	461a      	movne	r2, r3
  401b28:	a901      	add	r1, sp, #4
  401b2a:	47a8      	blx	r5
  401b2c:	b004      	add	sp, #16
  401b2e:	bd70      	pop	{r4, r5, r6, pc}
  401b30:	2300      	movs	r3, #0
  401b32:	a901      	add	r1, sp, #4
  401b34:	4c04      	ldr	r4, [pc, #16]	; (401b48 <xTimerGenericCommand+0x4c>)
  401b36:	47a0      	blx	r4
  401b38:	e7f8      	b.n	401b2c <xTimerGenericCommand+0x30>
  401b3a:	bf00      	nop
  401b3c:	2001382c 	.word	0x2001382c
  401b40:	00401915 	.word	0x00401915
  401b44:	00400dad 	.word	0x00400dad
  401b48:	00400f05 	.word	0x00400f05

00401b4c <prvSwitchTimerLists>:
  401b4c:	e92d 41f3 	stmdb	sp!, {r0, r1, r4, r5, r6, r7, r8, lr}
  401b50:	4d17      	ldr	r5, [pc, #92]	; (401bb0 <prvSwitchTimerLists+0x64>)
  401b52:	4f18      	ldr	r7, [pc, #96]	; (401bb4 <prvSwitchTimerLists+0x68>)
  401b54:	682b      	ldr	r3, [r5, #0]
  401b56:	681a      	ldr	r2, [r3, #0]
  401b58:	b932      	cbnz	r2, 401b68 <prvSwitchTimerLists+0x1c>
  401b5a:	4a17      	ldr	r2, [pc, #92]	; (401bb8 <prvSwitchTimerLists+0x6c>)
  401b5c:	6811      	ldr	r1, [r2, #0]
  401b5e:	6029      	str	r1, [r5, #0]
  401b60:	6013      	str	r3, [r2, #0]
  401b62:	b002      	add	sp, #8
  401b64:	e8bd 81f0 	ldmia.w	sp!, {r4, r5, r6, r7, r8, pc}
  401b68:	68db      	ldr	r3, [r3, #12]
  401b6a:	68dc      	ldr	r4, [r3, #12]
  401b6c:	681e      	ldr	r6, [r3, #0]
  401b6e:	f104 0804 	add.w	r8, r4, #4
  401b72:	4640      	mov	r0, r8
  401b74:	47b8      	blx	r7
  401b76:	6a63      	ldr	r3, [r4, #36]	; 0x24
  401b78:	4620      	mov	r0, r4
  401b7a:	4798      	blx	r3
  401b7c:	69e3      	ldr	r3, [r4, #28]
  401b7e:	2b01      	cmp	r3, #1
  401b80:	d1e8      	bne.n	401b54 <prvSwitchTimerLists+0x8>
  401b82:	69a3      	ldr	r3, [r4, #24]
  401b84:	4433      	add	r3, r6
  401b86:	429e      	cmp	r6, r3
  401b88:	d206      	bcs.n	401b98 <prvSwitchTimerLists+0x4c>
  401b8a:	6063      	str	r3, [r4, #4]
  401b8c:	6124      	str	r4, [r4, #16]
  401b8e:	4641      	mov	r1, r8
  401b90:	6828      	ldr	r0, [r5, #0]
  401b92:	4b0a      	ldr	r3, [pc, #40]	; (401bbc <prvSwitchTimerLists+0x70>)
  401b94:	4798      	blx	r3
  401b96:	e7dd      	b.n	401b54 <prvSwitchTimerLists+0x8>
  401b98:	2300      	movs	r3, #0
  401b9a:	4620      	mov	r0, r4
  401b9c:	9300      	str	r3, [sp, #0]
  401b9e:	4632      	mov	r2, r6
  401ba0:	4619      	mov	r1, r3
  401ba2:	4c07      	ldr	r4, [pc, #28]	; (401bc0 <prvSwitchTimerLists+0x74>)
  401ba4:	47a0      	blx	r4
  401ba6:	2800      	cmp	r0, #0
  401ba8:	d1d4      	bne.n	401b54 <prvSwitchTimerLists+0x8>
  401baa:	4b06      	ldr	r3, [pc, #24]	; (401bc4 <prvSwitchTimerLists+0x78>)
  401bac:	4798      	blx	r3
  401bae:	e7fe      	b.n	401bae <prvSwitchTimerLists+0x62>
  401bb0:	200137f8 	.word	0x200137f8
  401bb4:	0040077f 	.word	0x0040077f
  401bb8:	200137fc 	.word	0x200137fc
  401bbc:	00400751 	.word	0x00400751
  401bc0:	00401afd 	.word	0x00401afd
  401bc4:	00400831 	.word	0x00400831

00401bc8 <prvTimerTask>:
  401bc8:	e92d 4ff0 	stmdb	sp!, {r4, r5, r6, r7, r8, r9, sl, fp, lr}
  401bcc:	b087      	sub	sp, #28
  401bce:	f8df b19c 	ldr.w	fp, [pc, #412]	; 401d6c <prvTimerTask+0x1a4>
  401bd2:	f8db 2000 	ldr.w	r2, [fp]
  401bd6:	6817      	ldr	r7, [r2, #0]
  401bd8:	2f00      	cmp	r7, #0
  401bda:	d03a      	beq.n	401c52 <prvTimerTask+0x8a>
  401bdc:	68d2      	ldr	r2, [r2, #12]
  401bde:	6815      	ldr	r5, [r2, #0]
  401be0:	4a54      	ldr	r2, [pc, #336]	; (401d34 <prvTimerTask+0x16c>)
  401be2:	4c55      	ldr	r4, [pc, #340]	; (401d38 <prvTimerTask+0x170>)
  401be4:	4e55      	ldr	r6, [pc, #340]	; (401d3c <prvTimerTask+0x174>)
  401be6:	4790      	blx	r2
  401be8:	47b0      	blx	r6
  401bea:	6822      	ldr	r2, [r4, #0]
  401bec:	4290      	cmp	r0, r2
  401bee:	4681      	mov	r9, r0
  401bf0:	46a0      	mov	r8, r4
  401bf2:	d230      	bcs.n	401c56 <prvTimerTask+0x8e>
  401bf4:	4a52      	ldr	r2, [pc, #328]	; (401d40 <prvTimerTask+0x178>)
  401bf6:	4790      	blx	r2
  401bf8:	f04f 0a01 	mov.w	sl, #1
  401bfc:	f8c4 9000 	str.w	r9, [r4]
  401c00:	4c50      	ldr	r4, [pc, #320]	; (401d44 <prvTimerTask+0x17c>)
  401c02:	f1ba 0f00 	cmp.w	sl, #0
  401c06:	d167      	bne.n	401cd8 <prvTimerTask+0x110>
  401c08:	2f00      	cmp	r7, #0
  401c0a:	d059      	beq.n	401cc0 <prvTimerTask+0xf8>
  401c0c:	454d      	cmp	r5, r9
  401c0e:	d857      	bhi.n	401cc0 <prvTimerTask+0xf8>
  401c10:	47a0      	blx	r4
  401c12:	f8db 3000 	ldr.w	r3, [fp]
  401c16:	68db      	ldr	r3, [r3, #12]
  401c18:	68dc      	ldr	r4, [r3, #12]
  401c1a:	4b4b      	ldr	r3, [pc, #300]	; (401d48 <prvTimerTask+0x180>)
  401c1c:	1d20      	adds	r0, r4, #4
  401c1e:	4798      	blx	r3
  401c20:	69e3      	ldr	r3, [r4, #28]
  401c22:	2b01      	cmp	r3, #1
  401c24:	d11a      	bne.n	401c5c <prvTimerTask+0x94>
  401c26:	69a1      	ldr	r1, [r4, #24]
  401c28:	464a      	mov	r2, r9
  401c2a:	462b      	mov	r3, r5
  401c2c:	4429      	add	r1, r5
  401c2e:	4620      	mov	r0, r4
  401c30:	f8df 9134 	ldr.w	r9, [pc, #308]	; 401d68 <prvTimerTask+0x1a0>
  401c34:	47c8      	blx	r9
  401c36:	2801      	cmp	r0, #1
  401c38:	d110      	bne.n	401c5c <prvTimerTask+0x94>
  401c3a:	462a      	mov	r2, r5
  401c3c:	f8cd a000 	str.w	sl, [sp]
  401c40:	4653      	mov	r3, sl
  401c42:	4651      	mov	r1, sl
  401c44:	4620      	mov	r0, r4
  401c46:	4d41      	ldr	r5, [pc, #260]	; (401d4c <prvTimerTask+0x184>)
  401c48:	47a8      	blx	r5
  401c4a:	b938      	cbnz	r0, 401c5c <prvTimerTask+0x94>
  401c4c:	4b40      	ldr	r3, [pc, #256]	; (401d50 <prvTimerTask+0x188>)
  401c4e:	4798      	blx	r3
  401c50:	e7fe      	b.n	401c50 <prvTimerTask+0x88>
  401c52:	463d      	mov	r5, r7
  401c54:	e7c4      	b.n	401be0 <prvTimerTask+0x18>
  401c56:	f04f 0a00 	mov.w	sl, #0
  401c5a:	e7cf      	b.n	401bfc <prvTimerTask+0x34>
  401c5c:	6a63      	ldr	r3, [r4, #36]	; 0x24
  401c5e:	4620      	mov	r0, r4
  401c60:	4798      	blx	r3
  401c62:	f8df 90f8 	ldr.w	r9, [pc, #248]	; 401d5c <prvTimerTask+0x194>
  401c66:	4d3b      	ldr	r5, [pc, #236]	; (401d54 <prvTimerTask+0x18c>)
  401c68:	f8d9 0000 	ldr.w	r0, [r9]
  401c6c:	2300      	movs	r3, #0
  401c6e:	461a      	mov	r2, r3
  401c70:	a903      	add	r1, sp, #12
  401c72:	47a8      	blx	r5
  401c74:	2800      	cmp	r0, #0
  401c76:	d0aa      	beq.n	401bce <prvTimerTask+0x6>
  401c78:	9b03      	ldr	r3, [sp, #12]
  401c7a:	2b00      	cmp	r3, #0
  401c7c:	dbf4      	blt.n	401c68 <prvTimerTask+0xa0>
  401c7e:	9c05      	ldr	r4, [sp, #20]
  401c80:	6963      	ldr	r3, [r4, #20]
  401c82:	b113      	cbz	r3, 401c8a <prvTimerTask+0xc2>
  401c84:	1d20      	adds	r0, r4, #4
  401c86:	4b30      	ldr	r3, [pc, #192]	; (401d48 <prvTimerTask+0x180>)
  401c88:	4798      	blx	r3
  401c8a:	47b0      	blx	r6
  401c8c:	f8d8 3000 	ldr.w	r3, [r8]
  401c90:	4298      	cmp	r0, r3
  401c92:	4683      	mov	fp, r0
  401c94:	d201      	bcs.n	401c9a <prvTimerTask+0xd2>
  401c96:	4b2a      	ldr	r3, [pc, #168]	; (401d40 <prvTimerTask+0x178>)
  401c98:	4798      	blx	r3
  401c9a:	9a03      	ldr	r2, [sp, #12]
  401c9c:	f8c8 b000 	str.w	fp, [r8]
  401ca0:	2a09      	cmp	r2, #9
  401ca2:	d8e1      	bhi.n	401c68 <prvTimerTask+0xa0>
  401ca4:	2301      	movs	r3, #1
  401ca6:	4093      	lsls	r3, r2
  401ca8:	f413 7a04 	ands.w	sl, r3, #528	; 0x210
  401cac:	d134      	bne.n	401d18 <prvTimerTask+0x150>
  401cae:	f013 0fc7 	tst.w	r3, #199	; 0xc7
  401cb2:	d113      	bne.n	401cdc <prvTimerTask+0x114>
  401cb4:	069b      	lsls	r3, r3, #26
  401cb6:	d5d7      	bpl.n	401c68 <prvTimerTask+0xa0>
  401cb8:	4620      	mov	r0, r4
  401cba:	4b27      	ldr	r3, [pc, #156]	; (401d58 <prvTimerTask+0x190>)
  401cbc:	4798      	blx	r3
  401cbe:	e7d2      	b.n	401c66 <prvTimerTask+0x9e>
  401cc0:	4b26      	ldr	r3, [pc, #152]	; (401d5c <prvTimerTask+0x194>)
  401cc2:	eba5 0109 	sub.w	r1, r5, r9
  401cc6:	6818      	ldr	r0, [r3, #0]
  401cc8:	4b25      	ldr	r3, [pc, #148]	; (401d60 <prvTimerTask+0x198>)
  401cca:	4798      	blx	r3
  401ccc:	47a0      	blx	r4
  401cce:	2800      	cmp	r0, #0
  401cd0:	d1c7      	bne.n	401c62 <prvTimerTask+0x9a>
  401cd2:	4b24      	ldr	r3, [pc, #144]	; (401d64 <prvTimerTask+0x19c>)
  401cd4:	4798      	blx	r3
  401cd6:	e7c4      	b.n	401c62 <prvTimerTask+0x9a>
  401cd8:	47a0      	blx	r4
  401cda:	e7c2      	b.n	401c62 <prvTimerTask+0x9a>
  401cdc:	69a1      	ldr	r1, [r4, #24]
  401cde:	9b04      	ldr	r3, [sp, #16]
  401ce0:	4d21      	ldr	r5, [pc, #132]	; (401d68 <prvTimerTask+0x1a0>)
  401ce2:	465a      	mov	r2, fp
  401ce4:	4419      	add	r1, r3
  401ce6:	4620      	mov	r0, r4
  401ce8:	47a8      	blx	r5
  401cea:	2801      	cmp	r0, #1
  401cec:	d1bb      	bne.n	401c66 <prvTimerTask+0x9e>
  401cee:	6a63      	ldr	r3, [r4, #36]	; 0x24
  401cf0:	4620      	mov	r0, r4
  401cf2:	4798      	blx	r3
  401cf4:	69e3      	ldr	r3, [r4, #28]
  401cf6:	2b01      	cmp	r3, #1
  401cf8:	d1b5      	bne.n	401c66 <prvTimerTask+0x9e>
  401cfa:	69a2      	ldr	r2, [r4, #24]
  401cfc:	9904      	ldr	r1, [sp, #16]
  401cfe:	f8cd a000 	str.w	sl, [sp]
  401d02:	440a      	add	r2, r1
  401d04:	4620      	mov	r0, r4
  401d06:	4653      	mov	r3, sl
  401d08:	4651      	mov	r1, sl
  401d0a:	4c10      	ldr	r4, [pc, #64]	; (401d4c <prvTimerTask+0x184>)
  401d0c:	47a0      	blx	r4
  401d0e:	2800      	cmp	r0, #0
  401d10:	d1a9      	bne.n	401c66 <prvTimerTask+0x9e>
  401d12:	4b0f      	ldr	r3, [pc, #60]	; (401d50 <prvTimerTask+0x188>)
  401d14:	4798      	blx	r3
  401d16:	e7fe      	b.n	401d16 <prvTimerTask+0x14e>
  401d18:	9904      	ldr	r1, [sp, #16]
  401d1a:	61a1      	str	r1, [r4, #24]
  401d1c:	b911      	cbnz	r1, 401d24 <prvTimerTask+0x15c>
  401d1e:	4b0c      	ldr	r3, [pc, #48]	; (401d50 <prvTimerTask+0x188>)
  401d20:	4798      	blx	r3
  401d22:	e7fe      	b.n	401d22 <prvTimerTask+0x15a>
  401d24:	465b      	mov	r3, fp
  401d26:	465a      	mov	r2, fp
  401d28:	4459      	add	r1, fp
  401d2a:	4620      	mov	r0, r4
  401d2c:	4c0e      	ldr	r4, [pc, #56]	; (401d68 <prvTimerTask+0x1a0>)
  401d2e:	47a0      	blx	r4
  401d30:	e799      	b.n	401c66 <prvTimerTask+0x9e>
  401d32:	bf00      	nop
  401d34:	00401415 	.word	0x00401415
  401d38:	20013828 	.word	0x20013828
  401d3c:	00401425 	.word	0x00401425
  401d40:	00401b4d 	.word	0x00401b4d
  401d44:	0040156d 	.word	0x0040156d
  401d48:	0040077f 	.word	0x0040077f
  401d4c:	00401afd 	.word	0x00401afd
  401d50:	00400831 	.word	0x00400831
  401d54:	00400fb9 	.word	0x00400fb9
  401d58:	00400b11 	.word	0x00400b11
  401d5c:	2001382c 	.word	0x2001382c
  401d60:	0040111d 	.word	0x0040111d
  401d64:	00400819 	.word	0x00400819
  401d68:	00401a71 	.word	0x00401a71
  401d6c:	200137f8 	.word	0x200137f8

00401d70 <spi_master_init1>:
  401d70:	b538      	push	{r3, r4, r5, lr}
  401d72:	4c20      	ldr	r4, [pc, #128]	; (401df4 <spi_master_init1+0x84>)
  401d74:	4b20      	ldr	r3, [pc, #128]	; (401df8 <spi_master_init1+0x88>)
  401d76:	4d21      	ldr	r5, [pc, #132]	; (401dfc <spi_master_init1+0x8c>)
  401d78:	4620      	mov	r0, r4
  401d7a:	4798      	blx	r3
  401d7c:	4620      	mov	r0, r4
  401d7e:	2102      	movs	r1, #2
  401d80:	4b1f      	ldr	r3, [pc, #124]	; (401e00 <spi_master_init1+0x90>)
  401d82:	4798      	blx	r3
  401d84:	2302      	movs	r3, #2
  401d86:	f8c4 3400 	str.w	r3, [r4, #1024]	; 0x400
  401d8a:	2380      	movs	r3, #128	; 0x80
  401d8c:	f8c4 3400 	str.w	r3, [r4, #1024]	; 0x400
  401d90:	f04f 7380 	mov.w	r3, #16777216	; 0x1000000
  401d94:	f8c4 3400 	str.w	r3, [r4, #1024]	; 0x400
  401d98:	f8d4 3404 	ldr.w	r3, [r4, #1028]	; 0x404
  401d9c:	f043 0301 	orr.w	r3, r3, #1
  401da0:	f8c4 3404 	str.w	r3, [r4, #1028]	; 0x404
  401da4:	f8d4 3404 	ldr.w	r3, [r4, #1028]	; 0x404
  401da8:	f043 0310 	orr.w	r3, r3, #16
  401dac:	f8c4 3404 	str.w	r3, [r4, #1028]	; 0x404
  401db0:	f504 6480 	add.w	r4, r4, #1024	; 0x400
  401db4:	2100      	movs	r1, #0
  401db6:	4620      	mov	r0, r4
  401db8:	4b12      	ldr	r3, [pc, #72]	; (401e04 <spi_master_init1+0x94>)
  401dba:	4798      	blx	r3
  401dbc:	2200      	movs	r2, #0
  401dbe:	4611      	mov	r1, r2
  401dc0:	4620      	mov	r0, r4
  401dc2:	4b11      	ldr	r3, [pc, #68]	; (401e08 <spi_master_init1+0x98>)
  401dc4:	4798      	blx	r3
  401dc6:	2201      	movs	r2, #1
  401dc8:	2100      	movs	r1, #0
  401dca:	4620      	mov	r0, r4
  401dcc:	4b0f      	ldr	r3, [pc, #60]	; (401e0c <spi_master_init1+0x9c>)
  401dce:	4798      	blx	r3
  401dd0:	2200      	movs	r2, #0
  401dd2:	4611      	mov	r1, r2
  401dd4:	4620      	mov	r0, r4
  401dd6:	4b0e      	ldr	r3, [pc, #56]	; (401e10 <spi_master_init1+0xa0>)
  401dd8:	4798      	blx	r3
  401dda:	22ef      	movs	r2, #239	; 0xef
  401ddc:	2100      	movs	r1, #0
  401dde:	4b0d      	ldr	r3, [pc, #52]	; (401e14 <spi_master_init1+0xa4>)
  401de0:	4620      	mov	r0, r4
  401de2:	4798      	blx	r3
  401de4:	2310      	movs	r3, #16
  401de6:	2240      	movs	r2, #64	; 0x40
  401de8:	2100      	movs	r1, #0
  401dea:	4620      	mov	r0, r4
  401dec:	47a8      	blx	r5
  401dee:	2301      	movs	r3, #1
  401df0:	6023      	str	r3, [r4, #0]
  401df2:	bd38      	pop	{r3, r4, r5, pc}
  401df4:	40008000 	.word	0x40008000
  401df8:	00402309 	.word	0x00402309
  401dfc:	00400587 	.word	0x00400587
  401e00:	004023f9 	.word	0x004023f9
  401e04:	004004ad 	.word	0x004004ad
  401e08:	00400527 	.word	0x00400527
  401e0c:	0040053d 	.word	0x0040053d
  401e10:	00400553 	.word	0x00400553
  401e14:	00400567 	.word	0x00400567

00401e18 <spi_master_init>:
  401e18:	b538      	push	{r3, r4, r5, lr}
  401e1a:	4c20      	ldr	r4, [pc, #128]	; (401e9c <spi_master_init+0x84>)
  401e1c:	4b20      	ldr	r3, [pc, #128]	; (401ea0 <spi_master_init+0x88>)
  401e1e:	4d21      	ldr	r5, [pc, #132]	; (401ea4 <spi_master_init+0x8c>)
  401e20:	4620      	mov	r0, r4
  401e22:	4798      	blx	r3
  401e24:	4620      	mov	r0, r4
  401e26:	2102      	movs	r1, #2
  401e28:	4b1f      	ldr	r3, [pc, #124]	; (401ea8 <spi_master_init+0x90>)
  401e2a:	4798      	blx	r3
  401e2c:	2302      	movs	r3, #2
  401e2e:	f8c4 3400 	str.w	r3, [r4, #1024]	; 0x400
  401e32:	2380      	movs	r3, #128	; 0x80
  401e34:	f8c4 3400 	str.w	r3, [r4, #1024]	; 0x400
  401e38:	f04f 7380 	mov.w	r3, #16777216	; 0x1000000
  401e3c:	f8c4 3400 	str.w	r3, [r4, #1024]	; 0x400
  401e40:	f8d4 3404 	ldr.w	r3, [r4, #1028]	; 0x404
  401e44:	f043 0301 	orr.w	r3, r3, #1
  401e48:	f8c4 3404 	str.w	r3, [r4, #1028]	; 0x404
  401e4c:	f8d4 3404 	ldr.w	r3, [r4, #1028]	; 0x404
  401e50:	f043 0310 	orr.w	r3, r3, #16
  401e54:	f8c4 3404 	str.w	r3, [r4, #1028]	; 0x404
  401e58:	f504 6480 	add.w	r4, r4, #1024	; 0x400
  401e5c:	2101      	movs	r1, #1
  401e5e:	4620      	mov	r0, r4
  401e60:	4b12      	ldr	r3, [pc, #72]	; (401eac <spi_master_init+0x94>)
  401e62:	4798      	blx	r3
  401e64:	2200      	movs	r2, #0
  401e66:	2101      	movs	r1, #1
  401e68:	4620      	mov	r0, r4
  401e6a:	4b11      	ldr	r3, [pc, #68]	; (401eb0 <spi_master_init+0x98>)
  401e6c:	4798      	blx	r3
  401e6e:	2201      	movs	r2, #1
  401e70:	4611      	mov	r1, r2
  401e72:	4620      	mov	r0, r4
  401e74:	4b0f      	ldr	r3, [pc, #60]	; (401eb4 <spi_master_init+0x9c>)
  401e76:	4798      	blx	r3
  401e78:	2200      	movs	r2, #0
  401e7a:	2101      	movs	r1, #1
  401e7c:	4620      	mov	r0, r4
  401e7e:	4b0e      	ldr	r3, [pc, #56]	; (401eb8 <spi_master_init+0xa0>)
  401e80:	4798      	blx	r3
  401e82:	22ef      	movs	r2, #239	; 0xef
  401e84:	2101      	movs	r1, #1
  401e86:	4b0d      	ldr	r3, [pc, #52]	; (401ebc <spi_master_init+0xa4>)
  401e88:	4620      	mov	r0, r4
  401e8a:	4798      	blx	r3
  401e8c:	2310      	movs	r3, #16
  401e8e:	2240      	movs	r2, #64	; 0x40
  401e90:	2101      	movs	r1, #1
  401e92:	4620      	mov	r0, r4
  401e94:	47a8      	blx	r5
  401e96:	2301      	movs	r3, #1
  401e98:	6023      	str	r3, [r4, #0]
  401e9a:	bd38      	pop	{r3, r4, r5, pc}
  401e9c:	40008000 	.word	0x40008000
  401ea0:	00402309 	.word	0x00402309
  401ea4:	00400587 	.word	0x00400587
  401ea8:	004023f9 	.word	0x004023f9
  401eac:	004004ad 	.word	0x004004ad
  401eb0:	00400527 	.word	0x00400527
  401eb4:	0040053d 	.word	0x0040053d
  401eb8:	00400553 	.word	0x00400553
  401ebc:	00400567 	.word	0x00400567

00401ec0 <spi_master_write_register>:
  401ec0:	e92d 41f3 	stmdb	sp!, {r0, r1, r4, r5, r6, r7, r8, lr}
  401ec4:	2300      	movs	r3, #0
  401ec6:	4d17      	ldr	r5, [pc, #92]	; (401f24 <spi_master_write_register+0x64>)
  401ec8:	f88d 3005 	strb.w	r3, [sp, #5]
  401ecc:	460e      	mov	r6, r1
  401ece:	4614      	mov	r4, r2
  401ed0:	f000 017f 	and.w	r1, r0, #127	; 0x7f
  401ed4:	461a      	mov	r2, r3
  401ed6:	4814      	ldr	r0, [pc, #80]	; (401f28 <spi_master_write_register+0x68>)
  401ed8:	f8ad 3006 	strh.w	r3, [sp, #6]
  401edc:	47a8      	blx	r5
  401ede:	4a12      	ldr	r2, [pc, #72]	; (401f28 <spi_master_write_register+0x68>)
  401ee0:	46a8      	mov	r8, r5
  401ee2:	6913      	ldr	r3, [r2, #16]
  401ee4:	0799      	lsls	r1, r3, #30
  401ee6:	d5fc      	bpl.n	401ee2 <spi_master_write_register+0x22>
  401ee8:	f10d 0205 	add.w	r2, sp, #5
  401eec:	f10d 0106 	add.w	r1, sp, #6
  401ef0:	480d      	ldr	r0, [pc, #52]	; (401f28 <spi_master_write_register+0x68>)
  401ef2:	4d0e      	ldr	r5, [pc, #56]	; (401f2c <spi_master_write_register+0x6c>)
  401ef4:	4f0c      	ldr	r7, [pc, #48]	; (401f28 <spi_master_write_register+0x68>)
  401ef6:	47a8      	blx	r5
  401ef8:	4426      	add	r6, r4
  401efa:	42b4      	cmp	r4, r6
  401efc:	d102      	bne.n	401f04 <spi_master_write_register+0x44>
  401efe:	b002      	add	sp, #8
  401f00:	e8bd 81f0 	ldmia.w	sp!, {r4, r5, r6, r7, r8, pc}
  401f04:	2300      	movs	r3, #0
  401f06:	461a      	mov	r2, r3
  401f08:	f814 1b01 	ldrb.w	r1, [r4], #1
  401f0c:	4638      	mov	r0, r7
  401f0e:	47c0      	blx	r8
  401f10:	693b      	ldr	r3, [r7, #16]
  401f12:	079b      	lsls	r3, r3, #30
  401f14:	d5fc      	bpl.n	401f10 <spi_master_write_register+0x50>
  401f16:	f10d 0205 	add.w	r2, sp, #5
  401f1a:	f10d 0106 	add.w	r1, sp, #6
  401f1e:	4638      	mov	r0, r7
  401f20:	47a8      	blx	r5
  401f22:	e7ea      	b.n	401efa <spi_master_write_register+0x3a>
  401f24:	004004f9 	.word	0x004004f9
  401f28:	40008400 	.word	0x40008400
  401f2c:	004004c5 	.word	0x004004c5

00401f30 <spi_master_read_register>:
  401f30:	e92d 41f3 	stmdb	sp!, {r0, r1, r4, r5, r6, r7, r8, lr}
  401f34:	2300      	movs	r3, #0
  401f36:	4d19      	ldr	r5, [pc, #100]	; (401f9c <spi_master_read_register+0x6c>)
  401f38:	f88d 3005 	strb.w	r3, [sp, #5]
  401f3c:	460e      	mov	r6, r1
  401f3e:	4614      	mov	r4, r2
  401f40:	f040 0180 	orr.w	r1, r0, #128	; 0x80
  401f44:	461a      	mov	r2, r3
  401f46:	4816      	ldr	r0, [pc, #88]	; (401fa0 <spi_master_read_register+0x70>)
  401f48:	f8ad 3006 	strh.w	r3, [sp, #6]
  401f4c:	47a8      	blx	r5
  401f4e:	4a14      	ldr	r2, [pc, #80]	; (401fa0 <spi_master_read_register+0x70>)
  401f50:	46a8      	mov	r8, r5
  401f52:	6913      	ldr	r3, [r2, #16]
  401f54:	0799      	lsls	r1, r3, #30
  401f56:	d5fc      	bpl.n	401f52 <spi_master_read_register+0x22>
  401f58:	f10d 0205 	add.w	r2, sp, #5
  401f5c:	f10d 0106 	add.w	r1, sp, #6
  401f60:	480f      	ldr	r0, [pc, #60]	; (401fa0 <spi_master_read_register+0x70>)
  401f62:	4d10      	ldr	r5, [pc, #64]	; (401fa4 <spi_master_read_register+0x74>)
  401f64:	4f0e      	ldr	r7, [pc, #56]	; (401fa0 <spi_master_read_register+0x70>)
  401f66:	47a8      	blx	r5
  401f68:	4426      	add	r6, r4
  401f6a:	42b4      	cmp	r4, r6
  401f6c:	d102      	bne.n	401f74 <spi_master_read_register+0x44>
  401f6e:	b002      	add	sp, #8
  401f70:	e8bd 81f0 	ldmia.w	sp!, {r4, r5, r6, r7, r8, pc}
  401f74:	2300      	movs	r3, #0
  401f76:	f89d 2005 	ldrb.w	r2, [sp, #5]
  401f7a:	4619      	mov	r1, r3
  401f7c:	4638      	mov	r0, r7
  401f7e:	47c0      	blx	r8
  401f80:	693b      	ldr	r3, [r7, #16]
  401f82:	079b      	lsls	r3, r3, #30
  401f84:	d5fc      	bpl.n	401f80 <spi_master_read_register+0x50>
  401f86:	f10d 0205 	add.w	r2, sp, #5
  401f8a:	f10d 0106 	add.w	r1, sp, #6
  401f8e:	4638      	mov	r0, r7
  401f90:	47a8      	blx	r5
  401f92:	f8bd 3006 	ldrh.w	r3, [sp, #6]
  401f96:	f804 3b01 	strb.w	r3, [r4], #1
  401f9a:	e7e6      	b.n	401f6a <spi_master_read_register+0x3a>
  401f9c:	004004f9 	.word	0x004004f9
  401fa0:	40008400 	.word	0x40008400
  401fa4:	004004c5 	.word	0x004004c5

00401fa8 <usart_serial_getchar>:
  401fa8:	b5f7      	push	{r0, r1, r2, r4, r5, r6, r7, lr}
  401faa:	2300      	movs	r3, #0
  401fac:	9301      	str	r3, [sp, #4]
  401fae:	4b2e      	ldr	r3, [pc, #184]	; (402068 <usart_serial_getchar+0xc0>)
  401fb0:	4298      	cmp	r0, r3
  401fb2:	4604      	mov	r4, r0
  401fb4:	460d      	mov	r5, r1
  401fb6:	d112      	bne.n	401fde <usart_serial_getchar+0x36>
  401fb8:	4e2c      	ldr	r6, [pc, #176]	; (40206c <usart_serial_getchar+0xc4>)
  401fba:	4607      	mov	r7, r0
  401fbc:	a901      	add	r1, sp, #4
  401fbe:	4638      	mov	r0, r7
  401fc0:	47b0      	blx	r6
  401fc2:	2800      	cmp	r0, #0
  401fc4:	d1fa      	bne.n	401fbc <usart_serial_getchar+0x14>
  401fc6:	9b01      	ldr	r3, [sp, #4]
  401fc8:	702b      	strb	r3, [r5, #0]
  401fca:	4b29      	ldr	r3, [pc, #164]	; (402070 <usart_serial_getchar+0xc8>)
  401fcc:	429c      	cmp	r4, r3
  401fce:	d11d      	bne.n	40200c <usart_serial_getchar+0x64>
  401fd0:	4e26      	ldr	r6, [pc, #152]	; (40206c <usart_serial_getchar+0xc4>)
  401fd2:	a901      	add	r1, sp, #4
  401fd4:	4620      	mov	r0, r4
  401fd6:	47b0      	blx	r6
  401fd8:	2800      	cmp	r0, #0
  401fda:	d1fa      	bne.n	401fd2 <usart_serial_getchar+0x2a>
  401fdc:	e03f      	b.n	40205e <usart_serial_getchar+0xb6>
  401fde:	4b25      	ldr	r3, [pc, #148]	; (402074 <usart_serial_getchar+0xcc>)
  401fe0:	4298      	cmp	r0, r3
  401fe2:	d107      	bne.n	401ff4 <usart_serial_getchar+0x4c>
  401fe4:	4e21      	ldr	r6, [pc, #132]	; (40206c <usart_serial_getchar+0xc4>)
  401fe6:	4607      	mov	r7, r0
  401fe8:	a901      	add	r1, sp, #4
  401fea:	4638      	mov	r0, r7
  401fec:	47b0      	blx	r6
  401fee:	2800      	cmp	r0, #0
  401ff0:	d1fa      	bne.n	401fe8 <usart_serial_getchar+0x40>
  401ff2:	e7e8      	b.n	401fc6 <usart_serial_getchar+0x1e>
  401ff4:	4b20      	ldr	r3, [pc, #128]	; (402078 <usart_serial_getchar+0xd0>)
  401ff6:	4298      	cmp	r0, r3
  401ff8:	d112      	bne.n	402020 <usart_serial_getchar+0x78>
  401ffa:	4e1c      	ldr	r6, [pc, #112]	; (40206c <usart_serial_getchar+0xc4>)
  401ffc:	4607      	mov	r7, r0
  401ffe:	a901      	add	r1, sp, #4
  402000:	4638      	mov	r0, r7
  402002:	47b0      	blx	r6
  402004:	2800      	cmp	r0, #0
  402006:	d1fa      	bne.n	401ffe <usart_serial_getchar+0x56>
  402008:	9b01      	ldr	r3, [sp, #4]
  40200a:	702b      	strb	r3, [r5, #0]
  40200c:	4b1b      	ldr	r3, [pc, #108]	; (40207c <usart_serial_getchar+0xd4>)
  40200e:	429c      	cmp	r4, r3
  402010:	d112      	bne.n	402038 <usart_serial_getchar+0x90>
  402012:	4e16      	ldr	r6, [pc, #88]	; (40206c <usart_serial_getchar+0xc4>)
  402014:	a901      	add	r1, sp, #4
  402016:	4620      	mov	r0, r4
  402018:	47b0      	blx	r6
  40201a:	2800      	cmp	r0, #0
  40201c:	d1fa      	bne.n	402014 <usart_serial_getchar+0x6c>
  40201e:	e01e      	b.n	40205e <usart_serial_getchar+0xb6>
  402020:	4b17      	ldr	r3, [pc, #92]	; (402080 <usart_serial_getchar+0xd8>)
  402022:	4298      	cmp	r0, r3
  402024:	d112      	bne.n	40204c <usart_serial_getchar+0xa4>
  402026:	4e11      	ldr	r6, [pc, #68]	; (40206c <usart_serial_getchar+0xc4>)
  402028:	4607      	mov	r7, r0
  40202a:	a901      	add	r1, sp, #4
  40202c:	4638      	mov	r0, r7
  40202e:	47b0      	blx	r6
  402030:	2800      	cmp	r0, #0
  402032:	d1fa      	bne.n	40202a <usart_serial_getchar+0x82>
  402034:	9b01      	ldr	r3, [sp, #4]
  402036:	702b      	strb	r3, [r5, #0]
  402038:	4b12      	ldr	r3, [pc, #72]	; (402084 <usart_serial_getchar+0xdc>)
  40203a:	429c      	cmp	r4, r3
  40203c:	d111      	bne.n	402062 <usart_serial_getchar+0xba>
  40203e:	4e0b      	ldr	r6, [pc, #44]	; (40206c <usart_serial_getchar+0xc4>)
  402040:	a901      	add	r1, sp, #4
  402042:	4620      	mov	r0, r4
  402044:	47b0      	blx	r6
  402046:	2800      	cmp	r0, #0
  402048:	d1fa      	bne.n	402040 <usart_serial_getchar+0x98>
  40204a:	e008      	b.n	40205e <usart_serial_getchar+0xb6>
  40204c:	4b0e      	ldr	r3, [pc, #56]	; (402088 <usart_serial_getchar+0xe0>)
  40204e:	4298      	cmp	r0, r3
  402050:	d1bb      	bne.n	401fca <usart_serial_getchar+0x22>
  402052:	4e06      	ldr	r6, [pc, #24]	; (40206c <usart_serial_getchar+0xc4>)
  402054:	a901      	add	r1, sp, #4
  402056:	4620      	mov	r0, r4
  402058:	47b0      	blx	r6
  40205a:	2800      	cmp	r0, #0
  40205c:	d1fa      	bne.n	402054 <usart_serial_getchar+0xac>
  40205e:	9b01      	ldr	r3, [sp, #4]
  402060:	702b      	strb	r3, [r5, #0]
  402062:	b003      	add	sp, #12
  402064:	bdf0      	pop	{r4, r5, r6, r7, pc}
  402066:	bf00      	nop
  402068:	4000c200 	.word	0x4000c200
  40206c:	0040067f 	.word	0x0040067f
  402070:	40008200 	.word	0x40008200
  402074:	40020200 	.word	0x40020200
  402078:	40024200 	.word	0x40024200
  40207c:	40040200 	.word	0x40040200
  402080:	40018200 	.word	0x40018200
  402084:	40034200 	.word	0x40034200
  402088:	4001c200 	.word	0x4001c200

0040208c <usart_serial_putchar>:
  40208c:	4b2a      	ldr	r3, [pc, #168]	; (402138 <usart_serial_putchar+0xac>)
  40208e:	4298      	cmp	r0, r3
  402090:	b570      	push	{r4, r5, r6, lr}
  402092:	4604      	mov	r4, r0
  402094:	460d      	mov	r5, r1
  402096:	d107      	bne.n	4020a8 <usart_serial_putchar+0x1c>
  402098:	4e28      	ldr	r6, [pc, #160]	; (40213c <usart_serial_putchar+0xb0>)
  40209a:	4629      	mov	r1, r5
  40209c:	4620      	mov	r0, r4
  40209e:	47b0      	blx	r6
  4020a0:	2800      	cmp	r0, #0
  4020a2:	d1fa      	bne.n	40209a <usart_serial_putchar+0xe>
  4020a4:	2001      	movs	r0, #1
  4020a6:	bd70      	pop	{r4, r5, r6, pc}
  4020a8:	4b25      	ldr	r3, [pc, #148]	; (402140 <usart_serial_putchar+0xb4>)
  4020aa:	4298      	cmp	r0, r3
  4020ac:	d106      	bne.n	4020bc <usart_serial_putchar+0x30>
  4020ae:	4e23      	ldr	r6, [pc, #140]	; (40213c <usart_serial_putchar+0xb0>)
  4020b0:	4629      	mov	r1, r5
  4020b2:	4620      	mov	r0, r4
  4020b4:	47b0      	blx	r6
  4020b6:	2800      	cmp	r0, #0
  4020b8:	d1fa      	bne.n	4020b0 <usart_serial_putchar+0x24>
  4020ba:	e7f3      	b.n	4020a4 <usart_serial_putchar+0x18>
  4020bc:	4b21      	ldr	r3, [pc, #132]	; (402144 <usart_serial_putchar+0xb8>)
  4020be:	4298      	cmp	r0, r3
  4020c0:	d106      	bne.n	4020d0 <usart_serial_putchar+0x44>
  4020c2:	4e1e      	ldr	r6, [pc, #120]	; (40213c <usart_serial_putchar+0xb0>)
  4020c4:	4629      	mov	r1, r5
  4020c6:	4620      	mov	r0, r4
  4020c8:	47b0      	blx	r6
  4020ca:	2800      	cmp	r0, #0
  4020cc:	d1fa      	bne.n	4020c4 <usart_serial_putchar+0x38>
  4020ce:	e7e9      	b.n	4020a4 <usart_serial_putchar+0x18>
  4020d0:	4b1d      	ldr	r3, [pc, #116]	; (402148 <usart_serial_putchar+0xbc>)
  4020d2:	4298      	cmp	r0, r3
  4020d4:	d106      	bne.n	4020e4 <usart_serial_putchar+0x58>
  4020d6:	4e19      	ldr	r6, [pc, #100]	; (40213c <usart_serial_putchar+0xb0>)
  4020d8:	4629      	mov	r1, r5
  4020da:	4620      	mov	r0, r4
  4020dc:	47b0      	blx	r6
  4020de:	2800      	cmp	r0, #0
  4020e0:	d1fa      	bne.n	4020d8 <usart_serial_putchar+0x4c>
  4020e2:	e7df      	b.n	4020a4 <usart_serial_putchar+0x18>
  4020e4:	4b19      	ldr	r3, [pc, #100]	; (40214c <usart_serial_putchar+0xc0>)
  4020e6:	4298      	cmp	r0, r3
  4020e8:	d106      	bne.n	4020f8 <usart_serial_putchar+0x6c>
  4020ea:	4e14      	ldr	r6, [pc, #80]	; (40213c <usart_serial_putchar+0xb0>)
  4020ec:	4629      	mov	r1, r5
  4020ee:	4620      	mov	r0, r4
  4020f0:	47b0      	blx	r6
  4020f2:	2800      	cmp	r0, #0
  4020f4:	d1fa      	bne.n	4020ec <usart_serial_putchar+0x60>
  4020f6:	e7d5      	b.n	4020a4 <usart_serial_putchar+0x18>
  4020f8:	4b15      	ldr	r3, [pc, #84]	; (402150 <usart_serial_putchar+0xc4>)
  4020fa:	4298      	cmp	r0, r3
  4020fc:	d106      	bne.n	40210c <usart_serial_putchar+0x80>
  4020fe:	4e0f      	ldr	r6, [pc, #60]	; (40213c <usart_serial_putchar+0xb0>)
  402100:	4629      	mov	r1, r5
  402102:	4620      	mov	r0, r4
  402104:	47b0      	blx	r6
  402106:	2800      	cmp	r0, #0
  402108:	d1fa      	bne.n	402100 <usart_serial_putchar+0x74>
  40210a:	e7cb      	b.n	4020a4 <usart_serial_putchar+0x18>
  40210c:	4b11      	ldr	r3, [pc, #68]	; (402154 <usart_serial_putchar+0xc8>)
  40210e:	4298      	cmp	r0, r3
  402110:	d106      	bne.n	402120 <usart_serial_putchar+0x94>
  402112:	4e0a      	ldr	r6, [pc, #40]	; (40213c <usart_serial_putchar+0xb0>)
  402114:	4629      	mov	r1, r5
  402116:	4620      	mov	r0, r4
  402118:	47b0      	blx	r6
  40211a:	2800      	cmp	r0, #0
  40211c:	d1fa      	bne.n	402114 <usart_serial_putchar+0x88>
  40211e:	e7c1      	b.n	4020a4 <usart_serial_putchar+0x18>
  402120:	4b0d      	ldr	r3, [pc, #52]	; (402158 <usart_serial_putchar+0xcc>)
  402122:	4298      	cmp	r0, r3
  402124:	d106      	bne.n	402134 <usart_serial_putchar+0xa8>
  402126:	4e05      	ldr	r6, [pc, #20]	; (40213c <usart_serial_putchar+0xb0>)
  402128:	4629      	mov	r1, r5
  40212a:	4620      	mov	r0, r4
  40212c:	47b0      	blx	r6
  40212e:	2800      	cmp	r0, #0
  402130:	d1fa      	bne.n	402128 <usart_serial_putchar+0x9c>
  402132:	e7b7      	b.n	4020a4 <usart_serial_putchar+0x18>
  402134:	2000      	movs	r0, #0
  402136:	bd70      	pop	{r4, r5, r6, pc}
  402138:	4000c200 	.word	0x4000c200
  40213c:	0040066d 	.word	0x0040066d
  402140:	40020200 	.word	0x40020200
  402144:	40024200 	.word	0x40024200
  402148:	40018200 	.word	0x40018200
  40214c:	4001c200 	.word	0x4001c200
  402150:	40008200 	.word	0x40008200
  402154:	40040200 	.word	0x40040200
  402158:	40034200 	.word	0x40034200

0040215c <usart_serial_init.constprop.2>:
  40215c:	b510      	push	{r4, lr}
  40215e:	b086      	sub	sp, #24
  402160:	6803      	ldr	r3, [r0, #0]
  402162:	9300      	str	r3, [sp, #0]
  402164:	6843      	ldr	r3, [r0, #4]
  402166:	9301      	str	r3, [sp, #4]
  402168:	6883      	ldr	r3, [r0, #8]
  40216a:	9302      	str	r3, [sp, #8]
  40216c:	4c0d      	ldr	r4, [pc, #52]	; (4021a4 <usart_serial_init.constprop.2+0x48>)
  40216e:	68c3      	ldr	r3, [r0, #12]
  402170:	9303      	str	r3, [sp, #12]
  402172:	2300      	movs	r3, #0
  402174:	9304      	str	r3, [sp, #16]
  402176:	4620      	mov	r0, r4
  402178:	4b0b      	ldr	r3, [pc, #44]	; (4021a8 <usart_serial_init.constprop.2+0x4c>)
  40217a:	4798      	blx	r3
  40217c:	4620      	mov	r0, r4
  40217e:	2101      	movs	r1, #1
  402180:	f504 7400 	add.w	r4, r4, #512	; 0x200
  402184:	4b09      	ldr	r3, [pc, #36]	; (4021ac <usart_serial_init.constprop.2+0x50>)
  402186:	4798      	blx	r3
  402188:	4a09      	ldr	r2, [pc, #36]	; (4021b0 <usart_serial_init.constprop.2+0x54>)
  40218a:	4b0a      	ldr	r3, [pc, #40]	; (4021b4 <usart_serial_init.constprop.2+0x58>)
  40218c:	4669      	mov	r1, sp
  40218e:	4620      	mov	r0, r4
  402190:	4798      	blx	r3
  402192:	4620      	mov	r0, r4
  402194:	4b08      	ldr	r3, [pc, #32]	; (4021b8 <usart_serial_init.constprop.2+0x5c>)
  402196:	4798      	blx	r3
  402198:	4620      	mov	r0, r4
  40219a:	4b08      	ldr	r3, [pc, #32]	; (4021bc <usart_serial_init.constprop.2+0x60>)
  40219c:	4798      	blx	r3
  40219e:	b006      	add	sp, #24
  4021a0:	bd10      	pop	{r4, pc}
  4021a2:	bf00      	nop
  4021a4:	4000c000 	.word	0x4000c000
  4021a8:	00402309 	.word	0x00402309
  4021ac:	004023f9 	.word	0x004023f9
  4021b0:	07270000 	.word	0x07270000
  4021b4:	00400615 	.word	0x00400615
  4021b8:	00400659 	.word	0x00400659
  4021bc:	0040065f 	.word	0x0040065f

004021c0 <configure_console>:
  4021c0:	b57f      	push	{r0, r1, r2, r3, r4, r5, r6, lr}
  4021c2:	4b19      	ldr	r3, [pc, #100]	; (402228 <configure_console+0x68>)
  4021c4:	4e19      	ldr	r6, [pc, #100]	; (40222c <configure_console+0x6c>)
  4021c6:	4d1a      	ldr	r5, [pc, #104]	; (402230 <configure_console+0x70>)
  4021c8:	4c1a      	ldr	r4, [pc, #104]	; (402234 <configure_console+0x74>)
  4021ca:	cb0f      	ldmia	r3, {r0, r1, r2, r3}
  4021cc:	e88d 000f 	stmia.w	sp, {r0, r1, r2, r3}
  4021d0:	4b19      	ldr	r3, [pc, #100]	; (402238 <configure_console+0x78>)
  4021d2:	2008      	movs	r0, #8
  4021d4:	4798      	blx	r3
  4021d6:	4668      	mov	r0, sp
  4021d8:	47b0      	blx	r6
  4021da:	4b18      	ldr	r3, [pc, #96]	; (40223c <configure_console+0x7c>)
  4021dc:	4a18      	ldr	r2, [pc, #96]	; (402240 <configure_console+0x80>)
  4021de:	601d      	str	r5, [r3, #0]
  4021e0:	4b18      	ldr	r3, [pc, #96]	; (402244 <configure_console+0x84>)
  4021e2:	601a      	str	r2, [r3, #0]
  4021e4:	4b18      	ldr	r3, [pc, #96]	; (402248 <configure_console+0x88>)
  4021e6:	4a19      	ldr	r2, [pc, #100]	; (40224c <configure_console+0x8c>)
  4021e8:	601a      	str	r2, [r3, #0]
  4021ea:	4668      	mov	r0, sp
  4021ec:	47b0      	blx	r6
  4021ee:	4e18      	ldr	r6, [pc, #96]	; (402250 <configure_console+0x90>)
  4021f0:	6833      	ldr	r3, [r6, #0]
  4021f2:	2100      	movs	r1, #0
  4021f4:	6898      	ldr	r0, [r3, #8]
  4021f6:	47a0      	blx	r4
  4021f8:	6833      	ldr	r3, [r6, #0]
  4021fa:	2100      	movs	r1, #0
  4021fc:	6858      	ldr	r0, [r3, #4]
  4021fe:	47a0      	blx	r4
  402200:	4628      	mov	r0, r5
  402202:	4b14      	ldr	r3, [pc, #80]	; (402254 <configure_console+0x94>)
  402204:	4798      	blx	r3
  402206:	4628      	mov	r0, r5
  402208:	4b13      	ldr	r3, [pc, #76]	; (402258 <configure_console+0x98>)
  40220a:	4798      	blx	r3
  40220c:	2101      	movs	r1, #1
  40220e:	4628      	mov	r0, r5
  402210:	4b12      	ldr	r3, [pc, #72]	; (40225c <configure_console+0x9c>)
  402212:	4798      	blx	r3
  402214:	4b12      	ldr	r3, [pc, #72]	; (402260 <configure_console+0xa0>)
  402216:	2200      	movs	r2, #0
  402218:	f883 2308 	strb.w	r2, [r3, #776]	; 0x308
  40221c:	f44f 7280 	mov.w	r2, #256	; 0x100
  402220:	601a      	str	r2, [r3, #0]
  402222:	b004      	add	sp, #16
  402224:	bd70      	pop	{r4, r5, r6, pc}
  402226:	bf00      	nop
  402228:	00406a98 	.word	0x00406a98
  40222c:	0040215d 	.word	0x0040215d
  402230:	4000c200 	.word	0x4000c200
  402234:	00403d55 	.word	0x00403d55
  402238:	004026a9 	.word	0x004026a9
  40223c:	20013878 	.word	0x20013878
  402240:	0040208d 	.word	0x0040208d
  402244:	20013874 	.word	0x20013874
  402248:	20013870 	.word	0x20013870
  40224c:	00401fa9 	.word	0x00401fa9
  402250:	20000098 	.word	0x20000098
  402254:	0040065f 	.word	0x0040065f
  402258:	00400659 	.word	0x00400659
  40225c:	00400665 	.word	0x00400665
  402260:	e000e100 	.word	0xe000e100

00402264 <FLEXCOM0_Handler>:
  402264:	b537      	push	{r0, r1, r2, r4, r5, lr}
  402266:	4b10      	ldr	r3, [pc, #64]	; (4022a8 <FLEXCOM0_Handler+0x44>)
  402268:	4810      	ldr	r0, [pc, #64]	; (4022ac <FLEXCOM0_Handler+0x48>)
  40226a:	4798      	blx	r3
  40226c:	07c2      	lsls	r2, r0, #31
  40226e:	4604      	mov	r4, r0
  402270:	d50f      	bpl.n	402292 <FLEXCOM0_Handler+0x2e>
  402272:	f10d 0107 	add.w	r1, sp, #7
  402276:	480d      	ldr	r0, [pc, #52]	; (4022ac <FLEXCOM0_Handler+0x48>)
  402278:	4b0d      	ldr	r3, [pc, #52]	; (4022b0 <FLEXCOM0_Handler+0x4c>)
  40227a:	4d0e      	ldr	r5, [pc, #56]	; (4022b4 <FLEXCOM0_Handler+0x50>)
  40227c:	4798      	blx	r3
  40227e:	4b0e      	ldr	r3, [pc, #56]	; (4022b8 <FLEXCOM0_Handler+0x54>)
  402280:	f89d 2007 	ldrb.w	r2, [sp, #7]
  402284:	480d      	ldr	r0, [pc, #52]	; (4022bc <FLEXCOM0_Handler+0x58>)
  402286:	701a      	strb	r2, [r3, #0]
  402288:	2300      	movs	r3, #0
  40228a:	461a      	mov	r2, r3
  40228c:	4619      	mov	r1, r3
  40228e:	6800      	ldr	r0, [r0, #0]
  402290:	47a8      	blx	r5
  402292:	06e3      	lsls	r3, r4, #27
  402294:	d506      	bpl.n	4022a4 <FLEXCOM0_Handler+0x40>
  402296:	480a      	ldr	r0, [pc, #40]	; (4022c0 <FLEXCOM0_Handler+0x5c>)
  402298:	4c06      	ldr	r4, [pc, #24]	; (4022b4 <FLEXCOM0_Handler+0x50>)
  40229a:	6800      	ldr	r0, [r0, #0]
  40229c:	2300      	movs	r3, #0
  40229e:	461a      	mov	r2, r3
  4022a0:	4619      	mov	r1, r3
  4022a2:	47a0      	blx	r4
  4022a4:	b003      	add	sp, #12
  4022a6:	bd30      	pop	{r4, r5, pc}
  4022a8:	00400669 	.word	0x00400669
  4022ac:	4000c200 	.word	0x4000c200
  4022b0:	00401fa9 	.word	0x00401fa9
  4022b4:	00400dad 	.word	0x00400dad
  4022b8:	20013894 	.word	0x20013894
  4022bc:	20013888 	.word	0x20013888
  4022c0:	2001388c 	.word	0x2001388c

004022c4 <_write>:
  4022c4:	3801      	subs	r0, #1
  4022c6:	2802      	cmp	r0, #2
  4022c8:	e92d 41f0 	stmdb	sp!, {r4, r5, r6, r7, r8, lr}
  4022cc:	460e      	mov	r6, r1
  4022ce:	d812      	bhi.n	4022f6 <_write+0x32>
  4022d0:	4f0b      	ldr	r7, [pc, #44]	; (402300 <_write+0x3c>)
  4022d2:	f8df 8030 	ldr.w	r8, [pc, #48]	; 402304 <_write+0x40>
  4022d6:	188d      	adds	r5, r1, r2
  4022d8:	460c      	mov	r4, r1
  4022da:	42ac      	cmp	r4, r5
  4022dc:	eba4 0006 	sub.w	r0, r4, r6
  4022e0:	d101      	bne.n	4022e6 <_write+0x22>
  4022e2:	e8bd 81f0 	ldmia.w	sp!, {r4, r5, r6, r7, r8, pc}
  4022e6:	6838      	ldr	r0, [r7, #0]
  4022e8:	f814 1b01 	ldrb.w	r1, [r4], #1
  4022ec:	f8d8 3000 	ldr.w	r3, [r8]
  4022f0:	4798      	blx	r3
  4022f2:	2800      	cmp	r0, #0
  4022f4:	daf1      	bge.n	4022da <_write+0x16>
  4022f6:	f04f 30ff 	mov.w	r0, #4294967295
  4022fa:	e8bd 81f0 	ldmia.w	sp!, {r4, r5, r6, r7, r8, pc}
  4022fe:	bf00      	nop
  402300:	20013878 	.word	0x20013878
  402304:	20013874 	.word	0x20013874

00402308 <flexcom_enable>:
  402308:	b513      	push	{r0, r1, r4, lr}
  40230a:	4a2d      	ldr	r2, [pc, #180]	; (4023c0 <flexcom_enable+0xb8>)
  40230c:	7813      	ldrb	r3, [r2, #0]
  40230e:	2bff      	cmp	r3, #255	; 0xff
  402310:	d100      	bne.n	402314 <flexcom_enable+0xc>
  402312:	e7fe      	b.n	402312 <flexcom_enable+0xa>
  402314:	f3ef 8310 	mrs	r3, PRIMASK
  402318:	fab3 f383 	clz	r3, r3
  40231c:	095b      	lsrs	r3, r3, #5
  40231e:	9301      	str	r3, [sp, #4]
  402320:	b672      	cpsid	i
  402322:	f3bf 8f5f 	dmb	sy
  402326:	4927      	ldr	r1, [pc, #156]	; (4023c4 <flexcom_enable+0xbc>)
  402328:	2300      	movs	r3, #0
  40232a:	700b      	strb	r3, [r1, #0]
  40232c:	7813      	ldrb	r3, [r2, #0]
  40232e:	9c01      	ldr	r4, [sp, #4]
  402330:	3301      	adds	r3, #1
  402332:	7013      	strb	r3, [r2, #0]
  402334:	b124      	cbz	r4, 402340 <flexcom_enable+0x38>
  402336:	2301      	movs	r3, #1
  402338:	700b      	strb	r3, [r1, #0]
  40233a:	f3bf 8f5f 	dmb	sy
  40233e:	b662      	cpsie	i
  402340:	4b21      	ldr	r3, [pc, #132]	; (4023c8 <flexcom_enable+0xc0>)
  402342:	4298      	cmp	r0, r3
  402344:	d10e      	bne.n	402364 <flexcom_enable+0x5c>
  402346:	2007      	movs	r0, #7
  402348:	4b20      	ldr	r3, [pc, #128]	; (4023cc <flexcom_enable+0xc4>)
  40234a:	4798      	blx	r3
  40234c:	2007      	movs	r0, #7
  40234e:	4b20      	ldr	r3, [pc, #128]	; (4023d0 <flexcom_enable+0xc8>)
  402350:	4798      	blx	r3
  402352:	2100      	movs	r1, #0
  402354:	2007      	movs	r0, #7
  402356:	4b1f      	ldr	r3, [pc, #124]	; (4023d4 <flexcom_enable+0xcc>)
  402358:	4798      	blx	r3
  40235a:	2007      	movs	r0, #7
  40235c:	4b1e      	ldr	r3, [pc, #120]	; (4023d8 <flexcom_enable+0xd0>)
  40235e:	4798      	blx	r3
  402360:	b002      	add	sp, #8
  402362:	bd10      	pop	{r4, pc}
  402364:	4b1d      	ldr	r3, [pc, #116]	; (4023dc <flexcom_enable+0xd4>)
  402366:	4298      	cmp	r0, r3
  402368:	d101      	bne.n	40236e <flexcom_enable+0x66>
  40236a:	2016      	movs	r0, #22
  40236c:	e7ec      	b.n	402348 <flexcom_enable+0x40>
  40236e:	4b1c      	ldr	r3, [pc, #112]	; (4023e0 <flexcom_enable+0xd8>)
  402370:	4298      	cmp	r0, r3
  402372:	d101      	bne.n	402378 <flexcom_enable+0x70>
  402374:	2015      	movs	r0, #21
  402376:	e7e7      	b.n	402348 <flexcom_enable+0x40>
  402378:	4b1a      	ldr	r3, [pc, #104]	; (4023e4 <flexcom_enable+0xdc>)
  40237a:	4298      	cmp	r0, r3
  40237c:	d101      	bne.n	402382 <flexcom_enable+0x7a>
  40237e:	2014      	movs	r0, #20
  402380:	e7e2      	b.n	402348 <flexcom_enable+0x40>
  402382:	4b19      	ldr	r3, [pc, #100]	; (4023e8 <flexcom_enable+0xe0>)
  402384:	4298      	cmp	r0, r3
  402386:	d10b      	bne.n	4023a0 <flexcom_enable+0x98>
  402388:	2013      	movs	r0, #19
  40238a:	4b10      	ldr	r3, [pc, #64]	; (4023cc <flexcom_enable+0xc4>)
  40238c:	4798      	blx	r3
  40238e:	2006      	movs	r0, #6
  402390:	4b0f      	ldr	r3, [pc, #60]	; (4023d0 <flexcom_enable+0xc8>)
  402392:	4798      	blx	r3
  402394:	2100      	movs	r1, #0
  402396:	2006      	movs	r0, #6
  402398:	4b0e      	ldr	r3, [pc, #56]	; (4023d4 <flexcom_enable+0xcc>)
  40239a:	4798      	blx	r3
  40239c:	2006      	movs	r0, #6
  40239e:	e7dd      	b.n	40235c <flexcom_enable+0x54>
  4023a0:	4b12      	ldr	r3, [pc, #72]	; (4023ec <flexcom_enable+0xe4>)
  4023a2:	4298      	cmp	r0, r3
  4023a4:	d101      	bne.n	4023aa <flexcom_enable+0xa2>
  4023a6:	200e      	movs	r0, #14
  4023a8:	e7ef      	b.n	40238a <flexcom_enable+0x82>
  4023aa:	4b11      	ldr	r3, [pc, #68]	; (4023f0 <flexcom_enable+0xe8>)
  4023ac:	4298      	cmp	r0, r3
  4023ae:	d101      	bne.n	4023b4 <flexcom_enable+0xac>
  4023b0:	2009      	movs	r0, #9
  4023b2:	e7ea      	b.n	40238a <flexcom_enable+0x82>
  4023b4:	4b0f      	ldr	r3, [pc, #60]	; (4023f4 <flexcom_enable+0xec>)
  4023b6:	4298      	cmp	r0, r3
  4023b8:	d1d2      	bne.n	402360 <flexcom_enable+0x58>
  4023ba:	2008      	movs	r0, #8
  4023bc:	e7e5      	b.n	40238a <flexcom_enable+0x82>
  4023be:	bf00      	nop
  4023c0:	20013868 	.word	0x20013868
  4023c4:	20000090 	.word	0x20000090
  4023c8:	40034000 	.word	0x40034000
  4023cc:	004026a9 	.word	0x004026a9
  4023d0:	0040272d 	.word	0x0040272d
  4023d4:	004026e9 	.word	0x004026e9
  4023d8:	00402719 	.word	0x00402719
  4023dc:	40040000 	.word	0x40040000
  4023e0:	40008000 	.word	0x40008000
  4023e4:	4001c000 	.word	0x4001c000
  4023e8:	40018000 	.word	0x40018000
  4023ec:	40024000 	.word	0x40024000
  4023f0:	40020000 	.word	0x40020000
  4023f4:	4000c000 	.word	0x4000c000

004023f8 <flexcom_set_opmode>:
  4023f8:	6001      	str	r1, [r0, #0]
  4023fa:	4770      	bx	lr

004023fc <sysclk_init>:
  4023fc:	b530      	push	{r4, r5, lr}
  4023fe:	4818      	ldr	r0, [pc, #96]	; (402460 <sysclk_init+0x64>)
  402400:	4c18      	ldr	r4, [pc, #96]	; (402464 <sysclk_init+0x68>)
  402402:	4d19      	ldr	r5, [pc, #100]	; (402468 <sysclk_init+0x6c>)
  402404:	b0a3      	sub	sp, #140	; 0x8c
  402406:	47a0      	blx	r4
  402408:	2000      	movs	r0, #0
  40240a:	4b18      	ldr	r3, [pc, #96]	; (40246c <sysclk_init+0x70>)
  40240c:	4798      	blx	r3
  40240e:	47a8      	blx	r5
  402410:	2800      	cmp	r0, #0
  402412:	d0fc      	beq.n	40240e <sysclk_init+0x12>
  402414:	4b16      	ldr	r3, [pc, #88]	; (402470 <sysclk_init+0x74>)
  402416:	4d17      	ldr	r5, [pc, #92]	; (402474 <sysclk_init+0x78>)
  402418:	4798      	blx	r3
  40241a:	4b17      	ldr	r3, [pc, #92]	; (402478 <sysclk_init+0x7c>)
  40241c:	4a17      	ldr	r2, [pc, #92]	; (40247c <sysclk_init+0x80>)
  40241e:	629a      	str	r2, [r3, #40]	; 0x28
  402420:	47a8      	blx	r5
  402422:	2800      	cmp	r0, #0
  402424:	d0fc      	beq.n	402420 <sysclk_init+0x24>
  402426:	4b16      	ldr	r3, [pc, #88]	; (402480 <sysclk_init+0x84>)
  402428:	2000      	movs	r0, #0
  40242a:	4798      	blx	r3
  40242c:	4b15      	ldr	r3, [pc, #84]	; (402484 <sysclk_init+0x88>)
  40242e:	4798      	blx	r3
  402430:	4815      	ldr	r0, [pc, #84]	; (402488 <sysclk_init+0x8c>)
  402432:	47a0      	blx	r4
  402434:	4b15      	ldr	r3, [pc, #84]	; (40248c <sysclk_init+0x90>)
  402436:	681a      	ldr	r2, [r3, #0]
  402438:	4b15      	ldr	r3, [pc, #84]	; (402490 <sysclk_init+0x94>)
  40243a:	4413      	add	r3, r2
  40243c:	4a15      	ldr	r2, [pc, #84]	; (402494 <sysclk_init+0x98>)
  40243e:	4293      	cmp	r3, r2
  402440:	d80c      	bhi.n	40245c <sysclk_init+0x60>
  402442:	2320      	movs	r3, #32
  402444:	9300      	str	r3, [sp, #0]
  402446:	210e      	movs	r1, #14
  402448:	ab02      	add	r3, sp, #8
  40244a:	220f      	movs	r2, #15
  40244c:	4812      	ldr	r0, [pc, #72]	; (402498 <sysclk_init+0x9c>)
  40244e:	4c13      	ldr	r4, [pc, #76]	; (40249c <sysclk_init+0xa0>)
  402450:	47a0      	blx	r4
  402452:	f8bd 1048 	ldrh.w	r1, [sp, #72]	; 0x48
  402456:	4812      	ldr	r0, [pc, #72]	; (4024a0 <sysclk_init+0xa4>)
  402458:	4b12      	ldr	r3, [pc, #72]	; (4024a4 <sysclk_init+0xa8>)
  40245a:	4798      	blx	r3
  40245c:	b023      	add	sp, #140	; 0x8c
  40245e:	bd30      	pop	{r4, r5, pc}
  402460:	07270e00 	.word	0x07270e00
  402464:	004028cd 	.word	0x004028cd
  402468:	00402671 	.word	0x00402671
  40246c:	00402651 	.word	0x00402651
  402470:	0040268d 	.word	0x0040268d
  402474:	00402699 	.word	0x00402699
  402478:	400e0400 	.word	0x400e0400
  40247c:	0e4d3f01 	.word	0x0e4d3f01
  402480:	0040260d 	.word	0x0040260d
  402484:	00402819 	.word	0x00402819
  402488:	07270000 	.word	0x07270000
  40248c:	20000094 	.word	0x20000094
  402490:	f9bdd3c0 	.word	0xf9bdd3c0
  402494:	01c9c380 	.word	0x01c9c380
  402498:	400e0a00 	.word	0x400e0a00
  40249c:	2000000d 	.word	0x2000000d
  4024a0:	400e1410 	.word	0x400e1410
  4024a4:	00402741 	.word	0x00402741

004024a8 <ioport_set_pin_mode>:
  4024a8:	f000 021f 	and.w	r2, r0, #31
  4024ac:	0940      	lsrs	r0, r0, #5
  4024ae:	f500 1000 	add.w	r0, r0, #2097152	; 0x200000
  4024b2:	f200 7007 	addw	r0, r0, #1799	; 0x707
  4024b6:	0240      	lsls	r0, r0, #9
  4024b8:	2301      	movs	r3, #1
  4024ba:	4093      	lsls	r3, r2
  4024bc:	070a      	lsls	r2, r1, #28
  4024be:	bf4c      	ite	mi
  4024c0:	6643      	strmi	r3, [r0, #100]	; 0x64
  4024c2:	6603      	strpl	r3, [r0, #96]	; 0x60
  4024c4:	06ca      	lsls	r2, r1, #27
  4024c6:	bf4c      	ite	mi
  4024c8:	f8c0 3094 	strmi.w	r3, [r0, #148]	; 0x94
  4024cc:	f8c0 3090 	strpl.w	r3, [r0, #144]	; 0x90
  4024d0:	068a      	lsls	r2, r1, #26
  4024d2:	bf4c      	ite	mi
  4024d4:	6503      	strmi	r3, [r0, #80]	; 0x50
  4024d6:	6543      	strpl	r3, [r0, #84]	; 0x54
  4024d8:	f011 0fc0 	tst.w	r1, #192	; 0xc0
  4024dc:	bf14      	ite	ne
  4024de:	6203      	strne	r3, [r0, #32]
  4024e0:	6243      	streq	r3, [r0, #36]	; 0x24
  4024e2:	060a      	lsls	r2, r1, #24
  4024e4:	bf4c      	ite	mi
  4024e6:	f8c0 3084 	strmi.w	r3, [r0, #132]	; 0x84
  4024ea:	f8c0 3080 	strpl.w	r3, [r0, #128]	; 0x80
  4024ee:	6f02      	ldr	r2, [r0, #112]	; 0x70
  4024f0:	f011 0f01 	tst.w	r1, #1
  4024f4:	bf14      	ite	ne
  4024f6:	431a      	orrne	r2, r3
  4024f8:	439a      	biceq	r2, r3
  4024fa:	6702      	str	r2, [r0, #112]	; 0x70
  4024fc:	6f42      	ldr	r2, [r0, #116]	; 0x74
  4024fe:	0789      	lsls	r1, r1, #30
  402500:	bf4c      	ite	mi
  402502:	4313      	orrmi	r3, r2
  402504:	ea22 0303 	bicpl.w	r3, r2, r3
  402508:	6743      	str	r3, [r0, #116]	; 0x74
  40250a:	4770      	bx	lr

0040250c <system_board_init>:
  40250c:	e92d 43f8 	stmdb	sp!, {r3, r4, r5, r6, r7, r8, r9, lr}
  402510:	4b39      	ldr	r3, [pc, #228]	; (4025f8 <system_board_init+0xec>)
  402512:	4c3a      	ldr	r4, [pc, #232]	; (4025fc <system_board_init+0xf0>)
  402514:	4e3a      	ldr	r6, [pc, #232]	; (402600 <system_board_init+0xf4>)
  402516:	4d3b      	ldr	r5, [pc, #236]	; (402604 <system_board_init+0xf8>)
  402518:	f44f 4900 	mov.w	r9, #32768	; 0x8000
  40251c:	f8c3 9004 	str.w	r9, [r3, #4]
  402520:	200b      	movs	r0, #11
  402522:	47a0      	blx	r4
  402524:	200c      	movs	r0, #12
  402526:	47a0      	blx	r4
  402528:	4c37      	ldr	r4, [pc, #220]	; (402608 <system_board_init+0xfc>)
  40252a:	f44f 6780 	mov.w	r7, #1024	; 0x400
  40252e:	2304      	movs	r3, #4
  402530:	6137      	str	r7, [r6, #16]
  402532:	2108      	movs	r1, #8
  402534:	f8c6 70a0 	str.w	r7, [r6, #160]	; 0xa0
  402538:	2002      	movs	r0, #2
  40253a:	6337      	str	r7, [r6, #48]	; 0x30
  40253c:	6163      	str	r3, [r4, #20]
  40253e:	f8c4 30a0 	str.w	r3, [r4, #160]	; 0xa0
  402542:	47a8      	blx	r5
  402544:	f44f 5800 	mov.w	r8, #8192	; 0x2000
  402548:	2302      	movs	r3, #2
  40254a:	6323      	str	r3, [r4, #48]	; 0x30
  40254c:	2100      	movs	r1, #0
  40254e:	6123      	str	r3, [r4, #16]
  402550:	200c      	movs	r0, #12
  402552:	f8c4 30a0 	str.w	r3, [r4, #160]	; 0xa0
  402556:	f8c6 8030 	str.w	r8, [r6, #48]	; 0x30
  40255a:	f8c6 8010 	str.w	r8, [r6, #16]
  40255e:	f8c6 80a0 	str.w	r8, [r6, #160]	; 0xa0
  402562:	f8c6 9030 	str.w	r9, [r6, #48]	; 0x30
  402566:	f8c6 9010 	str.w	r9, [r6, #16]
  40256a:	f8c6 90a0 	str.w	r9, [r6, #160]	; 0xa0
  40256e:	47a8      	blx	r5
  402570:	f44f 5380 	mov.w	r3, #4096	; 0x1000
  402574:	6063      	str	r3, [r4, #4]
  402576:	2100      	movs	r1, #0
  402578:	200d      	movs	r0, #13
  40257a:	47a8      	blx	r5
  40257c:	f8c4 8004 	str.w	r8, [r4, #4]
  402580:	2100      	movs	r1, #0
  402582:	200e      	movs	r0, #14
  402584:	47a8      	blx	r5
  402586:	f44f 4380 	mov.w	r3, #16384	; 0x4000
  40258a:	6063      	str	r3, [r4, #4]
  40258c:	2100      	movs	r1, #0
  40258e:	200b      	movs	r0, #11
  402590:	47a8      	blx	r5
  402592:	f44f 6300 	mov.w	r3, #2048	; 0x800
  402596:	6063      	str	r3, [r4, #4]
  402598:	2101      	movs	r1, #1
  40259a:	2005      	movs	r0, #5
  40259c:	f04f 0820 	mov.w	r8, #32
  4025a0:	47a8      	blx	r5
  4025a2:	2100      	movs	r1, #0
  4025a4:	2028      	movs	r0, #40	; 0x28
  4025a6:	f8c4 8004 	str.w	r8, [r4, #4]
  4025aa:	47a8      	blx	r5
  4025ac:	f44f 7380 	mov.w	r3, #256	; 0x100
  4025b0:	6073      	str	r3, [r6, #4]
  4025b2:	2100      	movs	r1, #0
  4025b4:	2029      	movs	r0, #41	; 0x29
  4025b6:	f44f 7900 	mov.w	r9, #512	; 0x200
  4025ba:	47a8      	blx	r5
  4025bc:	2100      	movs	r1, #0
  4025be:	2009      	movs	r0, #9
  4025c0:	f8c6 9004 	str.w	r9, [r6, #4]
  4025c4:	47a8      	blx	r5
  4025c6:	2100      	movs	r1, #0
  4025c8:	200a      	movs	r0, #10
  4025ca:	f8c4 9004 	str.w	r9, [r4, #4]
  4025ce:	47a8      	blx	r5
  4025d0:	2100      	movs	r1, #0
  4025d2:	4640      	mov	r0, r8
  4025d4:	6067      	str	r7, [r4, #4]
  4025d6:	47a8      	blx	r5
  4025d8:	2301      	movs	r3, #1
  4025da:	6073      	str	r3, [r6, #4]
  4025dc:	2100      	movs	r1, #0
  4025de:	2019      	movs	r0, #25
  4025e0:	47a8      	blx	r5
  4025e2:	f04f 7300 	mov.w	r3, #33554432	; 0x2000000
  4025e6:	6063      	str	r3, [r4, #4]
  4025e8:	2100      	movs	r1, #0
  4025ea:	201a      	movs	r0, #26
  4025ec:	47a8      	blx	r5
  4025ee:	f04f 6380 	mov.w	r3, #67108864	; 0x4000000
  4025f2:	6063      	str	r3, [r4, #4]
  4025f4:	e8bd 83f8 	ldmia.w	sp!, {r3, r4, r5, r6, r7, r8, r9, pc}
  4025f8:	400e1450 	.word	0x400e1450
  4025fc:	004026a9 	.word	0x004026a9
  402600:	400e1000 	.word	0x400e1000
  402604:	004024a9 	.word	0x004024a9
  402608:	400e0e00 	.word	0x400e0e00

0040260c <pmc_switch_mck_to_pllack>:
  40260c:	4b0f      	ldr	r3, [pc, #60]	; (40264c <pmc_switch_mck_to_pllack+0x40>)
  40260e:	6b1a      	ldr	r2, [r3, #48]	; 0x30
  402610:	f022 0270 	bic.w	r2, r2, #112	; 0x70
  402614:	4310      	orrs	r0, r2
  402616:	6318      	str	r0, [r3, #48]	; 0x30
  402618:	f640 0201 	movw	r2, #2049	; 0x801
  40261c:	6e99      	ldr	r1, [r3, #104]	; 0x68
  40261e:	0708      	lsls	r0, r1, #28
  402620:	d50c      	bpl.n	40263c <pmc_switch_mck_to_pllack+0x30>
  402622:	6b1a      	ldr	r2, [r3, #48]	; 0x30
  402624:	f022 0203 	bic.w	r2, r2, #3
  402628:	f042 0202 	orr.w	r2, r2, #2
  40262c:	631a      	str	r2, [r3, #48]	; 0x30
  40262e:	f640 0201 	movw	r2, #2049	; 0x801
  402632:	6e99      	ldr	r1, [r3, #104]	; 0x68
  402634:	0709      	lsls	r1, r1, #28
  402636:	d505      	bpl.n	402644 <pmc_switch_mck_to_pllack+0x38>
  402638:	2000      	movs	r0, #0
  40263a:	4770      	bx	lr
  40263c:	3a01      	subs	r2, #1
  40263e:	d1ed      	bne.n	40261c <pmc_switch_mck_to_pllack+0x10>
  402640:	2001      	movs	r0, #1
  402642:	4770      	bx	lr
  402644:	3a01      	subs	r2, #1
  402646:	d1f4      	bne.n	402632 <pmc_switch_mck_to_pllack+0x26>
  402648:	e7fa      	b.n	402640 <pmc_switch_mck_to_pllack+0x34>
  40264a:	bf00      	nop
  40264c:	400e0400 	.word	0x400e0400

00402650 <pmc_switch_sclk_to_32kxtal>:
  402650:	4a05      	ldr	r2, [pc, #20]	; (402668 <pmc_switch_sclk_to_32kxtal+0x18>)
  402652:	2801      	cmp	r0, #1
  402654:	bf01      	itttt	eq
  402656:	6893      	ldreq	r3, [r2, #8]
  402658:	f043 4325 	orreq.w	r3, r3, #2768240640	; 0xa5000000
  40265c:	f443 1380 	orreq.w	r3, r3, #1048576	; 0x100000
  402660:	6093      	streq	r3, [r2, #8]
  402662:	4b02      	ldr	r3, [pc, #8]	; (40266c <pmc_switch_sclk_to_32kxtal+0x1c>)
  402664:	6013      	str	r3, [r2, #0]
  402666:	4770      	bx	lr
  402668:	400e1410 	.word	0x400e1410
  40266c:	a5000008 	.word	0xa5000008

00402670 <pmc_osc_is_ready_32kxtal>:
  402670:	4b05      	ldr	r3, [pc, #20]	; (402688 <pmc_osc_is_ready_32kxtal+0x18>)
  402672:	6958      	ldr	r0, [r3, #20]
  402674:	f010 0080 	ands.w	r0, r0, #128	; 0x80
  402678:	bf1f      	itttt	ne
  40267a:	f5a3 5380 	subne.w	r3, r3, #4096	; 0x1000
  40267e:	3b10      	subne	r3, #16
  402680:	6e98      	ldrne	r0, [r3, #104]	; 0x68
  402682:	f3c0 10c0 	ubfxne	r0, r0, #7, #1
  402686:	4770      	bx	lr
  402688:	400e1410 	.word	0x400e1410

0040268c <pmc_disable_pllack>:
  40268c:	4b01      	ldr	r3, [pc, #4]	; (402694 <pmc_disable_pllack+0x8>)
  40268e:	2200      	movs	r2, #0
  402690:	629a      	str	r2, [r3, #40]	; 0x28
  402692:	4770      	bx	lr
  402694:	400e0400 	.word	0x400e0400

00402698 <pmc_is_locked_pllack>:
  402698:	4b02      	ldr	r3, [pc, #8]	; (4026a4 <pmc_is_locked_pllack+0xc>)
  40269a:	6e98      	ldr	r0, [r3, #104]	; 0x68
  40269c:	f000 0002 	and.w	r0, r0, #2
  4026a0:	4770      	bx	lr
  4026a2:	bf00      	nop
  4026a4:	400e0400 	.word	0x400e0400

004026a8 <pmc_enable_periph_clk>:
  4026a8:	2832      	cmp	r0, #50	; 0x32
  4026aa:	d818      	bhi.n	4026de <pmc_enable_periph_clk+0x36>
  4026ac:	281f      	cmp	r0, #31
  4026ae:	4a0d      	ldr	r2, [pc, #52]	; (4026e4 <pmc_enable_periph_clk+0x3c>)
  4026b0:	f04f 0301 	mov.w	r3, #1
  4026b4:	d808      	bhi.n	4026c8 <pmc_enable_periph_clk+0x20>
  4026b6:	6991      	ldr	r1, [r2, #24]
  4026b8:	fa03 f000 	lsl.w	r0, r3, r0
  4026bc:	ea30 0301 	bics.w	r3, r0, r1
  4026c0:	d000      	beq.n	4026c4 <pmc_enable_periph_clk+0x1c>
  4026c2:	6110      	str	r0, [r2, #16]
  4026c4:	2000      	movs	r0, #0
  4026c6:	4770      	bx	lr
  4026c8:	3820      	subs	r0, #32
  4026ca:	f8d2 1108 	ldr.w	r1, [r2, #264]	; 0x108
  4026ce:	fa03 f000 	lsl.w	r0, r3, r0
  4026d2:	ea30 0301 	bics.w	r3, r0, r1
  4026d6:	d0f5      	beq.n	4026c4 <pmc_enable_periph_clk+0x1c>
  4026d8:	f8c2 0100 	str.w	r0, [r2, #256]	; 0x100
  4026dc:	e7f2      	b.n	4026c4 <pmc_enable_periph_clk+0x1c>
  4026de:	2001      	movs	r0, #1
  4026e0:	4770      	bx	lr
  4026e2:	bf00      	nop
  4026e4:	400e0400 	.word	0x400e0400

004026e8 <pmc_switch_pck_to_mck>:
  4026e8:	f100 0210 	add.w	r2, r0, #16
  4026ec:	4b09      	ldr	r3, [pc, #36]	; (402714 <pmc_switch_pck_to_mck+0x2c>)
  4026ee:	f041 0104 	orr.w	r1, r1, #4
  4026f2:	f843 1022 	str.w	r1, [r3, r2, lsl #2]
  4026f6:	f44f 7280 	mov.w	r2, #256	; 0x100
  4026fa:	fa02 f000 	lsl.w	r0, r2, r0
  4026fe:	f640 0201 	movw	r2, #2049	; 0x801
  402702:	6e99      	ldr	r1, [r3, #104]	; 0x68
  402704:	4201      	tst	r1, r0
  402706:	d001      	beq.n	40270c <pmc_switch_pck_to_mck+0x24>
  402708:	2000      	movs	r0, #0
  40270a:	4770      	bx	lr
  40270c:	3a01      	subs	r2, #1
  40270e:	d1f8      	bne.n	402702 <pmc_switch_pck_to_mck+0x1a>
  402710:	2001      	movs	r0, #1
  402712:	4770      	bx	lr
  402714:	400e0400 	.word	0x400e0400

00402718 <pmc_enable_pck>:
  402718:	f44f 7380 	mov.w	r3, #256	; 0x100
  40271c:	fa03 f000 	lsl.w	r0, r3, r0
  402720:	4b01      	ldr	r3, [pc, #4]	; (402728 <pmc_enable_pck+0x10>)
  402722:	6018      	str	r0, [r3, #0]
  402724:	4770      	bx	lr
  402726:	bf00      	nop
  402728:	400e0400 	.word	0x400e0400

0040272c <pmc_disable_pck>:
  40272c:	f44f 7380 	mov.w	r3, #256	; 0x100
  402730:	fa03 f000 	lsl.w	r0, r3, r0
  402734:	4b01      	ldr	r3, [pc, #4]	; (40273c <pmc_disable_pck+0x10>)
  402736:	6058      	str	r0, [r3, #4]
  402738:	4770      	bx	lr
  40273a:	bf00      	nop
  40273c:	400e0400 	.word	0x400e0400

00402740 <supc_set_regulator_trim_user>:
  402740:	0249      	lsls	r1, r1, #9
  402742:	69c3      	ldr	r3, [r0, #28]
  402744:	f401 51f0 	and.w	r1, r1, #7680	; 0x1e00
  402748:	f041 41b4 	orr.w	r1, r1, #1509949440	; 0x5a000000
  40274c:	f441 7180 	orr.w	r1, r1, #256	; 0x100
  402750:	f423 53f0 	bic.w	r3, r3, #7680	; 0x1e00
  402754:	4319      	orrs	r1, r3
  402756:	61c1      	str	r1, [r0, #28]
  402758:	4770      	bx	lr

0040275a <Dummy_Handler>:
  40275a:	e7fe      	b.n	40275a <Dummy_Handler>

0040275c <Reset_Handler>:
  40275c:	b507      	push	{r0, r1, r2, lr}
  40275e:	4b22      	ldr	r3, [pc, #136]	; (4027e8 <Reset_Handler+0x8c>)
  402760:	4a22      	ldr	r2, [pc, #136]	; (4027ec <Reset_Handler+0x90>)
  402762:	429a      	cmp	r2, r3
  402764:	d133      	bne.n	4027ce <Reset_Handler+0x72>
  402766:	4b22      	ldr	r3, [pc, #136]	; (4027f0 <Reset_Handler+0x94>)
  402768:	4a22      	ldr	r2, [pc, #136]	; (4027f4 <Reset_Handler+0x98>)
  40276a:	2100      	movs	r1, #0
  40276c:	4293      	cmp	r3, r2
  40276e:	d337      	bcc.n	4027e0 <Reset_Handler+0x84>
  402770:	4b21      	ldr	r3, [pc, #132]	; (4027f8 <Reset_Handler+0x9c>)
  402772:	4a22      	ldr	r2, [pc, #136]	; (4027fc <Reset_Handler+0xa0>)
  402774:	f023 037f 	bic.w	r3, r3, #127	; 0x7f
  402778:	6093      	str	r3, [r2, #8]
  40277a:	f3ef 8310 	mrs	r3, PRIMASK
  40277e:	fab3 f383 	clz	r3, r3
  402782:	095b      	lsrs	r3, r3, #5
  402784:	9301      	str	r3, [sp, #4]
  402786:	b672      	cpsid	i
  402788:	f3bf 8f5f 	dmb	sy
  40278c:	4a1c      	ldr	r2, [pc, #112]	; (402800 <Reset_Handler+0xa4>)
  40278e:	491d      	ldr	r1, [pc, #116]	; (402804 <Reset_Handler+0xa8>)
  402790:	2300      	movs	r3, #0
  402792:	7013      	strb	r3, [r2, #0]
  402794:	9801      	ldr	r0, [sp, #4]
  402796:	680b      	ldr	r3, [r1, #0]
  402798:	f443 0370 	orr.w	r3, r3, #15728640	; 0xf00000
  40279c:	600b      	str	r3, [r1, #0]
  40279e:	f3bf 8f4f 	dsb	sy
  4027a2:	f3bf 8f6f 	isb	sy
  4027a6:	b120      	cbz	r0, 4027b2 <Reset_Handler+0x56>
  4027a8:	2301      	movs	r3, #1
  4027aa:	7013      	strb	r3, [r2, #0]
  4027ac:	f3bf 8f5f 	dmb	sy
  4027b0:	b662      	cpsie	i
  4027b2:	4b15      	ldr	r3, [pc, #84]	; (402808 <Reset_Handler+0xac>)
  4027b4:	f5b3 3f20 	cmp.w	r3, #163840	; 0x28000
  4027b8:	bf3f      	itttt	cc
  4027ba:	4a10      	ldrcc	r2, [pc, #64]	; (4027fc <Reset_Handler+0xa0>)
  4027bc:	6893      	ldrcc	r3, [r2, #8]
  4027be:	f043 5300 	orrcc.w	r3, r3, #536870912	; 0x20000000
  4027c2:	6093      	strcc	r3, [r2, #8]
  4027c4:	4b11      	ldr	r3, [pc, #68]	; (40280c <Reset_Handler+0xb0>)
  4027c6:	4798      	blx	r3
  4027c8:	4b11      	ldr	r3, [pc, #68]	; (402810 <Reset_Handler+0xb4>)
  4027ca:	4798      	blx	r3
  4027cc:	e7fe      	b.n	4027cc <Reset_Handler+0x70>
  4027ce:	4911      	ldr	r1, [pc, #68]	; (402814 <Reset_Handler+0xb8>)
  4027d0:	3a04      	subs	r2, #4
  4027d2:	428b      	cmp	r3, r1
  4027d4:	d2c7      	bcs.n	402766 <Reset_Handler+0xa>
  4027d6:	f852 0f04 	ldr.w	r0, [r2, #4]!
  4027da:	f843 0b04 	str.w	r0, [r3], #4
  4027de:	e7f8      	b.n	4027d2 <Reset_Handler+0x76>
  4027e0:	f843 1b04 	str.w	r1, [r3], #4
  4027e4:	e7c2      	b.n	40276c <Reset_Handler+0x10>
  4027e6:	bf00      	nop
  4027e8:	20000000 	.word	0x20000000
  4027ec:	00406cd0 	.word	0x00406cd0
  4027f0:	20000a48 	.word	0x20000a48
  4027f4:	2001b8c0 	.word	0x2001b8c0
  4027f8:	00400000 	.word	0x00400000
  4027fc:	e000ed00 	.word	0xe000ed00
  402800:	20000090 	.word	0x20000090
  402804:	e000ed88 	.word	0xe000ed88
  402808:	e0400000 	.word	0xe0400000
  40280c:	00403b0d 	.word	0x00403b0d
  402810:	00403a5d 	.word	0x00403a5d
  402814:	20000a48 	.word	0x20000a48

00402818 <SystemCoreClockUpdate>:
  402818:	4a25      	ldr	r2, [pc, #148]	; (4028b0 <SystemCoreClockUpdate+0x98>)
  40281a:	4b26      	ldr	r3, [pc, #152]	; (4028b4 <SystemCoreClockUpdate+0x9c>)
  40281c:	6b11      	ldr	r1, [r2, #48]	; 0x30
  40281e:	f001 0103 	and.w	r1, r1, #3
  402822:	2901      	cmp	r1, #1
  402824:	d01d      	beq.n	402862 <SystemCoreClockUpdate+0x4a>
  402826:	d312      	bcc.n	40284e <SystemCoreClockUpdate+0x36>
  402828:	2902      	cmp	r1, #2
  40282a:	d02c      	beq.n	402886 <SystemCoreClockUpdate+0x6e>
  40282c:	6b11      	ldr	r1, [r2, #48]	; 0x30
  40282e:	f001 0170 	and.w	r1, r1, #112	; 0x70
  402832:	2970      	cmp	r1, #112	; 0x70
  402834:	bf1b      	ittet	ne
  402836:	6b11      	ldrne	r1, [r2, #48]	; 0x30
  402838:	681a      	ldrne	r2, [r3, #0]
  40283a:	681a      	ldreq	r2, [r3, #0]
  40283c:	f3c1 1102 	ubfxne	r1, r1, #4, #3
  402840:	bf12      	itee	ne
  402842:	40ca      	lsrne	r2, r1
  402844:	2103      	moveq	r1, #3
  402846:	fbb2 f2f1 	udiveq	r2, r2, r1
  40284a:	601a      	str	r2, [r3, #0]
  40284c:	4770      	bx	lr
  40284e:	491a      	ldr	r1, [pc, #104]	; (4028b8 <SystemCoreClockUpdate+0xa0>)
  402850:	6949      	ldr	r1, [r1, #20]
  402852:	0609      	lsls	r1, r1, #24
  402854:	bf4c      	ite	mi
  402856:	f44f 4100 	movmi.w	r1, #32768	; 0x8000
  40285a:	f44f 41fa 	movpl.w	r1, #32000	; 0x7d00
  40285e:	6019      	str	r1, [r3, #0]
  402860:	e7e4      	b.n	40282c <SystemCoreClockUpdate+0x14>
  402862:	6a11      	ldr	r1, [r2, #32]
  402864:	01c8      	lsls	r0, r1, #7
  402866:	d501      	bpl.n	40286c <SystemCoreClockUpdate+0x54>
  402868:	4914      	ldr	r1, [pc, #80]	; (4028bc <SystemCoreClockUpdate+0xa4>)
  40286a:	e7f8      	b.n	40285e <SystemCoreClockUpdate+0x46>
  40286c:	4914      	ldr	r1, [pc, #80]	; (4028c0 <SystemCoreClockUpdate+0xa8>)
  40286e:	6019      	str	r1, [r3, #0]
  402870:	6a11      	ldr	r1, [r2, #32]
  402872:	f001 0170 	and.w	r1, r1, #112	; 0x70
  402876:	2910      	cmp	r1, #16
  402878:	d003      	beq.n	402882 <SystemCoreClockUpdate+0x6a>
  40287a:	2920      	cmp	r1, #32
  40287c:	d1d6      	bne.n	40282c <SystemCoreClockUpdate+0x14>
  40287e:	4911      	ldr	r1, [pc, #68]	; (4028c4 <SystemCoreClockUpdate+0xac>)
  402880:	e7ed      	b.n	40285e <SystemCoreClockUpdate+0x46>
  402882:	4911      	ldr	r1, [pc, #68]	; (4028c8 <SystemCoreClockUpdate+0xb0>)
  402884:	e7eb      	b.n	40285e <SystemCoreClockUpdate+0x46>
  402886:	490c      	ldr	r1, [pc, #48]	; (4028b8 <SystemCoreClockUpdate+0xa0>)
  402888:	6949      	ldr	r1, [r1, #20]
  40288a:	0609      	lsls	r1, r1, #24
  40288c:	bf4c      	ite	mi
  40288e:	f44f 4100 	movmi.w	r1, #32768	; 0x8000
  402892:	f44f 41fa 	movpl.w	r1, #32000	; 0x7d00
  402896:	6019      	str	r1, [r3, #0]
  402898:	6b11      	ldr	r1, [r2, #48]	; 0x30
  40289a:	f001 0103 	and.w	r1, r1, #3
  40289e:	2902      	cmp	r1, #2
  4028a0:	d1c4      	bne.n	40282c <SystemCoreClockUpdate+0x14>
  4028a2:	6a90      	ldr	r0, [r2, #40]	; 0x28
  4028a4:	6819      	ldr	r1, [r3, #0]
  4028a6:	f3c0 400c 	ubfx	r0, r0, #16, #13
  4028aa:	fb00 1101 	mla	r1, r0, r1, r1
  4028ae:	e7d6      	b.n	40285e <SystemCoreClockUpdate+0x46>
  4028b0:	400e0400 	.word	0x400e0400
  4028b4:	20000094 	.word	0x20000094
  4028b8:	400e1410 	.word	0x400e1410
  4028bc:	00b71b00 	.word	0x00b71b00
  4028c0:	007a1200 	.word	0x007a1200
  4028c4:	016e3600 	.word	0x016e3600
  4028c8:	00f42400 	.word	0x00f42400

004028cc <system_init_flash>:
  4028cc:	4b0e      	ldr	r3, [pc, #56]	; (402908 <system_init_flash+0x3c>)
  4028ce:	4298      	cmp	r0, r3
  4028d0:	4b0e      	ldr	r3, [pc, #56]	; (40290c <system_init_flash+0x40>)
  4028d2:	d803      	bhi.n	4028dc <system_init_flash+0x10>
  4028d4:	f04f 6280 	mov.w	r2, #67108864	; 0x4000000
  4028d8:	601a      	str	r2, [r3, #0]
  4028da:	4770      	bx	lr
  4028dc:	4a0c      	ldr	r2, [pc, #48]	; (402910 <system_init_flash+0x44>)
  4028de:	4290      	cmp	r0, r2
  4028e0:	d801      	bhi.n	4028e6 <system_init_flash+0x1a>
  4028e2:	4a0c      	ldr	r2, [pc, #48]	; (402914 <system_init_flash+0x48>)
  4028e4:	e7f8      	b.n	4028d8 <system_init_flash+0xc>
  4028e6:	4a0c      	ldr	r2, [pc, #48]	; (402918 <system_init_flash+0x4c>)
  4028e8:	4290      	cmp	r0, r2
  4028ea:	d801      	bhi.n	4028f0 <system_init_flash+0x24>
  4028ec:	4a0b      	ldr	r2, [pc, #44]	; (40291c <system_init_flash+0x50>)
  4028ee:	e7f3      	b.n	4028d8 <system_init_flash+0xc>
  4028f0:	4a0b      	ldr	r2, [pc, #44]	; (402920 <system_init_flash+0x54>)
  4028f2:	4290      	cmp	r0, r2
  4028f4:	d801      	bhi.n	4028fa <system_init_flash+0x2e>
  4028f6:	4a0b      	ldr	r2, [pc, #44]	; (402924 <system_init_flash+0x58>)
  4028f8:	e7ee      	b.n	4028d8 <system_init_flash+0xc>
  4028fa:	4a0b      	ldr	r2, [pc, #44]	; (402928 <system_init_flash+0x5c>)
  4028fc:	4290      	cmp	r0, r2
  4028fe:	bf94      	ite	ls
  402900:	f04f 2204 	movls.w	r2, #67109888	; 0x4000400
  402904:	4a09      	ldrhi	r2, [pc, #36]	; (40292c <system_init_flash+0x60>)
  402906:	e7e7      	b.n	4028d8 <system_init_flash+0xc>
  402908:	01312cff 	.word	0x01312cff
  40290c:	400e0a00 	.word	0x400e0a00
  402910:	026259ff 	.word	0x026259ff
  402914:	04000100 	.word	0x04000100
  402918:	039386ff 	.word	0x039386ff
  40291c:	04000200 	.word	0x04000200
  402920:	04c4b3ff 	.word	0x04c4b3ff
  402924:	04000300 	.word	0x04000300
  402928:	05f5e0ff 	.word	0x05f5e0ff
  40292c:	04000500 	.word	0x04000500

00402930 <_sbrk>:
  402930:	4b07      	ldr	r3, [pc, #28]	; (402950 <_sbrk+0x20>)
  402932:	681a      	ldr	r2, [r3, #0]
  402934:	b90a      	cbnz	r2, 40293a <_sbrk+0xa>
  402936:	4a07      	ldr	r2, [pc, #28]	; (402954 <_sbrk+0x24>)
  402938:	601a      	str	r2, [r3, #0]
  40293a:	681a      	ldr	r2, [r3, #0]
  40293c:	4906      	ldr	r1, [pc, #24]	; (402958 <_sbrk+0x28>)
  40293e:	4410      	add	r0, r2
  402940:	4281      	cmp	r1, r0
  402942:	bfa6      	itte	ge
  402944:	6018      	strge	r0, [r3, #0]
  402946:	4610      	movge	r0, r2
  402948:	f04f 30ff 	movlt.w	r0, #4294967295
  40294c:	4770      	bx	lr
  40294e:	bf00      	nop
  402950:	20013830 	.word	0x20013830
  402954:	2001e8c0 	.word	0x2001e8c0
  402958:	20027ffc 	.word	0x20027ffc

0040295c <_close>:
  40295c:	f04f 30ff 	mov.w	r0, #4294967295
  402960:	4770      	bx	lr

00402962 <_fstat>:
  402962:	f44f 5300 	mov.w	r3, #8192	; 0x2000
  402966:	604b      	str	r3, [r1, #4]
  402968:	2000      	movs	r0, #0
  40296a:	4770      	bx	lr

0040296c <_isatty>:
  40296c:	2001      	movs	r0, #1
  40296e:	4770      	bx	lr

00402970 <_lseek>:
  402970:	2000      	movs	r0, #0
  402972:	4770      	bx	lr

00402974 <ext_interrupt_handler>:
  402974:	b410      	push	{r4}
  402976:	4805      	ldr	r0, [pc, #20]	; (40298c <ext_interrupt_handler+0x18>)
  402978:	4c05      	ldr	r4, [pc, #20]	; (402990 <ext_interrupt_handler+0x1c>)
  40297a:	6800      	ldr	r0, [r0, #0]
  40297c:	2300      	movs	r3, #0
  40297e:	46a4      	mov	ip, r4
  402980:	461a      	mov	r2, r3
  402982:	4619      	mov	r1, r3
  402984:	f85d 4b04 	ldr.w	r4, [sp], #4
  402988:	4760      	bx	ip
  40298a:	bf00      	nop
  40298c:	2001b894 	.word	0x2001b894
  402990:	00400dad 	.word	0x00400dad

00402994 <ext_int_initialize>:
  402994:	b573      	push	{r0, r1, r4, r5, r6, lr}
  402996:	4c11      	ldr	r4, [pc, #68]	; (4029dc <ext_int_initialize+0x48>)
  402998:	4b11      	ldr	r3, [pc, #68]	; (4029e0 <ext_int_initialize+0x4c>)
  40299a:	4e12      	ldr	r6, [pc, #72]	; (4029e4 <ext_int_initialize+0x50>)
  40299c:	4605      	mov	r5, r0
  40299e:	200b      	movs	r0, #11
  4029a0:	4798      	blx	r3
  4029a2:	2370      	movs	r3, #112	; 0x70
  4029a4:	f04f 4280 	mov.w	r2, #1073741824	; 0x40000000
  4029a8:	f04f 5120 	mov.w	r1, #671088640	; 0x28000000
  4029ac:	4620      	mov	r0, r4
  4029ae:	47b0      	blx	r6
  4029b0:	9500      	str	r5, [sp, #0]
  4029b2:	2370      	movs	r3, #112	; 0x70
  4029b4:	f04f 4280 	mov.w	r2, #1073741824	; 0x40000000
  4029b8:	210b      	movs	r1, #11
  4029ba:	4620      	mov	r0, r4
  4029bc:	4d0a      	ldr	r5, [pc, #40]	; (4029e8 <ext_int_initialize+0x54>)
  4029be:	47a8      	blx	r5
  4029c0:	4620      	mov	r0, r4
  4029c2:	2200      	movs	r2, #0
  4029c4:	210b      	movs	r1, #11
  4029c6:	4b09      	ldr	r3, [pc, #36]	; (4029ec <ext_int_initialize+0x58>)
  4029c8:	4798      	blx	r3
  4029ca:	4b09      	ldr	r3, [pc, #36]	; (4029f0 <ext_int_initialize+0x5c>)
  4029cc:	f04f 4180 	mov.w	r1, #1073741824	; 0x40000000
  4029d0:	4620      	mov	r0, r4
  4029d2:	b002      	add	sp, #8
  4029d4:	e8bd 4070 	ldmia.w	sp!, {r4, r5, r6, lr}
  4029d8:	4718      	bx	r3
  4029da:	bf00      	nop
  4029dc:	400e0e00 	.word	0x400e0e00
  4029e0:	004026a9 	.word	0x004026a9
  4029e4:	0040029d 	.word	0x0040029d
  4029e8:	0040039d 	.word	0x0040039d
  4029ec:	00400429 	.word	0x00400429
  4029f0:	00400311 	.word	0x00400311

004029f4 <IAM20685_chipunlock>:
  4029f4:	e92d 4ff0 	stmdb	sp!, {r4, r5, r6, r7, r8, r9, sl, fp, lr}
  4029f8:	b089      	sub	sp, #36	; 0x24
  4029fa:	2319      	movs	r3, #25
  4029fc:	4d44      	ldr	r5, [pc, #272]	; (402b10 <IAM20685_chipunlock+0x11c>)
  4029fe:	f88d 300c 	strb.w	r3, [sp, #12]
  402a02:	aa03      	add	r2, sp, #12
  402a04:	2347      	movs	r3, #71	; 0x47
  402a06:	f04f 0932 	mov.w	r9, #50	; 0x32
  402a0a:	2103      	movs	r1, #3
  402a0c:	2000      	movs	r0, #0
  402a0e:	4c41      	ldr	r4, [pc, #260]	; (402b14 <IAM20685_chipunlock+0x120>)
  402a10:	f88d 300e 	strb.w	r3, [sp, #14]
  402a14:	9301      	str	r3, [sp, #4]
  402a16:	f88d 900d 	strb.w	r9, [sp, #13]
  402a1a:	47a8      	blx	r5
  402a1c:	2056      	movs	r0, #86	; 0x56
  402a1e:	47a0      	blx	r4
  402a20:	224c      	movs	r2, #76	; 0x4c
  402a22:	2633      	movs	r6, #51	; 0x33
  402a24:	f04f 0a02 	mov.w	sl, #2
  402a28:	f88d 200e 	strb.w	r2, [sp, #14]
  402a2c:	2103      	movs	r1, #3
  402a2e:	aa03      	add	r2, sp, #12
  402a30:	2000      	movs	r0, #0
  402a32:	f88d a00c 	strb.w	sl, [sp, #12]
  402a36:	f88d 600d 	strb.w	r6, [sp, #13]
  402a3a:	47a8      	blx	r5
  402a3c:	2056      	movs	r0, #86	; 0x56
  402a3e:	47a0      	blx	r4
  402a40:	f04f 0801 	mov.w	r8, #1
  402a44:	f04f 034f 	mov.w	r3, #79	; 0x4f
  402a48:	aa03      	add	r2, sp, #12
  402a4a:	2103      	movs	r1, #3
  402a4c:	2000      	movs	r0, #0
  402a4e:	f88d 300e 	strb.w	r3, [sp, #14]
  402a52:	f88d 800c 	strb.w	r8, [sp, #12]
  402a56:	f88d 600d 	strb.w	r6, [sp, #13]
  402a5a:	47a8      	blx	r5
  402a5c:	2056      	movs	r0, #86	; 0x56
  402a5e:	47a0      	blx	r4
  402a60:	2204      	movs	r2, #4
  402a62:	f88d 200c 	strb.w	r2, [sp, #12]
  402a66:	224a      	movs	r2, #74	; 0x4a
  402a68:	f88d 200e 	strb.w	r2, [sp, #14]
  402a6c:	2103      	movs	r1, #3
  402a6e:	aa03      	add	r2, sp, #12
  402a70:	2000      	movs	r0, #0
  402a72:	f88d 600d 	strb.w	r6, [sp, #13]
  402a76:	47a8      	blx	r5
  402a78:	2056      	movs	r0, #86	; 0x56
  402a7a:	47a0      	blx	r4
  402a7c:	2103      	movs	r1, #3
  402a7e:	224d      	movs	r2, #77	; 0x4d
  402a80:	2700      	movs	r7, #0
  402a82:	4608      	mov	r0, r1
  402a84:	f88d 200e 	strb.w	r2, [sp, #14]
  402a88:	aa03      	add	r2, sp, #12
  402a8a:	f88d 700c 	strb.w	r7, [sp, #12]
  402a8e:	f88d 600d 	strb.w	r6, [sp, #13]
  402a92:	47a8      	blx	r5
  402a94:	2056      	movs	r0, #86	; 0x56
  402a96:	47a0      	blx	r4
  402a98:	f04f 0b80 	mov.w	fp, #128	; 0x80
  402a9c:	9b01      	ldr	r3, [sp, #4]
  402a9e:	f88d 300e 	strb.w	r3, [sp, #14]
  402aa2:	aa03      	add	r2, sp, #12
  402aa4:	2103      	movs	r1, #3
  402aa6:	4640      	mov	r0, r8
  402aa8:	f88d b00c 	strb.w	fp, [sp, #12]
  402aac:	f88d 600d 	strb.w	r6, [sp, #13]
  402ab0:	47a8      	blx	r5
  402ab2:	2056      	movs	r0, #86	; 0x56
  402ab4:	47a0      	blx	r4
  402ab6:	aa03      	add	r2, sp, #12
  402ab8:	f88d b00c 	strb.w	fp, [sp, #12]
  402abc:	2103      	movs	r1, #3
  402abe:	f04f 0b44 	mov.w	fp, #68	; 0x44
  402ac2:	4650      	mov	r0, sl
  402ac4:	f88d 600d 	strb.w	r6, [sp, #13]
  402ac8:	f88d b00e 	strb.w	fp, [sp, #14]
  402acc:	47a8      	blx	r5
  402ace:	2056      	movs	r0, #86	; 0x56
  402ad0:	47a0      	blx	r4
  402ad2:	2392      	movs	r3, #146	; 0x92
  402ad4:	aa03      	add	r2, sp, #12
  402ad6:	2103      	movs	r1, #3
  402ad8:	4638      	mov	r0, r7
  402ada:	f88d 300c 	strb.w	r3, [sp, #12]
  402ade:	f88d 900d 	strb.w	r9, [sp, #13]
  402ae2:	f88d b00e 	strb.w	fp, [sp, #14]
  402ae6:	47a8      	blx	r5
  402ae8:	2056      	movs	r0, #86	; 0x56
  402aea:	47a0      	blx	r4
  402aec:	f04f 034f 	mov.w	r3, #79	; 0x4f
  402af0:	aa03      	add	r2, sp, #12
  402af2:	2103      	movs	r1, #3
  402af4:	4638      	mov	r0, r7
  402af6:	f88d 300e 	strb.w	r3, [sp, #14]
  402afa:	f88d 800c 	strb.w	r8, [sp, #12]
  402afe:	f88d 600d 	strb.w	r6, [sp, #13]
  402b02:	47a8      	blx	r5
  402b04:	2056      	movs	r0, #86	; 0x56
  402b06:	47a0      	blx	r4
  402b08:	b009      	add	sp, #36	; 0x24
  402b0a:	e8bd 8ff0 	ldmia.w	sp!, {r4, r5, r6, r7, r8, r9, sl, fp, pc}
  402b0e:	bf00      	nop
  402b10:	00401ec1 	.word	0x00401ec1
  402b14:	20000001 	.word	0x20000001

00402b18 <IAM20685_writeunlock>:
  402b18:	e92d 47f0 	stmdb	sp!, {r4, r5, r6, r7, r8, r9, sl, lr}
  402b1c:	b086      	sub	sp, #24
  402b1e:	2402      	movs	r4, #2
  402b20:	4f33      	ldr	r7, [pc, #204]	; (402bf0 <IAM20685_writeunlock+0xd8>)
  402b22:	4e34      	ldr	r6, [pc, #208]	; (402bf4 <IAM20685_writeunlock+0xdc>)
  402b24:	4d34      	ldr	r5, [pc, #208]	; (402bf8 <IAM20685_writeunlock+0xe0>)
  402b26:	aa01      	add	r2, sp, #4
  402b28:	2100      	movs	r1, #0
  402b2a:	20e4      	movs	r0, #228	; 0xe4
  402b2c:	47b8      	blx	r7
  402b2e:	2388      	movs	r3, #136	; 0x88
  402b30:	aa01      	add	r2, sp, #4
  402b32:	4621      	mov	r1, r4
  402b34:	2000      	movs	r0, #0
  402b36:	f88d 3005 	strb.w	r3, [sp, #5]
  402b3a:	f88d 4004 	strb.w	r4, [sp, #4]
  402b3e:	47b0      	blx	r6
  402b40:	2056      	movs	r0, #86	; 0x56
  402b42:	47a8      	blx	r5
  402b44:	aa01      	add	r2, sp, #4
  402b46:	2100      	movs	r1, #0
  402b48:	20e4      	movs	r0, #228	; 0xe4
  402b4a:	47b8      	blx	r7
  402b4c:	f04f 0a01 	mov.w	sl, #1
  402b50:	238b      	movs	r3, #139	; 0x8b
  402b52:	aa01      	add	r2, sp, #4
  402b54:	4621      	mov	r1, r4
  402b56:	2000      	movs	r0, #0
  402b58:	f88d 3005 	strb.w	r3, [sp, #5]
  402b5c:	f88d a004 	strb.w	sl, [sp, #4]
  402b60:	47b0      	blx	r6
  402b62:	2056      	movs	r0, #86	; 0x56
  402b64:	47a8      	blx	r5
  402b66:	aa01      	add	r2, sp, #4
  402b68:	2100      	movs	r1, #0
  402b6a:	20e4      	movs	r0, #228	; 0xe4
  402b6c:	47b8      	blx	r7
  402b6e:	2304      	movs	r3, #4
  402b70:	aa01      	add	r2, sp, #4
  402b72:	4621      	mov	r1, r4
  402b74:	f88d 3004 	strb.w	r3, [sp, #4]
  402b78:	2000      	movs	r0, #0
  402b7a:	238e      	movs	r3, #142	; 0x8e
  402b7c:	f88d 3005 	strb.w	r3, [sp, #5]
  402b80:	47b0      	blx	r6
  402b82:	2056      	movs	r0, #86	; 0x56
  402b84:	47a8      	blx	r5
  402b86:	aa01      	add	r2, sp, #4
  402b88:	2100      	movs	r1, #0
  402b8a:	20e4      	movs	r0, #228	; 0xe4
  402b8c:	47b8      	blx	r7
  402b8e:	f04f 0800 	mov.w	r8, #0
  402b92:	23ad      	movs	r3, #173	; 0xad
  402b94:	aa01      	add	r2, sp, #4
  402b96:	4621      	mov	r1, r4
  402b98:	2003      	movs	r0, #3
  402b9a:	f88d 3005 	strb.w	r3, [sp, #5]
  402b9e:	f88d 8004 	strb.w	r8, [sp, #4]
  402ba2:	47b0      	blx	r6
  402ba4:	2056      	movs	r0, #86	; 0x56
  402ba6:	47a8      	blx	r5
  402ba8:	aa01      	add	r2, sp, #4
  402baa:	4641      	mov	r1, r8
  402bac:	20e4      	movs	r0, #228	; 0xe4
  402bae:	47b8      	blx	r7
  402bb0:	f04f 0980 	mov.w	r9, #128	; 0x80
  402bb4:	2317      	movs	r3, #23
  402bb6:	aa01      	add	r2, sp, #4
  402bb8:	4621      	mov	r1, r4
  402bba:	4650      	mov	r0, sl
  402bbc:	f88d 3005 	strb.w	r3, [sp, #5]
  402bc0:	f88d 9004 	strb.w	r9, [sp, #4]
  402bc4:	47b0      	blx	r6
  402bc6:	2056      	movs	r0, #86	; 0x56
  402bc8:	47a8      	blx	r5
  402bca:	aa01      	add	r2, sp, #4
  402bcc:	4641      	mov	r1, r8
  402bce:	20e4      	movs	r0, #228	; 0xe4
  402bd0:	47b8      	blx	r7
  402bd2:	2330      	movs	r3, #48	; 0x30
  402bd4:	aa01      	add	r2, sp, #4
  402bd6:	4621      	mov	r1, r4
  402bd8:	4620      	mov	r0, r4
  402bda:	f88d 3005 	strb.w	r3, [sp, #5]
  402bde:	f88d 9004 	strb.w	r9, [sp, #4]
  402be2:	47b0      	blx	r6
  402be4:	2056      	movs	r0, #86	; 0x56
  402be6:	47a8      	blx	r5
  402be8:	b006      	add	sp, #24
  402bea:	e8bd 87f0 	ldmia.w	sp!, {r4, r5, r6, r7, r8, r9, sl, pc}
  402bee:	bf00      	nop
  402bf0:	00401f31 	.word	0x00401f31
  402bf4:	00401ec1 	.word	0x00401ec1
  402bf8:	20000001 	.word	0x20000001

00402bfc <IAM20685>:
  402bfc:	e92d 4ff0 	stmdb	sp!, {r4, r5, r6, r7, r8, r9, sl, fp, lr}
  402c00:	4bc0      	ldr	r3, [pc, #768]	; (402f04 <IAM20685+0x308>)
  402c02:	48c1      	ldr	r0, [pc, #772]	; (402f08 <IAM20685+0x30c>)
  402c04:	4ec1      	ldr	r6, [pc, #772]	; (402f0c <IAM20685+0x310>)
  402c06:	4dc2      	ldr	r5, [pc, #776]	; (402f10 <IAM20685+0x314>)
  402c08:	4fc2      	ldr	r7, [pc, #776]	; (402f14 <IAM20685+0x318>)
  402c0a:	f04f 5200 	mov.w	r2, #536870912	; 0x20000000
  402c0e:	b091      	sub	sp, #68	; 0x44
  402c10:	611a      	str	r2, [r3, #16]
  402c12:	f8c3 20a0 	str.w	r2, [r3, #160]	; 0xa0
  402c16:	631a      	str	r2, [r3, #48]	; 0x30
  402c18:	4bbf      	ldr	r3, [pc, #764]	; (402f18 <IAM20685+0x31c>)
  402c1a:	4798      	blx	r3
  402c1c:	4bbf      	ldr	r3, [pc, #764]	; (402f1c <IAM20685+0x320>)
  402c1e:	4798      	blx	r3
  402c20:	4bbf      	ldr	r3, [pc, #764]	; (402f20 <IAM20685+0x324>)
  402c22:	2400      	movs	r4, #0
  402c24:	4798      	blx	r3
  402c26:	23f3      	movs	r3, #243	; 0xf3
  402c28:	aa0b      	add	r2, sp, #44	; 0x2c
  402c2a:	2103      	movs	r1, #3
  402c2c:	202c      	movs	r0, #44	; 0x2c
  402c2e:	f88d 302e 	strb.w	r3, [sp, #46]	; 0x2e
  402c32:	f88d 402c 	strb.w	r4, [sp, #44]	; 0x2c
  402c36:	f88d 402d 	strb.w	r4, [sp, #45]	; 0x2d
  402c3a:	47b0      	blx	r6
  402c3c:	2056      	movs	r0, #86	; 0x56
  402c3e:	47a8      	blx	r5
  402c40:	aa0b      	add	r2, sp, #44	; 0x2c
  402c42:	2102      	movs	r1, #2
  402c44:	202c      	movs	r0, #44	; 0x2c
  402c46:	47b8      	blx	r7
  402c48:	2056      	movs	r0, #86	; 0x56
  402c4a:	47a8      	blx	r5
  402c4c:	f8bd 102c 	ldrh.w	r1, [sp, #44]	; 0x2c
  402c50:	4bb4      	ldr	r3, [pc, #720]	; (402f24 <IAM20685+0x328>)
  402c52:	48b5      	ldr	r0, [pc, #724]	; (402f28 <IAM20685+0x32c>)
  402c54:	ba49      	rev16	r1, r1
  402c56:	b289      	uxth	r1, r1
  402c58:	4798      	blx	r3
  402c5a:	4bb4      	ldr	r3, [pc, #720]	; (402f2c <IAM20685+0x330>)
  402c5c:	4798      	blx	r3
  402c5e:	aa0b      	add	r2, sp, #44	; 0x2c
  402c60:	4621      	mov	r1, r4
  402c62:	20b0      	movs	r0, #176	; 0xb0
  402c64:	47b8      	blx	r7
  402c66:	23f9      	movs	r3, #249	; 0xf9
  402c68:	aa0b      	add	r2, sp, #44	; 0x2c
  402c6a:	2102      	movs	r1, #2
  402c6c:	4620      	mov	r0, r4
  402c6e:	f88d 302d 	strb.w	r3, [sp, #45]	; 0x2d
  402c72:	f88d 402c 	strb.w	r4, [sp, #44]	; 0x2c
  402c76:	47b0      	blx	r6
  402c78:	2056      	movs	r0, #86	; 0x56
  402c7a:	47a8      	blx	r5
  402c7c:	aa0b      	add	r2, sp, #44	; 0x2c
  402c7e:	4621      	mov	r1, r4
  402c80:	20b8      	movs	r0, #184	; 0xb8
  402c82:	47b8      	blx	r7
  402c84:	23a3      	movs	r3, #163	; 0xa3
  402c86:	aa0b      	add	r2, sp, #44	; 0x2c
  402c88:	2102      	movs	r1, #2
  402c8a:	4620      	mov	r0, r4
  402c8c:	f88d 302d 	strb.w	r3, [sp, #45]	; 0x2d
  402c90:	f88d 402c 	strb.w	r4, [sp, #44]	; 0x2c
  402c94:	47b0      	blx	r6
  402c96:	2056      	movs	r0, #86	; 0x56
  402c98:	47a8      	blx	r5
  402c9a:	aa0b      	add	r2, sp, #44	; 0x2c
  402c9c:	4621      	mov	r1, r4
  402c9e:	20fc      	movs	r0, #252	; 0xfc
  402ca0:	47b8      	blx	r7
  402ca2:	2306      	movs	r3, #6
  402ca4:	aa0b      	add	r2, sp, #44	; 0x2c
  402ca6:	2102      	movs	r1, #2
  402ca8:	f88d 302c 	strb.w	r3, [sp, #44]	; 0x2c
  402cac:	4620      	mov	r0, r4
  402cae:	2362      	movs	r3, #98	; 0x62
  402cb0:	f88d 302d 	strb.w	r3, [sp, #45]	; 0x2d
  402cb4:	47b0      	blx	r6
  402cb6:	2056      	movs	r0, #86	; 0x56
  402cb8:	47a8      	blx	r5
  402cba:	aa0b      	add	r2, sp, #44	; 0x2c
  402cbc:	4621      	mov	r1, r4
  402cbe:	20d0      	movs	r0, #208	; 0xd0
  402cc0:	47b8      	blx	r7
  402cc2:	f04f 0807 	mov.w	r8, #7
  402cc6:	2361      	movs	r3, #97	; 0x61
  402cc8:	aa0b      	add	r2, sp, #44	; 0x2c
  402cca:	2102      	movs	r1, #2
  402ccc:	4620      	mov	r0, r4
  402cce:	f88d 302d 	strb.w	r3, [sp, #45]	; 0x2d
  402cd2:	f88d 802c 	strb.w	r8, [sp, #44]	; 0x2c
  402cd6:	47b0      	blx	r6
  402cd8:	2056      	movs	r0, #86	; 0x56
  402cda:	47a8      	blx	r5
  402cdc:	aa0b      	add	r2, sp, #44	; 0x2c
  402cde:	4621      	mov	r1, r4
  402ce0:	20fc      	movs	r0, #252	; 0xfc
  402ce2:	47b8      	blx	r7
  402ce4:	2363      	movs	r3, #99	; 0x63
  402ce6:	aa0b      	add	r2, sp, #44	; 0x2c
  402ce8:	2102      	movs	r1, #2
  402cea:	4620      	mov	r0, r4
  402cec:	f88d 302d 	strb.w	r3, [sp, #45]	; 0x2d
  402cf0:	f88d 802c 	strb.w	r8, [sp, #44]	; 0x2c
  402cf4:	47b0      	blx	r6
  402cf6:	2056      	movs	r0, #86	; 0x56
  402cf8:	47a8      	blx	r5
  402cfa:	f04f 0802 	mov.w	r8, #2
  402cfe:	aa0b      	add	r2, sp, #44	; 0x2c
  402d00:	4621      	mov	r1, r4
  402d02:	20d0      	movs	r0, #208	; 0xd0
  402d04:	47b8      	blx	r7
  402d06:	f04f 0964 	mov.w	r9, #100	; 0x64
  402d0a:	aa0b      	add	r2, sp, #44	; 0x2c
  402d0c:	4641      	mov	r1, r8
  402d0e:	4620      	mov	r0, r4
  402d10:	f88d 802c 	strb.w	r8, [sp, #44]	; 0x2c
  402d14:	f88d 902d 	strb.w	r9, [sp, #45]	; 0x2d
  402d18:	47b0      	blx	r6
  402d1a:	2056      	movs	r0, #86	; 0x56
  402d1c:	47a8      	blx	r5
  402d1e:	aa0b      	add	r2, sp, #44	; 0x2c
  402d20:	4621      	mov	r1, r4
  402d22:	20fc      	movs	r0, #252	; 0xfc
  402d24:	47b8      	blx	r7
  402d26:	4620      	mov	r0, r4
  402d28:	aa0b      	add	r2, sp, #44	; 0x2c
  402d2a:	4641      	mov	r1, r8
  402d2c:	f88d 402c 	strb.w	r4, [sp, #44]	; 0x2c
  402d30:	f88d 902d 	strb.w	r9, [sp, #45]	; 0x2d
  402d34:	47b0      	blx	r6
  402d36:	2056      	movs	r0, #86	; 0x56
  402d38:	47a8      	blx	r5
  402d3a:	2400      	movs	r4, #0
  402d3c:	4d74      	ldr	r5, [pc, #464]	; (402f10 <IAM20685+0x314>)
  402d3e:	4f73      	ldr	r7, [pc, #460]	; (402f0c <IAM20685+0x310>)
  402d40:	4e74      	ldr	r6, [pc, #464]	; (402f14 <IAM20685+0x318>)
  402d42:	2056      	movs	r0, #86	; 0x56
  402d44:	47a8      	blx	r5
  402d46:	23f1      	movs	r3, #241	; 0xf1
  402d48:	aa0b      	add	r2, sp, #44	; 0x2c
  402d4a:	2103      	movs	r1, #3
  402d4c:	4620      	mov	r0, r4
  402d4e:	f88d 302e 	strb.w	r3, [sp, #46]	; 0x2e
  402d52:	f88d 402c 	strb.w	r4, [sp, #44]	; 0x2c
  402d56:	f88d 402d 	strb.w	r4, [sp, #45]	; 0x2d
  402d5a:	47b8      	blx	r7
  402d5c:	202b      	movs	r0, #43	; 0x2b
  402d5e:	47a8      	blx	r5
  402d60:	aa0b      	add	r2, sp, #44	; 0x2c
  402d62:	2102      	movs	r1, #2
  402d64:	4620      	mov	r0, r4
  402d66:	47b0      	blx	r6
  402d68:	f89d 302c 	ldrb.w	r3, [sp, #44]	; 0x2c
  402d6c:	f89d a02d 	ldrb.w	sl, [sp, #45]	; 0x2d
  402d70:	ea4a 2a03 	orr.w	sl, sl, r3, lsl #8
  402d74:	fa0f f38a 	sxth.w	r3, sl
  402d78:	202b      	movs	r0, #43	; 0x2b
  402d7a:	9307      	str	r3, [sp, #28]
  402d7c:	47a8      	blx	r5
  402d7e:	23dc      	movs	r3, #220	; 0xdc
  402d80:	aa0b      	add	r2, sp, #44	; 0x2c
  402d82:	2103      	movs	r1, #3
  402d84:	2004      	movs	r0, #4
  402d86:	f88d 302e 	strb.w	r3, [sp, #46]	; 0x2e
  402d8a:	f88d 402c 	strb.w	r4, [sp, #44]	; 0x2c
  402d8e:	f88d 402d 	strb.w	r4, [sp, #45]	; 0x2d
  402d92:	47b8      	blx	r7
  402d94:	202b      	movs	r0, #43	; 0x2b
  402d96:	47a8      	blx	r5
  402d98:	aa0b      	add	r2, sp, #44	; 0x2c
  402d9a:	2102      	movs	r1, #2
  402d9c:	2004      	movs	r0, #4
  402d9e:	47b0      	blx	r6
  402da0:	f89d 302c 	ldrb.w	r3, [sp, #44]	; 0x2c
  402da4:	f89d b02d 	ldrb.w	fp, [sp, #45]	; 0x2d
  402da8:	202b      	movs	r0, #43	; 0x2b
  402daa:	ea4b 2b03 	orr.w	fp, fp, r3, lsl #8
  402dae:	47a8      	blx	r5
  402db0:	23ab      	movs	r3, #171	; 0xab
  402db2:	aa0b      	add	r2, sp, #44	; 0x2c
  402db4:	2103      	movs	r1, #3
  402db6:	2008      	movs	r0, #8
  402db8:	f88d 302e 	strb.w	r3, [sp, #46]	; 0x2e
  402dbc:	f88d 402c 	strb.w	r4, [sp, #44]	; 0x2c
  402dc0:	f88d 402d 	strb.w	r4, [sp, #45]	; 0x2d
  402dc4:	47b8      	blx	r7
  402dc6:	202b      	movs	r0, #43	; 0x2b
  402dc8:	47a8      	blx	r5
  402dca:	aa0b      	add	r2, sp, #44	; 0x2c
  402dcc:	2102      	movs	r1, #2
  402dce:	2008      	movs	r0, #8
  402dd0:	47b0      	blx	r6
  402dd2:	f89d 202c 	ldrb.w	r2, [sp, #44]	; 0x2c
  402dd6:	f89d 302d 	ldrb.w	r3, [sp, #45]	; 0x2d
  402dda:	ea43 2302 	orr.w	r3, r3, r2, lsl #8
  402dde:	b21b      	sxth	r3, r3
  402de0:	202b      	movs	r0, #43	; 0x2b
  402de2:	9308      	str	r3, [sp, #32]
  402de4:	47a8      	blx	r5
  402de6:	2386      	movs	r3, #134	; 0x86
  402de8:	aa0b      	add	r2, sp, #44	; 0x2c
  402dea:	2103      	movs	r1, #3
  402dec:	200c      	movs	r0, #12
  402dee:	f88d 302e 	strb.w	r3, [sp, #46]	; 0x2e
  402df2:	f88d 402c 	strb.w	r4, [sp, #44]	; 0x2c
  402df6:	f88d 402d 	strb.w	r4, [sp, #45]	; 0x2d
  402dfa:	47b8      	blx	r7
  402dfc:	202b      	movs	r0, #43	; 0x2b
  402dfe:	47a8      	blx	r5
  402e00:	aa0b      	add	r2, sp, #44	; 0x2c
  402e02:	2102      	movs	r1, #2
  402e04:	200c      	movs	r0, #12
  402e06:	47b0      	blx	r6
  402e08:	f89d 302c 	ldrb.w	r3, [sp, #44]	; 0x2c
  402e0c:	f89d 802d 	ldrb.w	r8, [sp, #45]	; 0x2d
  402e10:	202b      	movs	r0, #43	; 0x2b
  402e12:	ea48 2803 	orr.w	r8, r8, r3, lsl #8
  402e16:	47a8      	blx	r5
  402e18:	2345      	movs	r3, #69	; 0x45
  402e1a:	aa0b      	add	r2, sp, #44	; 0x2c
  402e1c:	2103      	movs	r1, #3
  402e1e:	2010      	movs	r0, #16
  402e20:	f88d 302e 	strb.w	r3, [sp, #46]	; 0x2e
  402e24:	f88d 402c 	strb.w	r4, [sp, #44]	; 0x2c
  402e28:	f88d 402d 	strb.w	r4, [sp, #45]	; 0x2d
  402e2c:	47b8      	blx	r7
  402e2e:	202b      	movs	r0, #43	; 0x2b
  402e30:	47a8      	blx	r5
  402e32:	aa0b      	add	r2, sp, #44	; 0x2c
  402e34:	2102      	movs	r1, #2
  402e36:	2010      	movs	r0, #16
  402e38:	47b0      	blx	r6
  402e3a:	f89d 202c 	ldrb.w	r2, [sp, #44]	; 0x2c
  402e3e:	f89d 302d 	ldrb.w	r3, [sp, #45]	; 0x2d
  402e42:	202b      	movs	r0, #43	; 0x2b
  402e44:	ea43 2302 	orr.w	r3, r3, r2, lsl #8
  402e48:	fa0f fa83 	sxth.w	sl, r3
  402e4c:	47a8      	blx	r5
  402e4e:	2368      	movs	r3, #104	; 0x68
  402e50:	aa0b      	add	r2, sp, #44	; 0x2c
  402e52:	2103      	movs	r1, #3
  402e54:	2014      	movs	r0, #20
  402e56:	f88d 302e 	strb.w	r3, [sp, #46]	; 0x2e
  402e5a:	f88d 402c 	strb.w	r4, [sp, #44]	; 0x2c
  402e5e:	f88d 402d 	strb.w	r4, [sp, #45]	; 0x2d
  402e62:	47b8      	blx	r7
  402e64:	202b      	movs	r0, #43	; 0x2b
  402e66:	47a8      	blx	r5
  402e68:	aa0b      	add	r2, sp, #44	; 0x2c
  402e6a:	2102      	movs	r1, #2
  402e6c:	2014      	movs	r0, #20
  402e6e:	47b0      	blx	r6
  402e70:	f89d 202c 	ldrb.w	r2, [sp, #44]	; 0x2c
  402e74:	f89d 302d 	ldrb.w	r3, [sp, #45]	; 0x2d
  402e78:	ea43 2302 	orr.w	r3, r3, r2, lsl #8
  402e7c:	b21b      	sxth	r3, r3
  402e7e:	202b      	movs	r0, #43	; 0x2b
  402e80:	9309      	str	r3, [sp, #36]	; 0x24
  402e82:	47a8      	blx	r5
  402e84:	221f      	movs	r2, #31
  402e86:	f88d 202e 	strb.w	r2, [sp, #46]	; 0x2e
  402e8a:	2103      	movs	r1, #3
  402e8c:	aa0b      	add	r2, sp, #44	; 0x2c
  402e8e:	2018      	movs	r0, #24
  402e90:	f88d 402c 	strb.w	r4, [sp, #44]	; 0x2c
  402e94:	f88d 402d 	strb.w	r4, [sp, #45]	; 0x2d
  402e98:	47b8      	blx	r7
  402e9a:	202b      	movs	r0, #43	; 0x2b
  402e9c:	47a8      	blx	r5
  402e9e:	aa0b      	add	r2, sp, #44	; 0x2c
  402ea0:	2102      	movs	r1, #2
  402ea2:	2018      	movs	r0, #24
  402ea4:	47b0      	blx	r6
  402ea6:	f89d 202c 	ldrb.w	r2, [sp, #44]	; 0x2c
  402eaa:	f89d 902d 	ldrb.w	r9, [sp, #45]	; 0x2d
  402eae:	202b      	movs	r0, #43	; 0x2b
  402eb0:	ea49 2902 	orr.w	r9, r9, r2, lsl #8
  402eb4:	47a8      	blx	r5
  402eb6:	2232      	movs	r2, #50	; 0x32
  402eb8:	f88d 202e 	strb.w	r2, [sp, #46]	; 0x2e
  402ebc:	2103      	movs	r1, #3
  402ebe:	aa0b      	add	r2, sp, #44	; 0x2c
  402ec0:	201c      	movs	r0, #28
  402ec2:	f88d 402c 	strb.w	r4, [sp, #44]	; 0x2c
  402ec6:	f88d 402d 	strb.w	r4, [sp, #45]	; 0x2d
  402eca:	47b8      	blx	r7
  402ecc:	202b      	movs	r0, #43	; 0x2b
  402ece:	47a8      	blx	r5
  402ed0:	aa0b      	add	r2, sp, #44	; 0x2c
  402ed2:	2102      	movs	r1, #2
  402ed4:	201c      	movs	r0, #28
  402ed6:	47b0      	blx	r6
  402ed8:	f89d 202c 	ldrb.w	r2, [sp, #44]	; 0x2c
  402edc:	f89d 402d 	ldrb.w	r4, [sp, #45]	; 0x2d
  402ee0:	202b      	movs	r0, #43	; 0x2b
  402ee2:	ea44 2402 	orr.w	r4, r4, r2, lsl #8
  402ee6:	47a8      	blx	r5
  402ee8:	9b08      	ldr	r3, [sp, #32]
  402eea:	9304      	str	r3, [sp, #16]
  402eec:	9b07      	ldr	r3, [sp, #28]
  402eee:	9302      	str	r3, [sp, #8]
  402ef0:	fa0f fb8b 	sxth.w	fp, fp
  402ef4:	9b09      	ldr	r3, [sp, #36]	; 0x24
  402ef6:	9300      	str	r3, [sp, #0]
  402ef8:	fa0f f888 	sxth.w	r8, r8
  402efc:	fa0f f989 	sxth.w	r9, r9
  402f00:	e016      	b.n	402f30 <IAM20685+0x334>
  402f02:	bf00      	nop
  402f04:	400e0e00 	.word	0x400e0e00
  402f08:	00402975 	.word	0x00402975
  402f0c:	00401ec1 	.word	0x00401ec1
  402f10:	20000001 	.word	0x20000001
  402f14:	00401f31 	.word	0x00401f31
  402f18:	00402995 	.word	0x00402995
  402f1c:	00401e19 	.word	0x00401e19
  402f20:	004029f5 	.word	0x004029f5
  402f24:	00403b5d 	.word	0x00403b5d
  402f28:	00406aa8 	.word	0x00406aa8
  402f2c:	00402b19 	.word	0x00402b19
  402f30:	b224      	sxth	r4, r4
  402f32:	4622      	mov	r2, r4
  402f34:	f8cd b00c 	str.w	fp, [sp, #12]
  402f38:	f8cd 9004 	str.w	r9, [sp, #4]
  402f3c:	4653      	mov	r3, sl
  402f3e:	4641      	mov	r1, r8
  402f40:	4c01      	ldr	r4, [pc, #4]	; (402f48 <IAM20685+0x34c>)
  402f42:	4802      	ldr	r0, [pc, #8]	; (402f4c <IAM20685+0x350>)
  402f44:	47a0      	blx	r4
  402f46:	e6f8      	b.n	402d3a <IAM20685+0x13e>
  402f48:	00403b5d 	.word	0x00403b5d
  402f4c:	00406ad0 	.word	0x00406ad0

00402f50 <IAM20685_McLaren_seq1>:
  402f50:	e92d 4ff0 	stmdb	sp!, {r4, r5, r6, r7, r8, r9, sl, fp, lr}
  402f54:	4bbc      	ldr	r3, [pc, #752]	; (403248 <IAM20685_McLaren_seq1+0x2f8>)
  402f56:	48bd      	ldr	r0, [pc, #756]	; (40324c <IAM20685_McLaren_seq1+0x2fc>)
  402f58:	f8df 8314 	ldr.w	r8, [pc, #788]	; 403270 <IAM20685_McLaren_seq1+0x320>
  402f5c:	4fbc      	ldr	r7, [pc, #752]	; (403250 <IAM20685_McLaren_seq1+0x300>)
  402f5e:	4dbd      	ldr	r5, [pc, #756]	; (403254 <IAM20685_McLaren_seq1+0x304>)
  402f60:	f04f 5200 	mov.w	r2, #536870912	; 0x20000000
  402f64:	b091      	sub	sp, #68	; 0x44
  402f66:	611a      	str	r2, [r3, #16]
  402f68:	f8c3 20a0 	str.w	r2, [r3, #160]	; 0xa0
  402f6c:	631a      	str	r2, [r3, #48]	; 0x30
  402f6e:	4bba      	ldr	r3, [pc, #744]	; (403258 <IAM20685_McLaren_seq1+0x308>)
  402f70:	4798      	blx	r3
  402f72:	4bba      	ldr	r3, [pc, #744]	; (40325c <IAM20685_McLaren_seq1+0x30c>)
  402f74:	4798      	blx	r3
  402f76:	4bba      	ldr	r3, [pc, #744]	; (403260 <IAM20685_McLaren_seq1+0x310>)
  402f78:	2400      	movs	r4, #0
  402f7a:	4798      	blx	r3
  402f7c:	aa0b      	add	r2, sp, #44	; 0x2c
  402f7e:	2100      	movs	r1, #0
  402f80:	20fc      	movs	r0, #252	; 0xfc
  402f82:	47c0      	blx	r8
  402f84:	2364      	movs	r3, #100	; 0x64
  402f86:	aa0b      	add	r2, sp, #44	; 0x2c
  402f88:	2102      	movs	r1, #2
  402f8a:	4620      	mov	r0, r4
  402f8c:	f88d 302d 	strb.w	r3, [sp, #45]	; 0x2d
  402f90:	f88d 402c 	strb.w	r4, [sp, #44]	; 0x2c
  402f94:	47b8      	blx	r7
  402f96:	2056      	movs	r0, #86	; 0x56
  402f98:	47a8      	blx	r5
  402f9a:	23f3      	movs	r3, #243	; 0xf3
  402f9c:	aa0b      	add	r2, sp, #44	; 0x2c
  402f9e:	2103      	movs	r1, #3
  402fa0:	202c      	movs	r0, #44	; 0x2c
  402fa2:	f88d 302e 	strb.w	r3, [sp, #46]	; 0x2e
  402fa6:	f88d 402c 	strb.w	r4, [sp, #44]	; 0x2c
  402faa:	f88d 402d 	strb.w	r4, [sp, #45]	; 0x2d
  402fae:	47b8      	blx	r7
  402fb0:	2056      	movs	r0, #86	; 0x56
  402fb2:	47a8      	blx	r5
  402fb4:	aa0b      	add	r2, sp, #44	; 0x2c
  402fb6:	2102      	movs	r1, #2
  402fb8:	202c      	movs	r0, #44	; 0x2c
  402fba:	47c0      	blx	r8
  402fbc:	2056      	movs	r0, #86	; 0x56
  402fbe:	47a8      	blx	r5
  402fc0:	f8bd 102c 	ldrh.w	r1, [sp, #44]	; 0x2c
  402fc4:	4ba7      	ldr	r3, [pc, #668]	; (403264 <IAM20685_McLaren_seq1+0x314>)
  402fc6:	48a8      	ldr	r0, [pc, #672]	; (403268 <IAM20685_McLaren_seq1+0x318>)
  402fc8:	ba49      	rev16	r1, r1
  402fca:	b289      	uxth	r1, r1
  402fcc:	4798      	blx	r3
  402fce:	4ba7      	ldr	r3, [pc, #668]	; (40326c <IAM20685_McLaren_seq1+0x31c>)
  402fd0:	4798      	blx	r3
  402fd2:	aa0b      	add	r2, sp, #44	; 0x2c
  402fd4:	4621      	mov	r1, r4
  402fd6:	2044      	movs	r0, #68	; 0x44
  402fd8:	47c0      	blx	r8
  402fda:	2336      	movs	r3, #54	; 0x36
  402fdc:	aa0b      	add	r2, sp, #44	; 0x2c
  402fde:	2102      	movs	r1, #2
  402fe0:	4620      	mov	r0, r4
  402fe2:	f88d 302d 	strb.w	r3, [sp, #45]	; 0x2d
  402fe6:	f88d 402c 	strb.w	r4, [sp, #44]	; 0x2c
  402fea:	47b8      	blx	r7
  402fec:	2056      	movs	r0, #86	; 0x56
  402fee:	2602      	movs	r6, #2
  402ff0:	47a8      	blx	r5
  402ff2:	aa0b      	add	r2, sp, #44	; 0x2c
  402ff4:	4621      	mov	r1, r4
  402ff6:	20e4      	movs	r0, #228	; 0xe4
  402ff8:	47c0      	blx	r8
  402ffa:	f04f 0b88 	mov.w	fp, #136	; 0x88
  402ffe:	aa0b      	add	r2, sp, #44	; 0x2c
  403000:	4631      	mov	r1, r6
  403002:	4620      	mov	r0, r4
  403004:	f88d 602c 	strb.w	r6, [sp, #44]	; 0x2c
  403008:	f88d b02d 	strb.w	fp, [sp, #45]	; 0x2d
  40300c:	47b8      	blx	r7
  40300e:	2056      	movs	r0, #86	; 0x56
  403010:	47a8      	blx	r5
  403012:	aa0b      	add	r2, sp, #44	; 0x2c
  403014:	4621      	mov	r1, r4
  403016:	20e4      	movs	r0, #228	; 0xe4
  403018:	47c0      	blx	r8
  40301a:	f04f 0a01 	mov.w	sl, #1
  40301e:	f04f 098b 	mov.w	r9, #139	; 0x8b
  403022:	aa0b      	add	r2, sp, #44	; 0x2c
  403024:	4631      	mov	r1, r6
  403026:	4620      	mov	r0, r4
  403028:	f88d a02c 	strb.w	sl, [sp, #44]	; 0x2c
  40302c:	f88d 902d 	strb.w	r9, [sp, #45]	; 0x2d
  403030:	47b8      	blx	r7
  403032:	2056      	movs	r0, #86	; 0x56
  403034:	47a8      	blx	r5
  403036:	aa0b      	add	r2, sp, #44	; 0x2c
  403038:	4621      	mov	r1, r4
  40303a:	20e4      	movs	r0, #228	; 0xe4
  40303c:	47c0      	blx	r8
  40303e:	f04f 0304 	mov.w	r3, #4
  403042:	aa0b      	add	r2, sp, #44	; 0x2c
  403044:	4631      	mov	r1, r6
  403046:	f88d 302c 	strb.w	r3, [sp, #44]	; 0x2c
  40304a:	4620      	mov	r0, r4
  40304c:	f06f 0371 	mvn.w	r3, #113	; 0x71
  403050:	f88d 302d 	strb.w	r3, [sp, #45]	; 0x2d
  403054:	47b8      	blx	r7
  403056:	2056      	movs	r0, #86	; 0x56
  403058:	47a8      	blx	r5
  40305a:	aa0b      	add	r2, sp, #44	; 0x2c
  40305c:	4621      	mov	r1, r4
  40305e:	20fc      	movs	r0, #252	; 0xfc
  403060:	47c0      	blx	r8
  403062:	f04f 0307 	mov.w	r3, #7
  403066:	aa0b      	add	r2, sp, #44	; 0x2c
  403068:	4631      	mov	r1, r6
  40306a:	f88d 302c 	strb.w	r3, [sp, #44]	; 0x2c
  40306e:	4620      	mov	r0, r4
  403070:	2363      	movs	r3, #99	; 0x63
  403072:	f88d 302d 	strb.w	r3, [sp, #45]	; 0x2d
  403076:	9307      	str	r3, [sp, #28]
  403078:	47b8      	blx	r7
  40307a:	2056      	movs	r0, #86	; 0x56
  40307c:	47a8      	blx	r5
  40307e:	aa0b      	add	r2, sp, #44	; 0x2c
  403080:	4621      	mov	r1, r4
  403082:	20d0      	movs	r0, #208	; 0xd0
  403084:	47c0      	blx	r8
  403086:	2266      	movs	r2, #102	; 0x66
  403088:	4631      	mov	r1, r6
  40308a:	f88d 202d 	strb.w	r2, [sp, #45]	; 0x2d
  40308e:	4620      	mov	r0, r4
  403090:	aa0b      	add	r2, sp, #44	; 0x2c
  403092:	f88d 402c 	strb.w	r4, [sp, #44]	; 0x2c
  403096:	47b8      	blx	r7
  403098:	2056      	movs	r0, #86	; 0x56
  40309a:	47a8      	blx	r5
  40309c:	aa0b      	add	r2, sp, #44	; 0x2c
  40309e:	4621      	mov	r1, r4
  4030a0:	20e4      	movs	r0, #228	; 0xe4
  4030a2:	47c0      	blx	r8
  4030a4:	aa0b      	add	r2, sp, #44	; 0x2c
  4030a6:	4631      	mov	r1, r6
  4030a8:	4620      	mov	r0, r4
  4030aa:	f88d 602c 	strb.w	r6, [sp, #44]	; 0x2c
  4030ae:	f88d b02d 	strb.w	fp, [sp, #45]	; 0x2d
  4030b2:	47b8      	blx	r7
  4030b4:	2056      	movs	r0, #86	; 0x56
  4030b6:	47a8      	blx	r5
  4030b8:	aa0b      	add	r2, sp, #44	; 0x2c
  4030ba:	4621      	mov	r1, r4
  4030bc:	20e4      	movs	r0, #228	; 0xe4
  4030be:	47c0      	blx	r8
  4030c0:	aa0b      	add	r2, sp, #44	; 0x2c
  4030c2:	4631      	mov	r1, r6
  4030c4:	4620      	mov	r0, r4
  4030c6:	f88d a02c 	strb.w	sl, [sp, #44]	; 0x2c
  4030ca:	f88d 902d 	strb.w	r9, [sp, #45]	; 0x2d
  4030ce:	47b8      	blx	r7
  4030d0:	2056      	movs	r0, #86	; 0x56
  4030d2:	47a8      	blx	r5
  4030d4:	aa0b      	add	r2, sp, #44	; 0x2c
  4030d6:	4621      	mov	r1, r4
  4030d8:	20e4      	movs	r0, #228	; 0xe4
  4030da:	47c0      	blx	r8
  4030dc:	f04f 0304 	mov.w	r3, #4
  4030e0:	aa0b      	add	r2, sp, #44	; 0x2c
  4030e2:	4631      	mov	r1, r6
  4030e4:	f88d 302c 	strb.w	r3, [sp, #44]	; 0x2c
  4030e8:	4620      	mov	r0, r4
  4030ea:	f06f 0371 	mvn.w	r3, #113	; 0x71
  4030ee:	f88d 302d 	strb.w	r3, [sp, #45]	; 0x2d
  4030f2:	47b8      	blx	r7
  4030f4:	2056      	movs	r0, #86	; 0x56
  4030f6:	47a8      	blx	r5
  4030f8:	aa0b      	add	r2, sp, #44	; 0x2c
  4030fa:	4621      	mov	r1, r4
  4030fc:	20fc      	movs	r0, #252	; 0xfc
  4030fe:	47c0      	blx	r8
  403100:	f04f 0306 	mov.w	r3, #6
  403104:	aa0b      	add	r2, sp, #44	; 0x2c
  403106:	4631      	mov	r1, r6
  403108:	f88d 302c 	strb.w	r3, [sp, #44]	; 0x2c
  40310c:	4620      	mov	r0, r4
  40310e:	f04f 0362 	mov.w	r3, #98	; 0x62
  403112:	f88d 302d 	strb.w	r3, [sp, #45]	; 0x2d
  403116:	47b8      	blx	r7
  403118:	2056      	movs	r0, #86	; 0x56
  40311a:	47a8      	blx	r5
  40311c:	aa0b      	add	r2, sp, #44	; 0x2c
  40311e:	4621      	mov	r1, r4
  403120:	20d0      	movs	r0, #208	; 0xd0
  403122:	47c0      	blx	r8
  403124:	2261      	movs	r2, #97	; 0x61
  403126:	f04f 0307 	mov.w	r3, #7
  40312a:	4631      	mov	r1, r6
  40312c:	f88d 202d 	strb.w	r2, [sp, #45]	; 0x2d
  403130:	4620      	mov	r0, r4
  403132:	aa0b      	add	r2, sp, #44	; 0x2c
  403134:	f88d 302c 	strb.w	r3, [sp, #44]	; 0x2c
  403138:	47b8      	blx	r7
  40313a:	2056      	movs	r0, #86	; 0x56
  40313c:	47a8      	blx	r5
  40313e:	aa0b      	add	r2, sp, #44	; 0x2c
  403140:	4621      	mov	r1, r4
  403142:	20e4      	movs	r0, #228	; 0xe4
  403144:	47c0      	blx	r8
  403146:	aa0b      	add	r2, sp, #44	; 0x2c
  403148:	4631      	mov	r1, r6
  40314a:	4620      	mov	r0, r4
  40314c:	f88d 602c 	strb.w	r6, [sp, #44]	; 0x2c
  403150:	f88d b02d 	strb.w	fp, [sp, #45]	; 0x2d
  403154:	47b8      	blx	r7
  403156:	2056      	movs	r0, #86	; 0x56
  403158:	47a8      	blx	r5
  40315a:	aa0b      	add	r2, sp, #44	; 0x2c
  40315c:	4621      	mov	r1, r4
  40315e:	20e4      	movs	r0, #228	; 0xe4
  403160:	47c0      	blx	r8
  403162:	aa0b      	add	r2, sp, #44	; 0x2c
  403164:	4631      	mov	r1, r6
  403166:	4620      	mov	r0, r4
  403168:	f88d a02c 	strb.w	sl, [sp, #44]	; 0x2c
  40316c:	f88d 902d 	strb.w	r9, [sp, #45]	; 0x2d
  403170:	47b8      	blx	r7
  403172:	2056      	movs	r0, #86	; 0x56
  403174:	47a8      	blx	r5
  403176:	aa0b      	add	r2, sp, #44	; 0x2c
  403178:	4621      	mov	r1, r4
  40317a:	20e4      	movs	r0, #228	; 0xe4
  40317c:	47c0      	blx	r8
  40317e:	f04f 0304 	mov.w	r3, #4
  403182:	aa0b      	add	r2, sp, #44	; 0x2c
  403184:	4631      	mov	r1, r6
  403186:	f88d 302c 	strb.w	r3, [sp, #44]	; 0x2c
  40318a:	4620      	mov	r0, r4
  40318c:	f06f 0371 	mvn.w	r3, #113	; 0x71
  403190:	f88d 302d 	strb.w	r3, [sp, #45]	; 0x2d
  403194:	47b8      	blx	r7
  403196:	2056      	movs	r0, #86	; 0x56
  403198:	47a8      	blx	r5
  40319a:	aa0b      	add	r2, sp, #44	; 0x2c
  40319c:	4621      	mov	r1, r4
  40319e:	20fc      	movs	r0, #252	; 0xfc
  4031a0:	47c0      	blx	r8
  4031a2:	f04f 0307 	mov.w	r3, #7
  4031a6:	aa0b      	add	r2, sp, #44	; 0x2c
  4031a8:	4631      	mov	r1, r6
  4031aa:	f88d 302c 	strb.w	r3, [sp, #44]	; 0x2c
  4031ae:	4620      	mov	r0, r4
  4031b0:	9b07      	ldr	r3, [sp, #28]
  4031b2:	f88d 302d 	strb.w	r3, [sp, #45]	; 0x2d
  4031b6:	47b8      	blx	r7
  4031b8:	2056      	movs	r0, #86	; 0x56
  4031ba:	47a8      	blx	r5
  4031bc:	aa0b      	add	r2, sp, #44	; 0x2c
  4031be:	4621      	mov	r1, r4
  4031c0:	20d0      	movs	r0, #208	; 0xd0
  4031c2:	47c0      	blx	r8
  4031c4:	23af      	movs	r3, #175	; 0xaf
  4031c6:	aa0b      	add	r2, sp, #44	; 0x2c
  4031c8:	4631      	mov	r1, r6
  4031ca:	4620      	mov	r0, r4
  4031cc:	f88d 302d 	strb.w	r3, [sp, #45]	; 0x2d
  4031d0:	9307      	str	r3, [sp, #28]
  4031d2:	f88d 402c 	strb.w	r4, [sp, #44]	; 0x2c
  4031d6:	47b8      	blx	r7
  4031d8:	2056      	movs	r0, #86	; 0x56
  4031da:	47a8      	blx	r5
  4031dc:	aa0b      	add	r2, sp, #44	; 0x2c
  4031de:	4621      	mov	r1, r4
  4031e0:	20e4      	movs	r0, #228	; 0xe4
  4031e2:	47c0      	blx	r8
  4031e4:	aa0b      	add	r2, sp, #44	; 0x2c
  4031e6:	4631      	mov	r1, r6
  4031e8:	4620      	mov	r0, r4
  4031ea:	f88d 602c 	strb.w	r6, [sp, #44]	; 0x2c
  4031ee:	f88d b02d 	strb.w	fp, [sp, #45]	; 0x2d
  4031f2:	47b8      	blx	r7
  4031f4:	2056      	movs	r0, #86	; 0x56
  4031f6:	47a8      	blx	r5
  4031f8:	aa0b      	add	r2, sp, #44	; 0x2c
  4031fa:	4621      	mov	r1, r4
  4031fc:	20e4      	movs	r0, #228	; 0xe4
  4031fe:	47c0      	blx	r8
  403200:	aa0b      	add	r2, sp, #44	; 0x2c
  403202:	4631      	mov	r1, r6
  403204:	4620      	mov	r0, r4
  403206:	f88d a02c 	strb.w	sl, [sp, #44]	; 0x2c
  40320a:	f88d 902d 	strb.w	r9, [sp, #45]	; 0x2d
  40320e:	47b8      	blx	r7
  403210:	2056      	movs	r0, #86	; 0x56
  403212:	47a8      	blx	r5
  403214:	aa0b      	add	r2, sp, #44	; 0x2c
  403216:	4621      	mov	r1, r4
  403218:	20e4      	movs	r0, #228	; 0xe4
  40321a:	47c0      	blx	r8
  40321c:	f04f 0304 	mov.w	r3, #4
  403220:	aa0b      	add	r2, sp, #44	; 0x2c
  403222:	4631      	mov	r1, r6
  403224:	f88d 302c 	strb.w	r3, [sp, #44]	; 0x2c
  403228:	4620      	mov	r0, r4
  40322a:	f06f 0371 	mvn.w	r3, #113	; 0x71
  40322e:	f88d 302d 	strb.w	r3, [sp, #45]	; 0x2d
  403232:	47b8      	blx	r7
  403234:	2056      	movs	r0, #86	; 0x56
  403236:	47a8      	blx	r5
  403238:	aa0b      	add	r2, sp, #44	; 0x2c
  40323a:	4621      	mov	r1, r4
  40323c:	20fc      	movs	r0, #252	; 0xfc
  40323e:	47c0      	blx	r8
  403240:	f04f 0306 	mov.w	r3, #6
  403244:	aa0b      	add	r2, sp, #44	; 0x2c
  403246:	e015      	b.n	403274 <IAM20685_McLaren_seq1+0x324>
  403248:	400e0e00 	.word	0x400e0e00
  40324c:	00402975 	.word	0x00402975
  403250:	00401ec1 	.word	0x00401ec1
  403254:	20000001 	.word	0x20000001
  403258:	00402995 	.word	0x00402995
  40325c:	00401d71 	.word	0x00401d71
  403260:	004029f5 	.word	0x004029f5
  403264:	00403b5d 	.word	0x00403b5d
  403268:	00406aa8 	.word	0x00406aa8
  40326c:	00402b19 	.word	0x00402b19
  403270:	00401f31 	.word	0x00401f31
  403274:	4631      	mov	r1, r6
  403276:	f88d 302c 	strb.w	r3, [sp, #44]	; 0x2c
  40327a:	4620      	mov	r0, r4
  40327c:	f04f 0362 	mov.w	r3, #98	; 0x62
  403280:	f88d 302d 	strb.w	r3, [sp, #45]	; 0x2d
  403284:	47b8      	blx	r7
  403286:	2056      	movs	r0, #86	; 0x56
  403288:	47a8      	blx	r5
  40328a:	aa0b      	add	r2, sp, #44	; 0x2c
  40328c:	4621      	mov	r1, r4
  40328e:	20d0      	movs	r0, #208	; 0xd0
  403290:	47c0      	blx	r8
  403292:	f04f 0307 	mov.w	r3, #7
  403296:	f88d 302c 	strb.w	r3, [sp, #44]	; 0x2c
  40329a:	4620      	mov	r0, r4
  40329c:	9b07      	ldr	r3, [sp, #28]
  40329e:	f88d 302d 	strb.w	r3, [sp, #45]	; 0x2d
  4032a2:	aa0b      	add	r2, sp, #44	; 0x2c
  4032a4:	4631      	mov	r1, r6
  4032a6:	47b8      	blx	r7
  4032a8:	2056      	movs	r0, #86	; 0x56
  4032aa:	47a8      	blx	r5
  4032ac:	2400      	movs	r4, #0
  4032ae:	4d77      	ldr	r5, [pc, #476]	; (40348c <IAM20685_McLaren_seq1+0x53c>)
  4032b0:	4f77      	ldr	r7, [pc, #476]	; (403490 <IAM20685_McLaren_seq1+0x540>)
  4032b2:	4e78      	ldr	r6, [pc, #480]	; (403494 <IAM20685_McLaren_seq1+0x544>)
  4032b4:	2056      	movs	r0, #86	; 0x56
  4032b6:	47a8      	blx	r5
  4032b8:	23f1      	movs	r3, #241	; 0xf1
  4032ba:	aa0b      	add	r2, sp, #44	; 0x2c
  4032bc:	2103      	movs	r1, #3
  4032be:	4620      	mov	r0, r4
  4032c0:	f88d 302e 	strb.w	r3, [sp, #46]	; 0x2e
  4032c4:	f88d 402c 	strb.w	r4, [sp, #44]	; 0x2c
  4032c8:	f88d 402d 	strb.w	r4, [sp, #45]	; 0x2d
  4032cc:	47b8      	blx	r7
  4032ce:	202b      	movs	r0, #43	; 0x2b
  4032d0:	47a8      	blx	r5
  4032d2:	aa0b      	add	r2, sp, #44	; 0x2c
  4032d4:	2102      	movs	r1, #2
  4032d6:	4620      	mov	r0, r4
  4032d8:	47b0      	blx	r6
  4032da:	f89d 302c 	ldrb.w	r3, [sp, #44]	; 0x2c
  4032de:	f89d a02d 	ldrb.w	sl, [sp, #45]	; 0x2d
  4032e2:	ea4a 2a03 	orr.w	sl, sl, r3, lsl #8
  4032e6:	fa0f f38a 	sxth.w	r3, sl
  4032ea:	202b      	movs	r0, #43	; 0x2b
  4032ec:	9307      	str	r3, [sp, #28]
  4032ee:	47a8      	blx	r5
  4032f0:	23dc      	movs	r3, #220	; 0xdc
  4032f2:	aa0b      	add	r2, sp, #44	; 0x2c
  4032f4:	2103      	movs	r1, #3
  4032f6:	2004      	movs	r0, #4
  4032f8:	f88d 302e 	strb.w	r3, [sp, #46]	; 0x2e
  4032fc:	f88d 402c 	strb.w	r4, [sp, #44]	; 0x2c
  403300:	f88d 402d 	strb.w	r4, [sp, #45]	; 0x2d
  403304:	47b8      	blx	r7
  403306:	202b      	movs	r0, #43	; 0x2b
  403308:	47a8      	blx	r5
  40330a:	aa0b      	add	r2, sp, #44	; 0x2c
  40330c:	2102      	movs	r1, #2
  40330e:	2004      	movs	r0, #4
  403310:	47b0      	blx	r6
  403312:	f89d 302c 	ldrb.w	r3, [sp, #44]	; 0x2c
  403316:	f89d b02d 	ldrb.w	fp, [sp, #45]	; 0x2d
  40331a:	202b      	movs	r0, #43	; 0x2b
  40331c:	ea4b 2b03 	orr.w	fp, fp, r3, lsl #8
  403320:	47a8      	blx	r5
  403322:	23ab      	movs	r3, #171	; 0xab
  403324:	aa0b      	add	r2, sp, #44	; 0x2c
  403326:	2103      	movs	r1, #3
  403328:	2008      	movs	r0, #8
  40332a:	f88d 302e 	strb.w	r3, [sp, #46]	; 0x2e
  40332e:	f88d 402c 	strb.w	r4, [sp, #44]	; 0x2c
  403332:	f88d 402d 	strb.w	r4, [sp, #45]	; 0x2d
  403336:	47b8      	blx	r7
  403338:	202b      	movs	r0, #43	; 0x2b
  40333a:	47a8      	blx	r5
  40333c:	aa0b      	add	r2, sp, #44	; 0x2c
  40333e:	2102      	movs	r1, #2
  403340:	2008      	movs	r0, #8
  403342:	47b0      	blx	r6
  403344:	f89d 202c 	ldrb.w	r2, [sp, #44]	; 0x2c
  403348:	f89d 302d 	ldrb.w	r3, [sp, #45]	; 0x2d
  40334c:	ea43 2302 	orr.w	r3, r3, r2, lsl #8
  403350:	b21b      	sxth	r3, r3
  403352:	202b      	movs	r0, #43	; 0x2b
  403354:	9308      	str	r3, [sp, #32]
  403356:	47a8      	blx	r5
  403358:	2386      	movs	r3, #134	; 0x86
  40335a:	aa0b      	add	r2, sp, #44	; 0x2c
  40335c:	2103      	movs	r1, #3
  40335e:	200c      	movs	r0, #12
  403360:	f88d 302e 	strb.w	r3, [sp, #46]	; 0x2e
  403364:	f88d 402c 	strb.w	r4, [sp, #44]	; 0x2c
  403368:	f88d 402d 	strb.w	r4, [sp, #45]	; 0x2d
  40336c:	47b8      	blx	r7
  40336e:	202b      	movs	r0, #43	; 0x2b
  403370:	47a8      	blx	r5
  403372:	aa0b      	add	r2, sp, #44	; 0x2c
  403374:	2102      	movs	r1, #2
  403376:	200c      	movs	r0, #12
  403378:	47b0      	blx	r6
  40337a:	f89d 302c 	ldrb.w	r3, [sp, #44]	; 0x2c
  40337e:	f89d 802d 	ldrb.w	r8, [sp, #45]	; 0x2d
  403382:	202b      	movs	r0, #43	; 0x2b
  403384:	ea48 2803 	orr.w	r8, r8, r3, lsl #8
  403388:	47a8      	blx	r5
  40338a:	2345      	movs	r3, #69	; 0x45
  40338c:	aa0b      	add	r2, sp, #44	; 0x2c
  40338e:	2103      	movs	r1, #3
  403390:	2010      	movs	r0, #16
  403392:	f88d 302e 	strb.w	r3, [sp, #46]	; 0x2e
  403396:	f88d 402c 	strb.w	r4, [sp, #44]	; 0x2c
  40339a:	f88d 402d 	strb.w	r4, [sp, #45]	; 0x2d
  40339e:	47b8      	blx	r7
  4033a0:	202b      	movs	r0, #43	; 0x2b
  4033a2:	47a8      	blx	r5
  4033a4:	aa0b      	add	r2, sp, #44	; 0x2c
  4033a6:	2102      	movs	r1, #2
  4033a8:	2010      	movs	r0, #16
  4033aa:	47b0      	blx	r6
  4033ac:	f89d 202c 	ldrb.w	r2, [sp, #44]	; 0x2c
  4033b0:	f89d 302d 	ldrb.w	r3, [sp, #45]	; 0x2d
  4033b4:	202b      	movs	r0, #43	; 0x2b
  4033b6:	ea43 2302 	orr.w	r3, r3, r2, lsl #8
  4033ba:	fa0f fa83 	sxth.w	sl, r3
  4033be:	47a8      	blx	r5
  4033c0:	2368      	movs	r3, #104	; 0x68
  4033c2:	aa0b      	add	r2, sp, #44	; 0x2c
  4033c4:	2103      	movs	r1, #3
  4033c6:	2014      	movs	r0, #20
  4033c8:	f88d 302e 	strb.w	r3, [sp, #46]	; 0x2e
  4033cc:	f88d 402c 	strb.w	r4, [sp, #44]	; 0x2c
  4033d0:	f88d 402d 	strb.w	r4, [sp, #45]	; 0x2d
  4033d4:	47b8      	blx	r7
  4033d6:	202b      	movs	r0, #43	; 0x2b
  4033d8:	47a8      	blx	r5
  4033da:	aa0b      	add	r2, sp, #44	; 0x2c
  4033dc:	2102      	movs	r1, #2
  4033de:	2014      	movs	r0, #20
  4033e0:	47b0      	blx	r6
  4033e2:	f89d 202c 	ldrb.w	r2, [sp, #44]	; 0x2c
  4033e6:	f89d 302d 	ldrb.w	r3, [sp, #45]	; 0x2d
  4033ea:	ea43 2302 	orr.w	r3, r3, r2, lsl #8
  4033ee:	b21b      	sxth	r3, r3
  4033f0:	202b      	movs	r0, #43	; 0x2b
  4033f2:	9309      	str	r3, [sp, #36]	; 0x24
  4033f4:	47a8      	blx	r5
  4033f6:	221f      	movs	r2, #31
  4033f8:	f88d 202e 	strb.w	r2, [sp, #46]	; 0x2e
  4033fc:	2103      	movs	r1, #3
  4033fe:	aa0b      	add	r2, sp, #44	; 0x2c
  403400:	2018      	movs	r0, #24
  403402:	f88d 402c 	strb.w	r4, [sp, #44]	; 0x2c
  403406:	f88d 402d 	strb.w	r4, [sp, #45]	; 0x2d
  40340a:	47b8      	blx	r7
  40340c:	202b      	movs	r0, #43	; 0x2b
  40340e:	47a8      	blx	r5
  403410:	aa0b      	add	r2, sp, #44	; 0x2c
  403412:	2102      	movs	r1, #2
  403414:	2018      	movs	r0, #24
  403416:	47b0      	blx	r6
  403418:	f89d 202c 	ldrb.w	r2, [sp, #44]	; 0x2c
  40341c:	f89d 902d 	ldrb.w	r9, [sp, #45]	; 0x2d
  403420:	202b      	movs	r0, #43	; 0x2b
  403422:	ea49 2902 	orr.w	r9, r9, r2, lsl #8
  403426:	47a8      	blx	r5
  403428:	2232      	movs	r2, #50	; 0x32
  40342a:	f88d 202e 	strb.w	r2, [sp, #46]	; 0x2e
  40342e:	2103      	movs	r1, #3
  403430:	aa0b      	add	r2, sp, #44	; 0x2c
  403432:	201c      	movs	r0, #28
  403434:	f88d 402c 	strb.w	r4, [sp, #44]	; 0x2c
  403438:	f88d 402d 	strb.w	r4, [sp, #45]	; 0x2d
  40343c:	47b8      	blx	r7
  40343e:	202b      	movs	r0, #43	; 0x2b
  403440:	47a8      	blx	r5
  403442:	aa0b      	add	r2, sp, #44	; 0x2c
  403444:	2102      	movs	r1, #2
  403446:	201c      	movs	r0, #28
  403448:	47b0      	blx	r6
  40344a:	f89d 202c 	ldrb.w	r2, [sp, #44]	; 0x2c
  40344e:	f89d 402d 	ldrb.w	r4, [sp, #45]	; 0x2d
  403452:	202b      	movs	r0, #43	; 0x2b
  403454:	ea44 2402 	orr.w	r4, r4, r2, lsl #8
  403458:	47a8      	blx	r5
  40345a:	9b08      	ldr	r3, [sp, #32]
  40345c:	9304      	str	r3, [sp, #16]
  40345e:	9b07      	ldr	r3, [sp, #28]
  403460:	9302      	str	r3, [sp, #8]
  403462:	fa0f fb8b 	sxth.w	fp, fp
  403466:	9b09      	ldr	r3, [sp, #36]	; 0x24
  403468:	9300      	str	r3, [sp, #0]
  40346a:	fa0f f888 	sxth.w	r8, r8
  40346e:	fa0f f989 	sxth.w	r9, r9
  403472:	b224      	sxth	r4, r4
  403474:	4622      	mov	r2, r4
  403476:	f8cd b00c 	str.w	fp, [sp, #12]
  40347a:	f8cd 9004 	str.w	r9, [sp, #4]
  40347e:	4653      	mov	r3, sl
  403480:	4641      	mov	r1, r8
  403482:	4c05      	ldr	r4, [pc, #20]	; (403498 <IAM20685_McLaren_seq1+0x548>)
  403484:	4805      	ldr	r0, [pc, #20]	; (40349c <IAM20685_McLaren_seq1+0x54c>)
  403486:	47a0      	blx	r4
  403488:	e710      	b.n	4032ac <IAM20685_McLaren_seq1+0x35c>
  40348a:	bf00      	nop
  40348c:	20000001 	.word	0x20000001
  403490:	00401ec1 	.word	0x00401ec1
  403494:	00401f31 	.word	0x00401f31
  403498:	00403b5d 	.word	0x00403b5d
  40349c:	00406ac1 	.word	0x00406ac1

004034a0 <IAM20685_McLaren_seq2>:
  4034a0:	e92d 4ff0 	stmdb	sp!, {r4, r5, r6, r7, r8, r9, sl, fp, lr}
  4034a4:	4bbc      	ldr	r3, [pc, #752]	; (403798 <IAM20685_McLaren_seq2+0x2f8>)
  4034a6:	48bd      	ldr	r0, [pc, #756]	; (40379c <IAM20685_McLaren_seq2+0x2fc>)
  4034a8:	4dbd      	ldr	r5, [pc, #756]	; (4037a0 <IAM20685_McLaren_seq2+0x300>)
  4034aa:	4fbe      	ldr	r7, [pc, #760]	; (4037a4 <IAM20685_McLaren_seq2+0x304>)
  4034ac:	4ebe      	ldr	r6, [pc, #760]	; (4037a8 <IAM20685_McLaren_seq2+0x308>)
  4034ae:	f04f 5200 	mov.w	r2, #536870912	; 0x20000000
  4034b2:	b091      	sub	sp, #68	; 0x44
  4034b4:	611a      	str	r2, [r3, #16]
  4034b6:	f8c3 20a0 	str.w	r2, [r3, #160]	; 0xa0
  4034ba:	631a      	str	r2, [r3, #48]	; 0x30
  4034bc:	4bbb      	ldr	r3, [pc, #748]	; (4037ac <IAM20685_McLaren_seq2+0x30c>)
  4034be:	4798      	blx	r3
  4034c0:	4bbb      	ldr	r3, [pc, #748]	; (4037b0 <IAM20685_McLaren_seq2+0x310>)
  4034c2:	4798      	blx	r3
  4034c4:	4bbb      	ldr	r3, [pc, #748]	; (4037b4 <IAM20685_McLaren_seq2+0x314>)
  4034c6:	2400      	movs	r4, #0
  4034c8:	4798      	blx	r3
  4034ca:	aa0b      	add	r2, sp, #44	; 0x2c
  4034cc:	2100      	movs	r1, #0
  4034ce:	20fc      	movs	r0, #252	; 0xfc
  4034d0:	47a8      	blx	r5
  4034d2:	2364      	movs	r3, #100	; 0x64
  4034d4:	aa0b      	add	r2, sp, #44	; 0x2c
  4034d6:	2102      	movs	r1, #2
  4034d8:	4620      	mov	r0, r4
  4034da:	f88d 302d 	strb.w	r3, [sp, #45]	; 0x2d
  4034de:	f88d 402c 	strb.w	r4, [sp, #44]	; 0x2c
  4034e2:	47b8      	blx	r7
  4034e4:	2056      	movs	r0, #86	; 0x56
  4034e6:	47b0      	blx	r6
  4034e8:	23f3      	movs	r3, #243	; 0xf3
  4034ea:	aa0b      	add	r2, sp, #44	; 0x2c
  4034ec:	2103      	movs	r1, #3
  4034ee:	202c      	movs	r0, #44	; 0x2c
  4034f0:	f88d 302e 	strb.w	r3, [sp, #46]	; 0x2e
  4034f4:	f88d 402c 	strb.w	r4, [sp, #44]	; 0x2c
  4034f8:	f88d 402d 	strb.w	r4, [sp, #45]	; 0x2d
  4034fc:	47b8      	blx	r7
  4034fe:	2056      	movs	r0, #86	; 0x56
  403500:	47b0      	blx	r6
  403502:	aa0b      	add	r2, sp, #44	; 0x2c
  403504:	2102      	movs	r1, #2
  403506:	202c      	movs	r0, #44	; 0x2c
  403508:	47a8      	blx	r5
  40350a:	2056      	movs	r0, #86	; 0x56
  40350c:	47b0      	blx	r6
  40350e:	f8bd 102c 	ldrh.w	r1, [sp, #44]	; 0x2c
  403512:	4ba9      	ldr	r3, [pc, #676]	; (4037b8 <IAM20685_McLaren_seq2+0x318>)
  403514:	48a9      	ldr	r0, [pc, #676]	; (4037bc <IAM20685_McLaren_seq2+0x31c>)
  403516:	ba49      	rev16	r1, r1
  403518:	b289      	uxth	r1, r1
  40351a:	4798      	blx	r3
  40351c:	4ba8      	ldr	r3, [pc, #672]	; (4037c0 <IAM20685_McLaren_seq2+0x320>)
  40351e:	4798      	blx	r3
  403520:	aa0b      	add	r2, sp, #44	; 0x2c
  403522:	4621      	mov	r1, r4
  403524:	2044      	movs	r0, #68	; 0x44
  403526:	47a8      	blx	r5
  403528:	2336      	movs	r3, #54	; 0x36
  40352a:	aa0b      	add	r2, sp, #44	; 0x2c
  40352c:	2102      	movs	r1, #2
  40352e:	4620      	mov	r0, r4
  403530:	f88d 302d 	strb.w	r3, [sp, #45]	; 0x2d
  403534:	f88d 402c 	strb.w	r4, [sp, #44]	; 0x2c
  403538:	47b8      	blx	r7
  40353a:	2056      	movs	r0, #86	; 0x56
  40353c:	f04f 0802 	mov.w	r8, #2
  403540:	47b0      	blx	r6
  403542:	aa0b      	add	r2, sp, #44	; 0x2c
  403544:	4621      	mov	r1, r4
  403546:	20e4      	movs	r0, #228	; 0xe4
  403548:	47a8      	blx	r5
  40354a:	2388      	movs	r3, #136	; 0x88
  40354c:	4641      	mov	r1, r8
  40354e:	aa0b      	add	r2, sp, #44	; 0x2c
  403550:	4620      	mov	r0, r4
  403552:	f88d 302d 	strb.w	r3, [sp, #45]	; 0x2d
  403556:	9306      	str	r3, [sp, #24]
  403558:	f88d 802c 	strb.w	r8, [sp, #44]	; 0x2c
  40355c:	47b8      	blx	r7
  40355e:	2056      	movs	r0, #86	; 0x56
  403560:	47b0      	blx	r6
  403562:	aa0b      	add	r2, sp, #44	; 0x2c
  403564:	4621      	mov	r1, r4
  403566:	20e4      	movs	r0, #228	; 0xe4
  403568:	47a8      	blx	r5
  40356a:	f04f 0b01 	mov.w	fp, #1
  40356e:	4641      	mov	r1, r8
  403570:	aa0b      	add	r2, sp, #44	; 0x2c
  403572:	f04f 0a8b 	mov.w	sl, #139	; 0x8b
  403576:	4620      	mov	r0, r4
  403578:	f88d b02c 	strb.w	fp, [sp, #44]	; 0x2c
  40357c:	f88d a02d 	strb.w	sl, [sp, #45]	; 0x2d
  403580:	47b8      	blx	r7
  403582:	2056      	movs	r0, #86	; 0x56
  403584:	47b0      	blx	r6
  403586:	aa0b      	add	r2, sp, #44	; 0x2c
  403588:	4621      	mov	r1, r4
  40358a:	20e4      	movs	r0, #228	; 0xe4
  40358c:	47a8      	blx	r5
  40358e:	f04f 0304 	mov.w	r3, #4
  403592:	4641      	mov	r1, r8
  403594:	aa0b      	add	r2, sp, #44	; 0x2c
  403596:	f88d 302c 	strb.w	r3, [sp, #44]	; 0x2c
  40359a:	4620      	mov	r0, r4
  40359c:	f06f 0371 	mvn.w	r3, #113	; 0x71
  4035a0:	f88d 302d 	strb.w	r3, [sp, #45]	; 0x2d
  4035a4:	47b8      	blx	r7
  4035a6:	2056      	movs	r0, #86	; 0x56
  4035a8:	47b0      	blx	r6
  4035aa:	aa0b      	add	r2, sp, #44	; 0x2c
  4035ac:	4621      	mov	r1, r4
  4035ae:	20fc      	movs	r0, #252	; 0xfc
  4035b0:	47a8      	blx	r5
  4035b2:	2263      	movs	r2, #99	; 0x63
  4035b4:	4641      	mov	r1, r8
  4035b6:	f04f 0907 	mov.w	r9, #7
  4035ba:	f88d 202d 	strb.w	r2, [sp, #45]	; 0x2d
  4035be:	4620      	mov	r0, r4
  4035c0:	aa0b      	add	r2, sp, #44	; 0x2c
  4035c2:	f88d 902c 	strb.w	r9, [sp, #44]	; 0x2c
  4035c6:	47b8      	blx	r7
  4035c8:	2056      	movs	r0, #86	; 0x56
  4035ca:	47b0      	blx	r6
  4035cc:	aa0b      	add	r2, sp, #44	; 0x2c
  4035ce:	4621      	mov	r1, r4
  4035d0:	20d0      	movs	r0, #208	; 0xd0
  4035d2:	47a8      	blx	r5
  4035d4:	2266      	movs	r2, #102	; 0x66
  4035d6:	4641      	mov	r1, r8
  4035d8:	f88d 202d 	strb.w	r2, [sp, #45]	; 0x2d
  4035dc:	4620      	mov	r0, r4
  4035de:	aa0b      	add	r2, sp, #44	; 0x2c
  4035e0:	f88d 402c 	strb.w	r4, [sp, #44]	; 0x2c
  4035e4:	47b8      	blx	r7
  4035e6:	2056      	movs	r0, #86	; 0x56
  4035e8:	47b0      	blx	r6
  4035ea:	aa0b      	add	r2, sp, #44	; 0x2c
  4035ec:	4621      	mov	r1, r4
  4035ee:	20e4      	movs	r0, #228	; 0xe4
  4035f0:	47a8      	blx	r5
  4035f2:	9b06      	ldr	r3, [sp, #24]
  4035f4:	f88d 302d 	strb.w	r3, [sp, #45]	; 0x2d
  4035f8:	4641      	mov	r1, r8
  4035fa:	aa0b      	add	r2, sp, #44	; 0x2c
  4035fc:	4620      	mov	r0, r4
  4035fe:	f88d 802c 	strb.w	r8, [sp, #44]	; 0x2c
  403602:	47b8      	blx	r7
  403604:	2056      	movs	r0, #86	; 0x56
  403606:	47b0      	blx	r6
  403608:	aa0b      	add	r2, sp, #44	; 0x2c
  40360a:	4621      	mov	r1, r4
  40360c:	20e4      	movs	r0, #228	; 0xe4
  40360e:	47a8      	blx	r5
  403610:	4641      	mov	r1, r8
  403612:	aa0b      	add	r2, sp, #44	; 0x2c
  403614:	4620      	mov	r0, r4
  403616:	f88d b02c 	strb.w	fp, [sp, #44]	; 0x2c
  40361a:	f88d a02d 	strb.w	sl, [sp, #45]	; 0x2d
  40361e:	47b8      	blx	r7
  403620:	2056      	movs	r0, #86	; 0x56
  403622:	47b0      	blx	r6
  403624:	aa0b      	add	r2, sp, #44	; 0x2c
  403626:	4621      	mov	r1, r4
  403628:	20e4      	movs	r0, #228	; 0xe4
  40362a:	47a8      	blx	r5
  40362c:	f04f 0304 	mov.w	r3, #4
  403630:	4641      	mov	r1, r8
  403632:	aa0b      	add	r2, sp, #44	; 0x2c
  403634:	f88d 302c 	strb.w	r3, [sp, #44]	; 0x2c
  403638:	4620      	mov	r0, r4
  40363a:	f06f 0371 	mvn.w	r3, #113	; 0x71
  40363e:	f88d 302d 	strb.w	r3, [sp, #45]	; 0x2d
  403642:	47b8      	blx	r7
  403644:	2056      	movs	r0, #86	; 0x56
  403646:	47b0      	blx	r6
  403648:	aa0b      	add	r2, sp, #44	; 0x2c
  40364a:	4621      	mov	r1, r4
  40364c:	20fc      	movs	r0, #252	; 0xfc
  40364e:	47a8      	blx	r5
  403650:	2306      	movs	r3, #6
  403652:	4641      	mov	r1, r8
  403654:	aa0b      	add	r2, sp, #44	; 0x2c
  403656:	f88d 302c 	strb.w	r3, [sp, #44]	; 0x2c
  40365a:	4620      	mov	r0, r4
  40365c:	2362      	movs	r3, #98	; 0x62
  40365e:	f88d 302d 	strb.w	r3, [sp, #45]	; 0x2d
  403662:	47b8      	blx	r7
  403664:	2056      	movs	r0, #86	; 0x56
  403666:	47b0      	blx	r6
  403668:	aa0b      	add	r2, sp, #44	; 0x2c
  40366a:	4621      	mov	r1, r4
  40366c:	20d0      	movs	r0, #208	; 0xd0
  40366e:	47a8      	blx	r5
  403670:	2361      	movs	r3, #97	; 0x61
  403672:	4641      	mov	r1, r8
  403674:	aa0b      	add	r2, sp, #44	; 0x2c
  403676:	4620      	mov	r0, r4
  403678:	f88d 302d 	strb.w	r3, [sp, #45]	; 0x2d
  40367c:	f88d 902c 	strb.w	r9, [sp, #44]	; 0x2c
  403680:	47b8      	blx	r7
  403682:	2056      	movs	r0, #86	; 0x56
  403684:	47b0      	blx	r6
  403686:	46a0      	mov	r8, r4
  403688:	2702      	movs	r7, #2
  40368a:	aa0b      	add	r2, sp, #44	; 0x2c
  40368c:	2100      	movs	r1, #0
  40368e:	20e4      	movs	r0, #228	; 0xe4
  403690:	4c44      	ldr	r4, [pc, #272]	; (4037a4 <IAM20685_McLaren_seq2+0x304>)
  403692:	4e45      	ldr	r6, [pc, #276]	; (4037a8 <IAM20685_McLaren_seq2+0x308>)
  403694:	47a8      	blx	r5
  403696:	2388      	movs	r3, #136	; 0x88
  403698:	aa0b      	add	r2, sp, #44	; 0x2c
  40369a:	4639      	mov	r1, r7
  40369c:	2000      	movs	r0, #0
  40369e:	f88d 302d 	strb.w	r3, [sp, #45]	; 0x2d
  4036a2:	9306      	str	r3, [sp, #24]
  4036a4:	f88d 702c 	strb.w	r7, [sp, #44]	; 0x2c
  4036a8:	47a0      	blx	r4
  4036aa:	2056      	movs	r0, #86	; 0x56
  4036ac:	47b0      	blx	r6
  4036ae:	aa0b      	add	r2, sp, #44	; 0x2c
  4036b0:	2100      	movs	r1, #0
  4036b2:	20e4      	movs	r0, #228	; 0xe4
  4036b4:	47a8      	blx	r5
  4036b6:	f04f 0301 	mov.w	r3, #1
  4036ba:	aa0b      	add	r2, sp, #44	; 0x2c
  4036bc:	4639      	mov	r1, r7
  4036be:	f88d 302c 	strb.w	r3, [sp, #44]	; 0x2c
  4036c2:	2000      	movs	r0, #0
  4036c4:	f06f 0374 	mvn.w	r3, #116	; 0x74
  4036c8:	f88d 302d 	strb.w	r3, [sp, #45]	; 0x2d
  4036cc:	47a0      	blx	r4
  4036ce:	2056      	movs	r0, #86	; 0x56
  4036d0:	47b0      	blx	r6
  4036d2:	aa0b      	add	r2, sp, #44	; 0x2c
  4036d4:	2100      	movs	r1, #0
  4036d6:	20e4      	movs	r0, #228	; 0xe4
  4036d8:	47a8      	blx	r5
  4036da:	f04f 0904 	mov.w	r9, #4
  4036de:	f06f 0371 	mvn.w	r3, #113	; 0x71
  4036e2:	aa0b      	add	r2, sp, #44	; 0x2c
  4036e4:	4639      	mov	r1, r7
  4036e6:	2000      	movs	r0, #0
  4036e8:	f88d 302d 	strb.w	r3, [sp, #45]	; 0x2d
  4036ec:	f88d 902c 	strb.w	r9, [sp, #44]	; 0x2c
  4036f0:	47a0      	blx	r4
  4036f2:	2056      	movs	r0, #86	; 0x56
  4036f4:	47b0      	blx	r6
  4036f6:	aa0b      	add	r2, sp, #44	; 0x2c
  4036f8:	2100      	movs	r1, #0
  4036fa:	20fc      	movs	r0, #252	; 0xfc
  4036fc:	47a8      	blx	r5
  4036fe:	2263      	movs	r2, #99	; 0x63
  403700:	4639      	mov	r1, r7
  403702:	f04f 0b07 	mov.w	fp, #7
  403706:	f88d 202d 	strb.w	r2, [sp, #45]	; 0x2d
  40370a:	2000      	movs	r0, #0
  40370c:	aa0b      	add	r2, sp, #44	; 0x2c
  40370e:	f88d b02c 	strb.w	fp, [sp, #44]	; 0x2c
  403712:	47a0      	blx	r4
  403714:	2056      	movs	r0, #86	; 0x56
  403716:	47b0      	blx	r6
  403718:	aa0b      	add	r2, sp, #44	; 0x2c
  40371a:	2100      	movs	r1, #0
  40371c:	20d0      	movs	r0, #208	; 0xd0
  40371e:	47a8      	blx	r5
  403720:	f04f 0aaf 	mov.w	sl, #175	; 0xaf
  403724:	aa0b      	add	r2, sp, #44	; 0x2c
  403726:	4639      	mov	r1, r7
  403728:	2000      	movs	r0, #0
  40372a:	f88d a02d 	strb.w	sl, [sp, #45]	; 0x2d
  40372e:	f88d 802c 	strb.w	r8, [sp, #44]	; 0x2c
  403732:	47a0      	blx	r4
  403734:	2056      	movs	r0, #86	; 0x56
  403736:	47b0      	blx	r6
  403738:	aa0b      	add	r2, sp, #44	; 0x2c
  40373a:	2100      	movs	r1, #0
  40373c:	20e4      	movs	r0, #228	; 0xe4
  40373e:	47a8      	blx	r5
  403740:	9b06      	ldr	r3, [sp, #24]
  403742:	f88d 302d 	strb.w	r3, [sp, #45]	; 0x2d
  403746:	aa0b      	add	r2, sp, #44	; 0x2c
  403748:	4639      	mov	r1, r7
  40374a:	2000      	movs	r0, #0
  40374c:	f88d 702c 	strb.w	r7, [sp, #44]	; 0x2c
  403750:	47a0      	blx	r4
  403752:	2056      	movs	r0, #86	; 0x56
  403754:	47b0      	blx	r6
  403756:	aa0b      	add	r2, sp, #44	; 0x2c
  403758:	2100      	movs	r1, #0
  40375a:	20e4      	movs	r0, #228	; 0xe4
  40375c:	47a8      	blx	r5
  40375e:	f04f 0301 	mov.w	r3, #1
  403762:	aa0b      	add	r2, sp, #44	; 0x2c
  403764:	4639      	mov	r1, r7
  403766:	f88d 302c 	strb.w	r3, [sp, #44]	; 0x2c
  40376a:	2000      	movs	r0, #0
  40376c:	f06f 0374 	mvn.w	r3, #116	; 0x74
  403770:	f88d 302d 	strb.w	r3, [sp, #45]	; 0x2d
  403774:	47a0      	blx	r4
  403776:	2056      	movs	r0, #86	; 0x56
  403778:	47b0      	blx	r6
  40377a:	aa0b      	add	r2, sp, #44	; 0x2c
  40377c:	2100      	movs	r1, #0
  40377e:	20e4      	movs	r0, #228	; 0xe4
  403780:	47a8      	blx	r5
  403782:	f06f 0371 	mvn.w	r3, #113	; 0x71
  403786:	aa0b      	add	r2, sp, #44	; 0x2c
  403788:	4639      	mov	r1, r7
  40378a:	2000      	movs	r0, #0
  40378c:	f88d 302d 	strb.w	r3, [sp, #45]	; 0x2d
  403790:	f88d 902c 	strb.w	r9, [sp, #44]	; 0x2c
  403794:	47a0      	blx	r4
  403796:	e015      	b.n	4037c4 <IAM20685_McLaren_seq2+0x324>
  403798:	400e0e00 	.word	0x400e0e00
  40379c:	00402975 	.word	0x00402975
  4037a0:	00401f31 	.word	0x00401f31
  4037a4:	00401ec1 	.word	0x00401ec1
  4037a8:	20000001 	.word	0x20000001
  4037ac:	00402995 	.word	0x00402995
  4037b0:	00401d71 	.word	0x00401d71
  4037b4:	004029f5 	.word	0x004029f5
  4037b8:	00403b5d 	.word	0x00403b5d
  4037bc:	00406aa8 	.word	0x00406aa8
  4037c0:	00402b19 	.word	0x00402b19
  4037c4:	2056      	movs	r0, #86	; 0x56
  4037c6:	47b0      	blx	r6
  4037c8:	aa0b      	add	r2, sp, #44	; 0x2c
  4037ca:	2100      	movs	r1, #0
  4037cc:	20fc      	movs	r0, #252	; 0xfc
  4037ce:	47a8      	blx	r5
  4037d0:	2306      	movs	r3, #6
  4037d2:	aa0b      	add	r2, sp, #44	; 0x2c
  4037d4:	4639      	mov	r1, r7
  4037d6:	f88d 302c 	strb.w	r3, [sp, #44]	; 0x2c
  4037da:	2000      	movs	r0, #0
  4037dc:	2362      	movs	r3, #98	; 0x62
  4037de:	f88d 302d 	strb.w	r3, [sp, #45]	; 0x2d
  4037e2:	47a0      	blx	r4
  4037e4:	2056      	movs	r0, #86	; 0x56
  4037e6:	47b0      	blx	r6
  4037e8:	aa0b      	add	r2, sp, #44	; 0x2c
  4037ea:	2100      	movs	r1, #0
  4037ec:	20d0      	movs	r0, #208	; 0xd0
  4037ee:	47a8      	blx	r5
  4037f0:	aa0b      	add	r2, sp, #44	; 0x2c
  4037f2:	4639      	mov	r1, r7
  4037f4:	2000      	movs	r0, #0
  4037f6:	f88d b02c 	strb.w	fp, [sp, #44]	; 0x2c
  4037fa:	f88d a02d 	strb.w	sl, [sp, #45]	; 0x2d
  4037fe:	47a0      	blx	r4
  403800:	2056      	movs	r0, #86	; 0x56
  403802:	47b0      	blx	r6
  403804:	2056      	movs	r0, #86	; 0x56
  403806:	47b0      	blx	r6
  403808:	23f1      	movs	r3, #241	; 0xf1
  40380a:	aa0b      	add	r2, sp, #44	; 0x2c
  40380c:	2103      	movs	r1, #3
  40380e:	2000      	movs	r0, #0
  403810:	f88d 302e 	strb.w	r3, [sp, #46]	; 0x2e
  403814:	f88d 802c 	strb.w	r8, [sp, #44]	; 0x2c
  403818:	f88d 802d 	strb.w	r8, [sp, #45]	; 0x2d
  40381c:	47a0      	blx	r4
  40381e:	202b      	movs	r0, #43	; 0x2b
  403820:	47b0      	blx	r6
  403822:	4639      	mov	r1, r7
  403824:	aa0b      	add	r2, sp, #44	; 0x2c
  403826:	2000      	movs	r0, #0
  403828:	47a8      	blx	r5
  40382a:	f89d 202c 	ldrb.w	r2, [sp, #44]	; 0x2c
  40382e:	f89d 302d 	ldrb.w	r3, [sp, #45]	; 0x2d
  403832:	ea43 2302 	orr.w	r3, r3, r2, lsl #8
  403836:	b21b      	sxth	r3, r3
  403838:	202b      	movs	r0, #43	; 0x2b
  40383a:	9306      	str	r3, [sp, #24]
  40383c:	47b0      	blx	r6
  40383e:	23dc      	movs	r3, #220	; 0xdc
  403840:	aa0b      	add	r2, sp, #44	; 0x2c
  403842:	2103      	movs	r1, #3
  403844:	4648      	mov	r0, r9
  403846:	f88d 302e 	strb.w	r3, [sp, #46]	; 0x2e
  40384a:	f88d 802c 	strb.w	r8, [sp, #44]	; 0x2c
  40384e:	f88d 802d 	strb.w	r8, [sp, #45]	; 0x2d
  403852:	47a0      	blx	r4
  403854:	202b      	movs	r0, #43	; 0x2b
  403856:	47b0      	blx	r6
  403858:	4639      	mov	r1, r7
  40385a:	aa0b      	add	r2, sp, #44	; 0x2c
  40385c:	4648      	mov	r0, r9
  40385e:	47a8      	blx	r5
  403860:	f89d 202c 	ldrb.w	r2, [sp, #44]	; 0x2c
  403864:	f89d 302d 	ldrb.w	r3, [sp, #45]	; 0x2d
  403868:	ea43 2302 	orr.w	r3, r3, r2, lsl #8
  40386c:	b21b      	sxth	r3, r3
  40386e:	202b      	movs	r0, #43	; 0x2b
  403870:	9307      	str	r3, [sp, #28]
  403872:	47b0      	blx	r6
  403874:	23ab      	movs	r3, #171	; 0xab
  403876:	aa0b      	add	r2, sp, #44	; 0x2c
  403878:	2103      	movs	r1, #3
  40387a:	2008      	movs	r0, #8
  40387c:	f88d 302e 	strb.w	r3, [sp, #46]	; 0x2e
  403880:	f88d 802c 	strb.w	r8, [sp, #44]	; 0x2c
  403884:	f88d 802d 	strb.w	r8, [sp, #45]	; 0x2d
  403888:	47a0      	blx	r4
  40388a:	202b      	movs	r0, #43	; 0x2b
  40388c:	47b0      	blx	r6
  40388e:	4639      	mov	r1, r7
  403890:	aa0b      	add	r2, sp, #44	; 0x2c
  403892:	2008      	movs	r0, #8
  403894:	47a8      	blx	r5
  403896:	f89d 202c 	ldrb.w	r2, [sp, #44]	; 0x2c
  40389a:	f89d 302d 	ldrb.w	r3, [sp, #45]	; 0x2d
  40389e:	ea43 2302 	orr.w	r3, r3, r2, lsl #8
  4038a2:	b21b      	sxth	r3, r3
  4038a4:	202b      	movs	r0, #43	; 0x2b
  4038a6:	9308      	str	r3, [sp, #32]
  4038a8:	47b0      	blx	r6
  4038aa:	2386      	movs	r3, #134	; 0x86
  4038ac:	aa0b      	add	r2, sp, #44	; 0x2c
  4038ae:	2103      	movs	r1, #3
  4038b0:	200c      	movs	r0, #12
  4038b2:	f88d 302e 	strb.w	r3, [sp, #46]	; 0x2e
  4038b6:	f88d 802c 	strb.w	r8, [sp, #44]	; 0x2c
  4038ba:	f88d 802d 	strb.w	r8, [sp, #45]	; 0x2d
  4038be:	47a0      	blx	r4
  4038c0:	202b      	movs	r0, #43	; 0x2b
  4038c2:	47b0      	blx	r6
  4038c4:	aa0b      	add	r2, sp, #44	; 0x2c
  4038c6:	4639      	mov	r1, r7
  4038c8:	200c      	movs	r0, #12
  4038ca:	47a8      	blx	r5
  4038cc:	f89d 302c 	ldrb.w	r3, [sp, #44]	; 0x2c
  4038d0:	f89d 902d 	ldrb.w	r9, [sp, #45]	; 0x2d
  4038d4:	202b      	movs	r0, #43	; 0x2b
  4038d6:	ea49 2903 	orr.w	r9, r9, r3, lsl #8
  4038da:	47b0      	blx	r6
  4038dc:	2345      	movs	r3, #69	; 0x45
  4038de:	aa0b      	add	r2, sp, #44	; 0x2c
  4038e0:	2103      	movs	r1, #3
  4038e2:	2010      	movs	r0, #16
  4038e4:	f88d 302e 	strb.w	r3, [sp, #46]	; 0x2e
  4038e8:	f88d 802c 	strb.w	r8, [sp, #44]	; 0x2c
  4038ec:	f88d 802d 	strb.w	r8, [sp, #45]	; 0x2d
  4038f0:	47a0      	blx	r4
  4038f2:	202b      	movs	r0, #43	; 0x2b
  4038f4:	47b0      	blx	r6
  4038f6:	4639      	mov	r1, r7
  4038f8:	aa0b      	add	r2, sp, #44	; 0x2c
  4038fa:	2010      	movs	r0, #16
  4038fc:	47a8      	blx	r5
  4038fe:	f89d 202c 	ldrb.w	r2, [sp, #44]	; 0x2c
  403902:	f89d 302d 	ldrb.w	r3, [sp, #45]	; 0x2d
  403906:	ea43 2302 	orr.w	r3, r3, r2, lsl #8
  40390a:	b21b      	sxth	r3, r3
  40390c:	202b      	movs	r0, #43	; 0x2b
  40390e:	9309      	str	r3, [sp, #36]	; 0x24
  403910:	47b0      	blx	r6
  403912:	2268      	movs	r2, #104	; 0x68
  403914:	f88d 202e 	strb.w	r2, [sp, #46]	; 0x2e
  403918:	2103      	movs	r1, #3
  40391a:	aa0b      	add	r2, sp, #44	; 0x2c
  40391c:	2014      	movs	r0, #20
  40391e:	f88d 802c 	strb.w	r8, [sp, #44]	; 0x2c
  403922:	f88d 802d 	strb.w	r8, [sp, #45]	; 0x2d
  403926:	47a0      	blx	r4
  403928:	202b      	movs	r0, #43	; 0x2b
  40392a:	47b0      	blx	r6
  40392c:	4639      	mov	r1, r7
  40392e:	aa0b      	add	r2, sp, #44	; 0x2c
  403930:	2014      	movs	r0, #20
  403932:	47a8      	blx	r5
  403934:	f89d 202c 	ldrb.w	r2, [sp, #44]	; 0x2c
  403938:	f89d a02d 	ldrb.w	sl, [sp, #45]	; 0x2d
  40393c:	202b      	movs	r0, #43	; 0x2b
  40393e:	ea4a 2a02 	orr.w	sl, sl, r2, lsl #8
  403942:	47b0      	blx	r6
  403944:	221f      	movs	r2, #31
  403946:	f88d 202e 	strb.w	r2, [sp, #46]	; 0x2e
  40394a:	2103      	movs	r1, #3
  40394c:	aa0b      	add	r2, sp, #44	; 0x2c
  40394e:	2018      	movs	r0, #24
  403950:	f88d 802c 	strb.w	r8, [sp, #44]	; 0x2c
  403954:	f88d 802d 	strb.w	r8, [sp, #45]	; 0x2d
  403958:	47a0      	blx	r4
  40395a:	202b      	movs	r0, #43	; 0x2b
  40395c:	47b0      	blx	r6
  40395e:	4639      	mov	r1, r7
  403960:	aa0b      	add	r2, sp, #44	; 0x2c
  403962:	2018      	movs	r0, #24
  403964:	47a8      	blx	r5
  403966:	f89d 202c 	ldrb.w	r2, [sp, #44]	; 0x2c
  40396a:	f89d b02d 	ldrb.w	fp, [sp, #45]	; 0x2d
  40396e:	202b      	movs	r0, #43	; 0x2b
  403970:	ea4b 2b02 	orr.w	fp, fp, r2, lsl #8
  403974:	47b0      	blx	r6
  403976:	2232      	movs	r2, #50	; 0x32
  403978:	f88d 202e 	strb.w	r2, [sp, #46]	; 0x2e
  40397c:	2103      	movs	r1, #3
  40397e:	aa0b      	add	r2, sp, #44	; 0x2c
  403980:	201c      	movs	r0, #28
  403982:	f88d 802c 	strb.w	r8, [sp, #44]	; 0x2c
  403986:	f88d 802d 	strb.w	r8, [sp, #45]	; 0x2d
  40398a:	47a0      	blx	r4
  40398c:	202b      	movs	r0, #43	; 0x2b
  40398e:	47b0      	blx	r6
  403990:	4639      	mov	r1, r7
  403992:	aa0b      	add	r2, sp, #44	; 0x2c
  403994:	201c      	movs	r0, #28
  403996:	47a8      	blx	r5
  403998:	f89d 202c 	ldrb.w	r2, [sp, #44]	; 0x2c
  40399c:	f89d 402d 	ldrb.w	r4, [sp, #45]	; 0x2d
  4039a0:	202b      	movs	r0, #43	; 0x2b
  4039a2:	ea44 2402 	orr.w	r4, r4, r2, lsl #8
  4039a6:	47b0      	blx	r6
  4039a8:	9b08      	ldr	r3, [sp, #32]
  4039aa:	9304      	str	r3, [sp, #16]
  4039ac:	9b07      	ldr	r3, [sp, #28]
  4039ae:	9303      	str	r3, [sp, #12]
  4039b0:	fa0f f989 	sxth.w	r9, r9
  4039b4:	9b06      	ldr	r3, [sp, #24]
  4039b6:	9302      	str	r3, [sp, #8]
  4039b8:	fa0f fa8a 	sxth.w	sl, sl
  4039bc:	fa0f fb8b 	sxth.w	fp, fp
  4039c0:	b224      	sxth	r4, r4
  4039c2:	4622      	mov	r2, r4
  4039c4:	e88d 0c00 	stmia.w	sp, {sl, fp}
  4039c8:	9b09      	ldr	r3, [sp, #36]	; 0x24
  4039ca:	4c02      	ldr	r4, [pc, #8]	; (4039d4 <IAM20685_McLaren_seq2+0x534>)
  4039cc:	4802      	ldr	r0, [pc, #8]	; (4039d8 <IAM20685_McLaren_seq2+0x538>)
  4039ce:	4649      	mov	r1, r9
  4039d0:	47a0      	blx	r4
  4039d2:	e659      	b.n	403688 <IAM20685_McLaren_seq2+0x1e8>
  4039d4:	00403b5d 	.word	0x00403b5d
  4039d8:	00406aee 	.word	0x00406aee

004039dc <processUartData>:
  4039dc:	b510      	push	{r4, lr}
  4039de:	480b      	ldr	r0, [pc, #44]	; (403a0c <processUartData+0x30>)
  4039e0:	4c0b      	ldr	r4, [pc, #44]	; (403a10 <processUartData+0x34>)
  4039e2:	6800      	ldr	r0, [r0, #0]
  4039e4:	2300      	movs	r3, #0
  4039e6:	4619      	mov	r1, r3
  4039e8:	f04f 32ff 	mov.w	r2, #4294967295
  4039ec:	47a0      	blx	r4
  4039ee:	4b09      	ldr	r3, [pc, #36]	; (403a14 <processUartData+0x38>)
  4039f0:	781b      	ldrb	r3, [r3, #0]
  4039f2:	2b33      	cmp	r3, #51	; 0x33
  4039f4:	d005      	beq.n	403a02 <processUartData+0x26>
  4039f6:	2b35      	cmp	r3, #53	; 0x35
  4039f8:	d005      	beq.n	403a06 <processUartData+0x2a>
  4039fa:	2b32      	cmp	r3, #50	; 0x32
  4039fc:	d105      	bne.n	403a0a <processUartData+0x2e>
  4039fe:	4b06      	ldr	r3, [pc, #24]	; (403a18 <processUartData+0x3c>)
  403a00:	4798      	blx	r3
  403a02:	4b06      	ldr	r3, [pc, #24]	; (403a1c <processUartData+0x40>)
  403a04:	e7fc      	b.n	403a00 <processUartData+0x24>
  403a06:	4b06      	ldr	r3, [pc, #24]	; (403a20 <processUartData+0x44>)
  403a08:	e7fa      	b.n	403a00 <processUartData+0x24>
  403a0a:	bd10      	pop	{r4, pc}
  403a0c:	20013888 	.word	0x20013888
  403a10:	00400fb9 	.word	0x00400fb9
  403a14:	20013894 	.word	0x20013894
  403a18:	00402f51 	.word	0x00402f51
  403a1c:	004034a1 	.word	0x004034a1
  403a20:	00402bfd 	.word	0x00402bfd

00403a24 <vMainTask>:
  403a24:	b508      	push	{r3, lr}
  403a26:	4c01      	ldr	r4, [pc, #4]	; (403a2c <vMainTask+0x8>)
  403a28:	47a0      	blx	r4
  403a2a:	e7fd      	b.n	403a28 <vMainTask+0x4>
  403a2c:	004039dd 	.word	0x004039dd

00403a30 <vSensorIntPB03Task>:
  403a30:	b508      	push	{r3, lr}
  403a32:	2203      	movs	r2, #3
  403a34:	2100      	movs	r1, #0
  403a36:	2001      	movs	r0, #1
  403a38:	4b05      	ldr	r3, [pc, #20]	; (403a50 <vSensorIntPB03Task+0x20>)
  403a3a:	4c06      	ldr	r4, [pc, #24]	; (403a54 <vSensorIntPB03Task+0x24>)
  403a3c:	4d06      	ldr	r5, [pc, #24]	; (403a58 <vSensorIntPB03Task+0x28>)
  403a3e:	4798      	blx	r3
  403a40:	6020      	str	r0, [r4, #0]
  403a42:	2300      	movs	r3, #0
  403a44:	f04f 32ff 	mov.w	r2, #4294967295
  403a48:	4619      	mov	r1, r3
  403a4a:	6820      	ldr	r0, [r4, #0]
  403a4c:	47a8      	blx	r5
  403a4e:	e7f8      	b.n	403a42 <vSensorIntPB03Task+0x12>
  403a50:	00400d5d 	.word	0x00400d5d
  403a54:	2001b894 	.word	0x2001b894
  403a58:	00400fb9 	.word	0x00400fb9

00403a5c <main>:
  403a5c:	b57f      	push	{r0, r1, r2, r3, r4, r5, r6, lr}
  403a5e:	4b1a      	ldr	r3, [pc, #104]	; (403ac8 <main+0x6c>)
  403a60:	4c1a      	ldr	r4, [pc, #104]	; (403acc <main+0x70>)
  403a62:	4d1b      	ldr	r5, [pc, #108]	; (403ad0 <main+0x74>)
  403a64:	4798      	blx	r3
  403a66:	4b1b      	ldr	r3, [pc, #108]	; (403ad4 <main+0x78>)
  403a68:	4798      	blx	r3
  403a6a:	4b1b      	ldr	r3, [pc, #108]	; (403ad8 <main+0x7c>)
  403a6c:	4798      	blx	r3
  403a6e:	2203      	movs	r2, #3
  403a70:	2100      	movs	r1, #0
  403a72:	2001      	movs	r0, #1
  403a74:	47a0      	blx	r4
  403a76:	4b19      	ldr	r3, [pc, #100]	; (403adc <main+0x80>)
  403a78:	2203      	movs	r2, #3
  403a7a:	6018      	str	r0, [r3, #0]
  403a7c:	2100      	movs	r1, #0
  403a7e:	2001      	movs	r0, #1
  403a80:	47a0      	blx	r4
  403a82:	4b17      	ldr	r3, [pc, #92]	; (403ae0 <main+0x84>)
  403a84:	6018      	str	r0, [r3, #0]
  403a86:	4b17      	ldr	r3, [pc, #92]	; (403ae4 <main+0x88>)
  403a88:	4817      	ldr	r0, [pc, #92]	; (403ae8 <main+0x8c>)
  403a8a:	4798      	blx	r3
  403a8c:	4b17      	ldr	r3, [pc, #92]	; (403aec <main+0x90>)
  403a8e:	4918      	ldr	r1, [pc, #96]	; (403af0 <main+0x94>)
  403a90:	6018      	str	r0, [r3, #0]
  403a92:	2400      	movs	r4, #0
  403a94:	2601      	movs	r6, #1
  403a96:	4b17      	ldr	r3, [pc, #92]	; (403af4 <main+0x98>)
  403a98:	9301      	str	r3, [sp, #4]
  403a9a:	9403      	str	r4, [sp, #12]
  403a9c:	4623      	mov	r3, r4
  403a9e:	9402      	str	r4, [sp, #8]
  403aa0:	9600      	str	r6, [sp, #0]
  403aa2:	f240 4282 	movw	r2, #1154	; 0x482
  403aa6:	4814      	ldr	r0, [pc, #80]	; (403af8 <main+0x9c>)
  403aa8:	47a8      	blx	r5
  403aaa:	4b14      	ldr	r3, [pc, #80]	; (403afc <main+0xa0>)
  403aac:	9301      	str	r3, [sp, #4]
  403aae:	2282      	movs	r2, #130	; 0x82
  403ab0:	4623      	mov	r3, r4
  403ab2:	4913      	ldr	r1, [pc, #76]	; (403b00 <main+0xa4>)
  403ab4:	9403      	str	r4, [sp, #12]
  403ab6:	9402      	str	r4, [sp, #8]
  403ab8:	9600      	str	r6, [sp, #0]
  403aba:	4812      	ldr	r0, [pc, #72]	; (403b04 <main+0xa8>)
  403abc:	47a8      	blx	r5
  403abe:	4b12      	ldr	r3, [pc, #72]	; (403b08 <main+0xac>)
  403ac0:	4798      	blx	r3
  403ac2:	4620      	mov	r0, r4
  403ac4:	b004      	add	sp, #16
  403ac6:	bd70      	pop	{r4, r5, r6, pc}
  403ac8:	004023fd 	.word	0x004023fd
  403acc:	00400d5d 	.word	0x00400d5d
  403ad0:	004011dd 	.word	0x004011dd
  403ad4:	0040250d 	.word	0x0040250d
  403ad8:	004021c1 	.word	0x004021c1
  403adc:	20013888 	.word	0x20013888
  403ae0:	2001388c 	.word	0x2001388c
  403ae4:	00400695 	.word	0x00400695
  403ae8:	4000c200 	.word	0x4000c200
  403aec:	20013880 	.word	0x20013880
  403af0:	00406b1d 	.word	0x00406b1d
  403af4:	20013884 	.word	0x20013884
  403af8:	00403a25 	.word	0x00403a25
  403afc:	2001387c 	.word	0x2001387c
  403b00:	00406b27 	.word	0x00406b27
  403b04:	00403a31 	.word	0x00403a31
  403b08:	004013a9 	.word	0x004013a9

00403b0c <__libc_init_array>:
  403b0c:	b570      	push	{r4, r5, r6, lr}
  403b0e:	4e0f      	ldr	r6, [pc, #60]	; (403b4c <__libc_init_array+0x40>)
  403b10:	4d0f      	ldr	r5, [pc, #60]	; (403b50 <__libc_init_array+0x44>)
  403b12:	1b76      	subs	r6, r6, r5
  403b14:	10b6      	asrs	r6, r6, #2
  403b16:	bf18      	it	ne
  403b18:	2400      	movne	r4, #0
  403b1a:	d005      	beq.n	403b28 <__libc_init_array+0x1c>
  403b1c:	3401      	adds	r4, #1
  403b1e:	f855 3b04 	ldr.w	r3, [r5], #4
  403b22:	4798      	blx	r3
  403b24:	42a6      	cmp	r6, r4
  403b26:	d1f9      	bne.n	403b1c <__libc_init_array+0x10>
  403b28:	4e0a      	ldr	r6, [pc, #40]	; (403b54 <__libc_init_array+0x48>)
  403b2a:	4d0b      	ldr	r5, [pc, #44]	; (403b58 <__libc_init_array+0x4c>)
  403b2c:	1b76      	subs	r6, r6, r5
  403b2e:	f003 f8b9 	bl	406ca4 <_init>
  403b32:	10b6      	asrs	r6, r6, #2
  403b34:	bf18      	it	ne
  403b36:	2400      	movne	r4, #0
  403b38:	d006      	beq.n	403b48 <__libc_init_array+0x3c>
  403b3a:	3401      	adds	r4, #1
  403b3c:	f855 3b04 	ldr.w	r3, [r5], #4
  403b40:	4798      	blx	r3
  403b42:	42a6      	cmp	r6, r4
  403b44:	d1f9      	bne.n	403b3a <__libc_init_array+0x2e>
  403b46:	bd70      	pop	{r4, r5, r6, pc}
  403b48:	bd70      	pop	{r4, r5, r6, pc}
  403b4a:	bf00      	nop
  403b4c:	00406cb0 	.word	0x00406cb0
  403b50:	00406cb0 	.word	0x00406cb0
  403b54:	00406cb8 	.word	0x00406cb8
  403b58:	00406cb0 	.word	0x00406cb0

00403b5c <iprintf>:
  403b5c:	b40f      	push	{r0, r1, r2, r3}
  403b5e:	b500      	push	{lr}
  403b60:	4907      	ldr	r1, [pc, #28]	; (403b80 <iprintf+0x24>)
  403b62:	b083      	sub	sp, #12
  403b64:	ab04      	add	r3, sp, #16
  403b66:	6808      	ldr	r0, [r1, #0]
  403b68:	f853 2b04 	ldr.w	r2, [r3], #4
  403b6c:	6881      	ldr	r1, [r0, #8]
  403b6e:	9301      	str	r3, [sp, #4]
  403b70:	f000 fa00 	bl	403f74 <_vfiprintf_r>
  403b74:	b003      	add	sp, #12
  403b76:	f85d eb04 	ldr.w	lr, [sp], #4
  403b7a:	b004      	add	sp, #16
  403b7c:	4770      	bx	lr
  403b7e:	bf00      	nop
  403b80:	20000098 	.word	0x20000098

00403b84 <memcpy>:
  403b84:	4684      	mov	ip, r0
  403b86:	ea41 0300 	orr.w	r3, r1, r0
  403b8a:	f013 0303 	ands.w	r3, r3, #3
  403b8e:	d16d      	bne.n	403c6c <memcpy+0xe8>
  403b90:	3a40      	subs	r2, #64	; 0x40
  403b92:	d341      	bcc.n	403c18 <memcpy+0x94>
  403b94:	f851 3b04 	ldr.w	r3, [r1], #4
  403b98:	f840 3b04 	str.w	r3, [r0], #4
  403b9c:	f851 3b04 	ldr.w	r3, [r1], #4
  403ba0:	f840 3b04 	str.w	r3, [r0], #4
  403ba4:	f851 3b04 	ldr.w	r3, [r1], #4
  403ba8:	f840 3b04 	str.w	r3, [r0], #4
  403bac:	f851 3b04 	ldr.w	r3, [r1], #4
  403bb0:	f840 3b04 	str.w	r3, [r0], #4
  403bb4:	f851 3b04 	ldr.w	r3, [r1], #4
  403bb8:	f840 3b04 	str.w	r3, [r0], #4
  403bbc:	f851 3b04 	ldr.w	r3, [r1], #4
  403bc0:	f840 3b04 	str.w	r3, [r0], #4
  403bc4:	f851 3b04 	ldr.w	r3, [r1], #4
  403bc8:	f840 3b04 	str.w	r3, [r0], #4
  403bcc:	f851 3b04 	ldr.w	r3, [r1], #4
  403bd0:	f840 3b04 	str.w	r3, [r0], #4
  403bd4:	f851 3b04 	ldr.w	r3, [r1], #4
  403bd8:	f840 3b04 	str.w	r3, [r0], #4
  403bdc:	f851 3b04 	ldr.w	r3, [r1], #4
  403be0:	f840 3b04 	str.w	r3, [r0], #4
  403be4:	f851 3b04 	ldr.w	r3, [r1], #4
  403be8:	f840 3b04 	str.w	r3, [r0], #4
  403bec:	f851 3b04 	ldr.w	r3, [r1], #4
  403bf0:	f840 3b04 	str.w	r3, [r0], #4
  403bf4:	f851 3b04 	ldr.w	r3, [r1], #4
  403bf8:	f840 3b04 	str.w	r3, [r0], #4
  403bfc:	f851 3b04 	ldr.w	r3, [r1], #4
  403c00:	f840 3b04 	str.w	r3, [r0], #4
  403c04:	f851 3b04 	ldr.w	r3, [r1], #4
  403c08:	f840 3b04 	str.w	r3, [r0], #4
  403c0c:	f851 3b04 	ldr.w	r3, [r1], #4
  403c10:	f840 3b04 	str.w	r3, [r0], #4
  403c14:	3a40      	subs	r2, #64	; 0x40
  403c16:	d2bd      	bcs.n	403b94 <memcpy+0x10>
  403c18:	3230      	adds	r2, #48	; 0x30
  403c1a:	d311      	bcc.n	403c40 <memcpy+0xbc>
  403c1c:	f851 3b04 	ldr.w	r3, [r1], #4
  403c20:	f840 3b04 	str.w	r3, [r0], #4
  403c24:	f851 3b04 	ldr.w	r3, [r1], #4
  403c28:	f840 3b04 	str.w	r3, [r0], #4
  403c2c:	f851 3b04 	ldr.w	r3, [r1], #4
  403c30:	f840 3b04 	str.w	r3, [r0], #4
  403c34:	f851 3b04 	ldr.w	r3, [r1], #4
  403c38:	f840 3b04 	str.w	r3, [r0], #4
  403c3c:	3a10      	subs	r2, #16
  403c3e:	d2ed      	bcs.n	403c1c <memcpy+0x98>
  403c40:	320c      	adds	r2, #12
  403c42:	d305      	bcc.n	403c50 <memcpy+0xcc>
  403c44:	f851 3b04 	ldr.w	r3, [r1], #4
  403c48:	f840 3b04 	str.w	r3, [r0], #4
  403c4c:	3a04      	subs	r2, #4
  403c4e:	d2f9      	bcs.n	403c44 <memcpy+0xc0>
  403c50:	3204      	adds	r2, #4
  403c52:	d008      	beq.n	403c66 <memcpy+0xe2>
  403c54:	07d2      	lsls	r2, r2, #31
  403c56:	bf1c      	itt	ne
  403c58:	f811 3b01 	ldrbne.w	r3, [r1], #1
  403c5c:	f800 3b01 	strbne.w	r3, [r0], #1
  403c60:	d301      	bcc.n	403c66 <memcpy+0xe2>
  403c62:	880b      	ldrh	r3, [r1, #0]
  403c64:	8003      	strh	r3, [r0, #0]
  403c66:	4660      	mov	r0, ip
  403c68:	4770      	bx	lr
  403c6a:	bf00      	nop
  403c6c:	2a08      	cmp	r2, #8
  403c6e:	d313      	bcc.n	403c98 <memcpy+0x114>
  403c70:	078b      	lsls	r3, r1, #30
  403c72:	d08d      	beq.n	403b90 <memcpy+0xc>
  403c74:	f010 0303 	ands.w	r3, r0, #3
  403c78:	d08a      	beq.n	403b90 <memcpy+0xc>
  403c7a:	f1c3 0304 	rsb	r3, r3, #4
  403c7e:	1ad2      	subs	r2, r2, r3
  403c80:	07db      	lsls	r3, r3, #31
  403c82:	bf1c      	itt	ne
  403c84:	f811 3b01 	ldrbne.w	r3, [r1], #1
  403c88:	f800 3b01 	strbne.w	r3, [r0], #1
  403c8c:	d380      	bcc.n	403b90 <memcpy+0xc>
  403c8e:	f831 3b02 	ldrh.w	r3, [r1], #2
  403c92:	f820 3b02 	strh.w	r3, [r0], #2
  403c96:	e77b      	b.n	403b90 <memcpy+0xc>
  403c98:	3a04      	subs	r2, #4
  403c9a:	d3d9      	bcc.n	403c50 <memcpy+0xcc>
  403c9c:	3a01      	subs	r2, #1
  403c9e:	f811 3b01 	ldrb.w	r3, [r1], #1
  403ca2:	f800 3b01 	strb.w	r3, [r0], #1
  403ca6:	d2f9      	bcs.n	403c9c <memcpy+0x118>
  403ca8:	780b      	ldrb	r3, [r1, #0]
  403caa:	7003      	strb	r3, [r0, #0]
  403cac:	784b      	ldrb	r3, [r1, #1]
  403cae:	7043      	strb	r3, [r0, #1]
  403cb0:	788b      	ldrb	r3, [r1, #2]
  403cb2:	7083      	strb	r3, [r0, #2]
  403cb4:	4660      	mov	r0, ip
  403cb6:	4770      	bx	lr

00403cb8 <memset>:
  403cb8:	b470      	push	{r4, r5, r6}
  403cba:	0786      	lsls	r6, r0, #30
  403cbc:	d046      	beq.n	403d4c <memset+0x94>
  403cbe:	1e54      	subs	r4, r2, #1
  403cc0:	2a00      	cmp	r2, #0
  403cc2:	d041      	beq.n	403d48 <memset+0x90>
  403cc4:	b2ca      	uxtb	r2, r1
  403cc6:	4603      	mov	r3, r0
  403cc8:	e002      	b.n	403cd0 <memset+0x18>
  403cca:	f114 34ff 	adds.w	r4, r4, #4294967295
  403cce:	d33b      	bcc.n	403d48 <memset+0x90>
  403cd0:	f803 2b01 	strb.w	r2, [r3], #1
  403cd4:	079d      	lsls	r5, r3, #30
  403cd6:	d1f8      	bne.n	403cca <memset+0x12>
  403cd8:	2c03      	cmp	r4, #3
  403cda:	d92e      	bls.n	403d3a <memset+0x82>
  403cdc:	b2cd      	uxtb	r5, r1
  403cde:	ea45 2505 	orr.w	r5, r5, r5, lsl #8
  403ce2:	2c0f      	cmp	r4, #15
  403ce4:	ea45 4505 	orr.w	r5, r5, r5, lsl #16
  403ce8:	d919      	bls.n	403d1e <memset+0x66>
  403cea:	f103 0210 	add.w	r2, r3, #16
  403cee:	4626      	mov	r6, r4
  403cf0:	3e10      	subs	r6, #16
  403cf2:	2e0f      	cmp	r6, #15
  403cf4:	f842 5c10 	str.w	r5, [r2, #-16]
  403cf8:	f842 5c0c 	str.w	r5, [r2, #-12]
  403cfc:	f842 5c08 	str.w	r5, [r2, #-8]
  403d00:	f842 5c04 	str.w	r5, [r2, #-4]
  403d04:	f102 0210 	add.w	r2, r2, #16
  403d08:	d8f2      	bhi.n	403cf0 <memset+0x38>
  403d0a:	f1a4 0210 	sub.w	r2, r4, #16
  403d0e:	f022 020f 	bic.w	r2, r2, #15
  403d12:	f004 040f 	and.w	r4, r4, #15
  403d16:	3210      	adds	r2, #16
  403d18:	2c03      	cmp	r4, #3
  403d1a:	4413      	add	r3, r2
  403d1c:	d90d      	bls.n	403d3a <memset+0x82>
  403d1e:	461e      	mov	r6, r3
  403d20:	4622      	mov	r2, r4
  403d22:	3a04      	subs	r2, #4
  403d24:	2a03      	cmp	r2, #3
  403d26:	f846 5b04 	str.w	r5, [r6], #4
  403d2a:	d8fa      	bhi.n	403d22 <memset+0x6a>
  403d2c:	1f22      	subs	r2, r4, #4
  403d2e:	f022 0203 	bic.w	r2, r2, #3
  403d32:	3204      	adds	r2, #4
  403d34:	4413      	add	r3, r2
  403d36:	f004 0403 	and.w	r4, r4, #3
  403d3a:	b12c      	cbz	r4, 403d48 <memset+0x90>
  403d3c:	b2c9      	uxtb	r1, r1
  403d3e:	441c      	add	r4, r3
  403d40:	f803 1b01 	strb.w	r1, [r3], #1
  403d44:	429c      	cmp	r4, r3
  403d46:	d1fb      	bne.n	403d40 <memset+0x88>
  403d48:	bc70      	pop	{r4, r5, r6}
  403d4a:	4770      	bx	lr
  403d4c:	4614      	mov	r4, r2
  403d4e:	4603      	mov	r3, r0
  403d50:	e7c2      	b.n	403cd8 <memset+0x20>
  403d52:	bf00      	nop

00403d54 <setbuf>:
  403d54:	2900      	cmp	r1, #0
  403d56:	bf0c      	ite	eq
  403d58:	2202      	moveq	r2, #2
  403d5a:	2200      	movne	r2, #0
  403d5c:	f44f 6380 	mov.w	r3, #1024	; 0x400
  403d60:	f000 b800 	b.w	403d64 <setvbuf>

00403d64 <setvbuf>:
  403d64:	e92d 43f0 	stmdb	sp!, {r4, r5, r6, r7, r8, r9, lr}
  403d68:	4c61      	ldr	r4, [pc, #388]	; (403ef0 <setvbuf+0x18c>)
  403d6a:	6825      	ldr	r5, [r4, #0]
  403d6c:	b083      	sub	sp, #12
  403d6e:	4604      	mov	r4, r0
  403d70:	460f      	mov	r7, r1
  403d72:	4690      	mov	r8, r2
  403d74:	461e      	mov	r6, r3
  403d76:	b115      	cbz	r5, 403d7e <setvbuf+0x1a>
  403d78:	6bab      	ldr	r3, [r5, #56]	; 0x38
  403d7a:	2b00      	cmp	r3, #0
  403d7c:	d064      	beq.n	403e48 <setvbuf+0xe4>
  403d7e:	f1b8 0f02 	cmp.w	r8, #2
  403d82:	d006      	beq.n	403d92 <setvbuf+0x2e>
  403d84:	f1b8 0f01 	cmp.w	r8, #1
  403d88:	f200 809f 	bhi.w	403eca <setvbuf+0x166>
  403d8c:	2e00      	cmp	r6, #0
  403d8e:	f2c0 809c 	blt.w	403eca <setvbuf+0x166>
  403d92:	6e63      	ldr	r3, [r4, #100]	; 0x64
  403d94:	07d8      	lsls	r0, r3, #31
  403d96:	d534      	bpl.n	403e02 <setvbuf+0x9e>
  403d98:	4621      	mov	r1, r4
  403d9a:	4628      	mov	r0, r5
  403d9c:	f001 f888 	bl	404eb0 <_fflush_r>
  403da0:	6b21      	ldr	r1, [r4, #48]	; 0x30
  403da2:	b141      	cbz	r1, 403db6 <setvbuf+0x52>
  403da4:	f104 0340 	add.w	r3, r4, #64	; 0x40
  403da8:	4299      	cmp	r1, r3
  403daa:	d002      	beq.n	403db2 <setvbuf+0x4e>
  403dac:	4628      	mov	r0, r5
  403dae:	f001 f9fd 	bl	4051ac <_free_r>
  403db2:	2300      	movs	r3, #0
  403db4:	6323      	str	r3, [r4, #48]	; 0x30
  403db6:	f9b4 300c 	ldrsh.w	r3, [r4, #12]
  403dba:	2200      	movs	r2, #0
  403dbc:	61a2      	str	r2, [r4, #24]
  403dbe:	6062      	str	r2, [r4, #4]
  403dc0:	061a      	lsls	r2, r3, #24
  403dc2:	d43a      	bmi.n	403e3a <setvbuf+0xd6>
  403dc4:	f423 634a 	bic.w	r3, r3, #3232	; 0xca0
  403dc8:	f023 0303 	bic.w	r3, r3, #3
  403dcc:	f1b8 0f02 	cmp.w	r8, #2
  403dd0:	81a3      	strh	r3, [r4, #12]
  403dd2:	d01d      	beq.n	403e10 <setvbuf+0xac>
  403dd4:	ab01      	add	r3, sp, #4
  403dd6:	466a      	mov	r2, sp
  403dd8:	4621      	mov	r1, r4
  403dda:	4628      	mov	r0, r5
  403ddc:	f001 fc84 	bl	4056e8 <__swhatbuf_r>
  403de0:	89a3      	ldrh	r3, [r4, #12]
  403de2:	4318      	orrs	r0, r3
  403de4:	81a0      	strh	r0, [r4, #12]
  403de6:	2e00      	cmp	r6, #0
  403de8:	d132      	bne.n	403e50 <setvbuf+0xec>
  403dea:	9e00      	ldr	r6, [sp, #0]
  403dec:	4630      	mov	r0, r6
  403dee:	f001 fcf3 	bl	4057d8 <malloc>
  403df2:	4607      	mov	r7, r0
  403df4:	2800      	cmp	r0, #0
  403df6:	d06b      	beq.n	403ed0 <setvbuf+0x16c>
  403df8:	89a3      	ldrh	r3, [r4, #12]
  403dfa:	f043 0380 	orr.w	r3, r3, #128	; 0x80
  403dfe:	81a3      	strh	r3, [r4, #12]
  403e00:	e028      	b.n	403e54 <setvbuf+0xf0>
  403e02:	89a3      	ldrh	r3, [r4, #12]
  403e04:	0599      	lsls	r1, r3, #22
  403e06:	d4c7      	bmi.n	403d98 <setvbuf+0x34>
  403e08:	6da0      	ldr	r0, [r4, #88]	; 0x58
  403e0a:	f001 fc69 	bl	4056e0 <__retarget_lock_acquire_recursive>
  403e0e:	e7c3      	b.n	403d98 <setvbuf+0x34>
  403e10:	2500      	movs	r5, #0
  403e12:	6e61      	ldr	r1, [r4, #100]	; 0x64
  403e14:	2600      	movs	r6, #0
  403e16:	f104 0243 	add.w	r2, r4, #67	; 0x43
  403e1a:	f043 0302 	orr.w	r3, r3, #2
  403e1e:	2001      	movs	r0, #1
  403e20:	60a6      	str	r6, [r4, #8]
  403e22:	07ce      	lsls	r6, r1, #31
  403e24:	81a3      	strh	r3, [r4, #12]
  403e26:	6022      	str	r2, [r4, #0]
  403e28:	6122      	str	r2, [r4, #16]
  403e2a:	6160      	str	r0, [r4, #20]
  403e2c:	d401      	bmi.n	403e32 <setvbuf+0xce>
  403e2e:	0598      	lsls	r0, r3, #22
  403e30:	d53e      	bpl.n	403eb0 <setvbuf+0x14c>
  403e32:	4628      	mov	r0, r5
  403e34:	b003      	add	sp, #12
  403e36:	e8bd 83f0 	ldmia.w	sp!, {r4, r5, r6, r7, r8, r9, pc}
  403e3a:	6921      	ldr	r1, [r4, #16]
  403e3c:	4628      	mov	r0, r5
  403e3e:	f001 f9b5 	bl	4051ac <_free_r>
  403e42:	f9b4 300c 	ldrsh.w	r3, [r4, #12]
  403e46:	e7bd      	b.n	403dc4 <setvbuf+0x60>
  403e48:	4628      	mov	r0, r5
  403e4a:	f001 f889 	bl	404f60 <__sinit>
  403e4e:	e796      	b.n	403d7e <setvbuf+0x1a>
  403e50:	2f00      	cmp	r7, #0
  403e52:	d0cb      	beq.n	403dec <setvbuf+0x88>
  403e54:	6bab      	ldr	r3, [r5, #56]	; 0x38
  403e56:	2b00      	cmp	r3, #0
  403e58:	d033      	beq.n	403ec2 <setvbuf+0x15e>
  403e5a:	9b00      	ldr	r3, [sp, #0]
  403e5c:	f9b4 200c 	ldrsh.w	r2, [r4, #12]
  403e60:	6027      	str	r7, [r4, #0]
  403e62:	429e      	cmp	r6, r3
  403e64:	bf1c      	itt	ne
  403e66:	f442 6200 	orrne.w	r2, r2, #2048	; 0x800
  403e6a:	81a2      	strhne	r2, [r4, #12]
  403e6c:	f1b8 0f01 	cmp.w	r8, #1
  403e70:	bf04      	itt	eq
  403e72:	f042 0201 	orreq.w	r2, r2, #1
  403e76:	81a2      	strheq	r2, [r4, #12]
  403e78:	b292      	uxth	r2, r2
  403e7a:	f012 0308 	ands.w	r3, r2, #8
  403e7e:	6127      	str	r7, [r4, #16]
  403e80:	6166      	str	r6, [r4, #20]
  403e82:	d00e      	beq.n	403ea2 <setvbuf+0x13e>
  403e84:	07d1      	lsls	r1, r2, #31
  403e86:	d51a      	bpl.n	403ebe <setvbuf+0x15a>
  403e88:	6e65      	ldr	r5, [r4, #100]	; 0x64
  403e8a:	4276      	negs	r6, r6
  403e8c:	2300      	movs	r3, #0
  403e8e:	f015 0501 	ands.w	r5, r5, #1
  403e92:	61a6      	str	r6, [r4, #24]
  403e94:	60a3      	str	r3, [r4, #8]
  403e96:	d009      	beq.n	403eac <setvbuf+0x148>
  403e98:	2500      	movs	r5, #0
  403e9a:	4628      	mov	r0, r5
  403e9c:	b003      	add	sp, #12
  403e9e:	e8bd 83f0 	ldmia.w	sp!, {r4, r5, r6, r7, r8, r9, pc}
  403ea2:	60a3      	str	r3, [r4, #8]
  403ea4:	6e65      	ldr	r5, [r4, #100]	; 0x64
  403ea6:	f015 0501 	ands.w	r5, r5, #1
  403eaa:	d1f5      	bne.n	403e98 <setvbuf+0x134>
  403eac:	0593      	lsls	r3, r2, #22
  403eae:	d4c0      	bmi.n	403e32 <setvbuf+0xce>
  403eb0:	6da0      	ldr	r0, [r4, #88]	; 0x58
  403eb2:	f001 fc17 	bl	4056e4 <__retarget_lock_release_recursive>
  403eb6:	4628      	mov	r0, r5
  403eb8:	b003      	add	sp, #12
  403eba:	e8bd 83f0 	ldmia.w	sp!, {r4, r5, r6, r7, r8, r9, pc}
  403ebe:	60a6      	str	r6, [r4, #8]
  403ec0:	e7f0      	b.n	403ea4 <setvbuf+0x140>
  403ec2:	4628      	mov	r0, r5
  403ec4:	f001 f84c 	bl	404f60 <__sinit>
  403ec8:	e7c7      	b.n	403e5a <setvbuf+0xf6>
  403eca:	f04f 35ff 	mov.w	r5, #4294967295
  403ece:	e7b0      	b.n	403e32 <setvbuf+0xce>
  403ed0:	f8dd 9000 	ldr.w	r9, [sp]
  403ed4:	45b1      	cmp	r9, r6
  403ed6:	d004      	beq.n	403ee2 <setvbuf+0x17e>
  403ed8:	4648      	mov	r0, r9
  403eda:	f001 fc7d 	bl	4057d8 <malloc>
  403ede:	4607      	mov	r7, r0
  403ee0:	b920      	cbnz	r0, 403eec <setvbuf+0x188>
  403ee2:	f9b4 300c 	ldrsh.w	r3, [r4, #12]
  403ee6:	f04f 35ff 	mov.w	r5, #4294967295
  403eea:	e792      	b.n	403e12 <setvbuf+0xae>
  403eec:	464e      	mov	r6, r9
  403eee:	e783      	b.n	403df8 <setvbuf+0x94>
  403ef0:	20000098 	.word	0x20000098

00403ef4 <__sprint_r.part.0>:
  403ef4:	e92d 4ff8 	stmdb	sp!, {r3, r4, r5, r6, r7, r8, r9, sl, fp, lr}
  403ef8:	6e4b      	ldr	r3, [r1, #100]	; 0x64
  403efa:	049c      	lsls	r4, r3, #18
  403efc:	4693      	mov	fp, r2
  403efe:	d52f      	bpl.n	403f60 <__sprint_r.part.0+0x6c>
  403f00:	6893      	ldr	r3, [r2, #8]
  403f02:	6812      	ldr	r2, [r2, #0]
  403f04:	b353      	cbz	r3, 403f5c <__sprint_r.part.0+0x68>
  403f06:	460e      	mov	r6, r1
  403f08:	4607      	mov	r7, r0
  403f0a:	f102 0908 	add.w	r9, r2, #8
  403f0e:	e919 0420 	ldmdb	r9, {r5, sl}
  403f12:	ea5f 089a 	movs.w	r8, sl, lsr #2
  403f16:	d017      	beq.n	403f48 <__sprint_r.part.0+0x54>
  403f18:	3d04      	subs	r5, #4
  403f1a:	2400      	movs	r4, #0
  403f1c:	e001      	b.n	403f22 <__sprint_r.part.0+0x2e>
  403f1e:	45a0      	cmp	r8, r4
  403f20:	d010      	beq.n	403f44 <__sprint_r.part.0+0x50>
  403f22:	4632      	mov	r2, r6
  403f24:	f855 1f04 	ldr.w	r1, [r5, #4]!
  403f28:	4638      	mov	r0, r7
  403f2a:	f001 f8bb 	bl	4050a4 <_fputwc_r>
  403f2e:	1c43      	adds	r3, r0, #1
  403f30:	f104 0401 	add.w	r4, r4, #1
  403f34:	d1f3      	bne.n	403f1e <__sprint_r.part.0+0x2a>
  403f36:	2300      	movs	r3, #0
  403f38:	f8cb 3008 	str.w	r3, [fp, #8]
  403f3c:	f8cb 3004 	str.w	r3, [fp, #4]
  403f40:	e8bd 8ff8 	ldmia.w	sp!, {r3, r4, r5, r6, r7, r8, r9, sl, fp, pc}
  403f44:	f8db 3008 	ldr.w	r3, [fp, #8]
  403f48:	f02a 0a03 	bic.w	sl, sl, #3
  403f4c:	eba3 030a 	sub.w	r3, r3, sl
  403f50:	f8cb 3008 	str.w	r3, [fp, #8]
  403f54:	f109 0908 	add.w	r9, r9, #8
  403f58:	2b00      	cmp	r3, #0
  403f5a:	d1d8      	bne.n	403f0e <__sprint_r.part.0+0x1a>
  403f5c:	2000      	movs	r0, #0
  403f5e:	e7ea      	b.n	403f36 <__sprint_r.part.0+0x42>
  403f60:	f001 fa0a 	bl	405378 <__sfvwrite_r>
  403f64:	2300      	movs	r3, #0
  403f66:	f8cb 3008 	str.w	r3, [fp, #8]
  403f6a:	f8cb 3004 	str.w	r3, [fp, #4]
  403f6e:	e8bd 8ff8 	ldmia.w	sp!, {r3, r4, r5, r6, r7, r8, r9, sl, fp, pc}
  403f72:	bf00      	nop

00403f74 <_vfiprintf_r>:
  403f74:	e92d 4ff0 	stmdb	sp!, {r4, r5, r6, r7, r8, r9, sl, fp, lr}
  403f78:	b0ad      	sub	sp, #180	; 0xb4
  403f7a:	461d      	mov	r5, r3
  403f7c:	468b      	mov	fp, r1
  403f7e:	4690      	mov	r8, r2
  403f80:	9307      	str	r3, [sp, #28]
  403f82:	9006      	str	r0, [sp, #24]
  403f84:	b118      	cbz	r0, 403f8e <_vfiprintf_r+0x1a>
  403f86:	6b83      	ldr	r3, [r0, #56]	; 0x38
  403f88:	2b00      	cmp	r3, #0
  403f8a:	f000 80f3 	beq.w	404174 <_vfiprintf_r+0x200>
  403f8e:	f8db 3064 	ldr.w	r3, [fp, #100]	; 0x64
  403f92:	f9bb 000c 	ldrsh.w	r0, [fp, #12]
  403f96:	07df      	lsls	r7, r3, #31
  403f98:	b281      	uxth	r1, r0
  403f9a:	d402      	bmi.n	403fa2 <_vfiprintf_r+0x2e>
  403f9c:	058e      	lsls	r6, r1, #22
  403f9e:	f140 80fc 	bpl.w	40419a <_vfiprintf_r+0x226>
  403fa2:	048c      	lsls	r4, r1, #18
  403fa4:	d40a      	bmi.n	403fbc <_vfiprintf_r+0x48>
  403fa6:	f8db 3064 	ldr.w	r3, [fp, #100]	; 0x64
  403faa:	f440 5100 	orr.w	r1, r0, #8192	; 0x2000
  403fae:	f423 5300 	bic.w	r3, r3, #8192	; 0x2000
  403fb2:	f8ab 100c 	strh.w	r1, [fp, #12]
  403fb6:	f8cb 3064 	str.w	r3, [fp, #100]	; 0x64
  403fba:	b289      	uxth	r1, r1
  403fbc:	0708      	lsls	r0, r1, #28
  403fbe:	f140 80b3 	bpl.w	404128 <_vfiprintf_r+0x1b4>
  403fc2:	f8db 3010 	ldr.w	r3, [fp, #16]
  403fc6:	2b00      	cmp	r3, #0
  403fc8:	f000 80ae 	beq.w	404128 <_vfiprintf_r+0x1b4>
  403fcc:	f001 031a 	and.w	r3, r1, #26
  403fd0:	2b0a      	cmp	r3, #10
  403fd2:	f000 80b5 	beq.w	404140 <_vfiprintf_r+0x1cc>
  403fd6:	2300      	movs	r3, #0
  403fd8:	f10d 0970 	add.w	r9, sp, #112	; 0x70
  403fdc:	930b      	str	r3, [sp, #44]	; 0x2c
  403fde:	9311      	str	r3, [sp, #68]	; 0x44
  403fe0:	9310      	str	r3, [sp, #64]	; 0x40
  403fe2:	9303      	str	r3, [sp, #12]
  403fe4:	f8cd 903c 	str.w	r9, [sp, #60]	; 0x3c
  403fe8:	46ca      	mov	sl, r9
  403fea:	f8cd b010 	str.w	fp, [sp, #16]
  403fee:	f898 3000 	ldrb.w	r3, [r8]
  403ff2:	4644      	mov	r4, r8
  403ff4:	b1fb      	cbz	r3, 404036 <_vfiprintf_r+0xc2>
  403ff6:	2b25      	cmp	r3, #37	; 0x25
  403ff8:	d102      	bne.n	404000 <_vfiprintf_r+0x8c>
  403ffa:	e01c      	b.n	404036 <_vfiprintf_r+0xc2>
  403ffc:	2b25      	cmp	r3, #37	; 0x25
  403ffe:	d003      	beq.n	404008 <_vfiprintf_r+0x94>
  404000:	f814 3f01 	ldrb.w	r3, [r4, #1]!
  404004:	2b00      	cmp	r3, #0
  404006:	d1f9      	bne.n	403ffc <_vfiprintf_r+0x88>
  404008:	eba4 0508 	sub.w	r5, r4, r8
  40400c:	b19d      	cbz	r5, 404036 <_vfiprintf_r+0xc2>
  40400e:	9b10      	ldr	r3, [sp, #64]	; 0x40
  404010:	9a11      	ldr	r2, [sp, #68]	; 0x44
  404012:	f8ca 8000 	str.w	r8, [sl]
  404016:	3301      	adds	r3, #1
  404018:	442a      	add	r2, r5
  40401a:	2b07      	cmp	r3, #7
  40401c:	f8ca 5004 	str.w	r5, [sl, #4]
  404020:	9211      	str	r2, [sp, #68]	; 0x44
  404022:	9310      	str	r3, [sp, #64]	; 0x40
  404024:	dd7a      	ble.n	40411c <_vfiprintf_r+0x1a8>
  404026:	2a00      	cmp	r2, #0
  404028:	f040 84b0 	bne.w	40498c <_vfiprintf_r+0xa18>
  40402c:	9b03      	ldr	r3, [sp, #12]
  40402e:	9210      	str	r2, [sp, #64]	; 0x40
  404030:	442b      	add	r3, r5
  404032:	46ca      	mov	sl, r9
  404034:	9303      	str	r3, [sp, #12]
  404036:	7823      	ldrb	r3, [r4, #0]
  404038:	2b00      	cmp	r3, #0
  40403a:	f000 83e0 	beq.w	4047fe <_vfiprintf_r+0x88a>
  40403e:	2000      	movs	r0, #0
  404040:	f04f 0300 	mov.w	r3, #0
  404044:	f88d 3037 	strb.w	r3, [sp, #55]	; 0x37
  404048:	f104 0801 	add.w	r8, r4, #1
  40404c:	7862      	ldrb	r2, [r4, #1]
  40404e:	4605      	mov	r5, r0
  404050:	4606      	mov	r6, r0
  404052:	4603      	mov	r3, r0
  404054:	f04f 34ff 	mov.w	r4, #4294967295
  404058:	f108 0801 	add.w	r8, r8, #1
  40405c:	f1a2 0120 	sub.w	r1, r2, #32
  404060:	2958      	cmp	r1, #88	; 0x58
  404062:	f200 82de 	bhi.w	404622 <_vfiprintf_r+0x6ae>
  404066:	e8df f011 	tbh	[pc, r1, lsl #1]
  40406a:	0221      	.short	0x0221
  40406c:	02dc02dc 	.word	0x02dc02dc
  404070:	02dc0229 	.word	0x02dc0229
  404074:	02dc02dc 	.word	0x02dc02dc
  404078:	02dc02dc 	.word	0x02dc02dc
  40407c:	028902dc 	.word	0x028902dc
  404080:	02dc0295 	.word	0x02dc0295
  404084:	02bd00a2 	.word	0x02bd00a2
  404088:	019f02dc 	.word	0x019f02dc
  40408c:	01a401a4 	.word	0x01a401a4
  404090:	01a401a4 	.word	0x01a401a4
  404094:	01a401a4 	.word	0x01a401a4
  404098:	01a401a4 	.word	0x01a401a4
  40409c:	02dc01a4 	.word	0x02dc01a4
  4040a0:	02dc02dc 	.word	0x02dc02dc
  4040a4:	02dc02dc 	.word	0x02dc02dc
  4040a8:	02dc02dc 	.word	0x02dc02dc
  4040ac:	02dc02dc 	.word	0x02dc02dc
  4040b0:	01b202dc 	.word	0x01b202dc
  4040b4:	02dc02dc 	.word	0x02dc02dc
  4040b8:	02dc02dc 	.word	0x02dc02dc
  4040bc:	02dc02dc 	.word	0x02dc02dc
  4040c0:	02dc02dc 	.word	0x02dc02dc
  4040c4:	02dc02dc 	.word	0x02dc02dc
  4040c8:	02dc0197 	.word	0x02dc0197
  4040cc:	02dc02dc 	.word	0x02dc02dc
  4040d0:	02dc02dc 	.word	0x02dc02dc
  4040d4:	02dc019b 	.word	0x02dc019b
  4040d8:	025302dc 	.word	0x025302dc
  4040dc:	02dc02dc 	.word	0x02dc02dc
  4040e0:	02dc02dc 	.word	0x02dc02dc
  4040e4:	02dc02dc 	.word	0x02dc02dc
  4040e8:	02dc02dc 	.word	0x02dc02dc
  4040ec:	02dc02dc 	.word	0x02dc02dc
  4040f0:	021b025a 	.word	0x021b025a
  4040f4:	02dc02dc 	.word	0x02dc02dc
  4040f8:	026e02dc 	.word	0x026e02dc
  4040fc:	02dc021b 	.word	0x02dc021b
  404100:	027302dc 	.word	0x027302dc
  404104:	01f502dc 	.word	0x01f502dc
  404108:	02090182 	.word	0x02090182
  40410c:	02dc02d7 	.word	0x02dc02d7
  404110:	02dc029a 	.word	0x02dc029a
  404114:	02dc00a7 	.word	0x02dc00a7
  404118:	022e02dc 	.word	0x022e02dc
  40411c:	f10a 0a08 	add.w	sl, sl, #8
  404120:	9b03      	ldr	r3, [sp, #12]
  404122:	442b      	add	r3, r5
  404124:	9303      	str	r3, [sp, #12]
  404126:	e786      	b.n	404036 <_vfiprintf_r+0xc2>
  404128:	4659      	mov	r1, fp
  40412a:	9806      	ldr	r0, [sp, #24]
  40412c:	f000 fdac 	bl	404c88 <__swsetup_r>
  404130:	bb18      	cbnz	r0, 40417a <_vfiprintf_r+0x206>
  404132:	f8bb 100c 	ldrh.w	r1, [fp, #12]
  404136:	f001 031a 	and.w	r3, r1, #26
  40413a:	2b0a      	cmp	r3, #10
  40413c:	f47f af4b 	bne.w	403fd6 <_vfiprintf_r+0x62>
  404140:	f9bb 300e 	ldrsh.w	r3, [fp, #14]
  404144:	2b00      	cmp	r3, #0
  404146:	f6ff af46 	blt.w	403fd6 <_vfiprintf_r+0x62>
  40414a:	f8db 3064 	ldr.w	r3, [fp, #100]	; 0x64
  40414e:	07db      	lsls	r3, r3, #31
  404150:	d405      	bmi.n	40415e <_vfiprintf_r+0x1ea>
  404152:	058f      	lsls	r7, r1, #22
  404154:	d403      	bmi.n	40415e <_vfiprintf_r+0x1ea>
  404156:	f8db 0058 	ldr.w	r0, [fp, #88]	; 0x58
  40415a:	f001 fac3 	bl	4056e4 <__retarget_lock_release_recursive>
  40415e:	462b      	mov	r3, r5
  404160:	4642      	mov	r2, r8
  404162:	4659      	mov	r1, fp
  404164:	9806      	ldr	r0, [sp, #24]
  404166:	f000 fd4d 	bl	404c04 <__sbprintf>
  40416a:	9003      	str	r0, [sp, #12]
  40416c:	9803      	ldr	r0, [sp, #12]
  40416e:	b02d      	add	sp, #180	; 0xb4
  404170:	e8bd 8ff0 	ldmia.w	sp!, {r4, r5, r6, r7, r8, r9, sl, fp, pc}
  404174:	f000 fef4 	bl	404f60 <__sinit>
  404178:	e709      	b.n	403f8e <_vfiprintf_r+0x1a>
  40417a:	f8db 3064 	ldr.w	r3, [fp, #100]	; 0x64
  40417e:	07d9      	lsls	r1, r3, #31
  404180:	d404      	bmi.n	40418c <_vfiprintf_r+0x218>
  404182:	f8bb 300c 	ldrh.w	r3, [fp, #12]
  404186:	059a      	lsls	r2, r3, #22
  404188:	f140 84aa 	bpl.w	404ae0 <_vfiprintf_r+0xb6c>
  40418c:	f04f 33ff 	mov.w	r3, #4294967295
  404190:	9303      	str	r3, [sp, #12]
  404192:	9803      	ldr	r0, [sp, #12]
  404194:	b02d      	add	sp, #180	; 0xb4
  404196:	e8bd 8ff0 	ldmia.w	sp!, {r4, r5, r6, r7, r8, r9, sl, fp, pc}
  40419a:	f8db 0058 	ldr.w	r0, [fp, #88]	; 0x58
  40419e:	f001 fa9f 	bl	4056e0 <__retarget_lock_acquire_recursive>
  4041a2:	f9bb 000c 	ldrsh.w	r0, [fp, #12]
  4041a6:	b281      	uxth	r1, r0
  4041a8:	e6fb      	b.n	403fa2 <_vfiprintf_r+0x2e>
  4041aa:	4276      	negs	r6, r6
  4041ac:	9207      	str	r2, [sp, #28]
  4041ae:	f043 0304 	orr.w	r3, r3, #4
  4041b2:	f898 2000 	ldrb.w	r2, [r8]
  4041b6:	e74f      	b.n	404058 <_vfiprintf_r+0xe4>
  4041b8:	9608      	str	r6, [sp, #32]
  4041ba:	069e      	lsls	r6, r3, #26
  4041bc:	f100 8450 	bmi.w	404a60 <_vfiprintf_r+0xaec>
  4041c0:	9907      	ldr	r1, [sp, #28]
  4041c2:	06dd      	lsls	r5, r3, #27
  4041c4:	460a      	mov	r2, r1
  4041c6:	f100 83ef 	bmi.w	4049a8 <_vfiprintf_r+0xa34>
  4041ca:	0658      	lsls	r0, r3, #25
  4041cc:	f140 83ec 	bpl.w	4049a8 <_vfiprintf_r+0xa34>
  4041d0:	880e      	ldrh	r6, [r1, #0]
  4041d2:	3104      	adds	r1, #4
  4041d4:	2700      	movs	r7, #0
  4041d6:	2201      	movs	r2, #1
  4041d8:	9107      	str	r1, [sp, #28]
  4041da:	f04f 0100 	mov.w	r1, #0
  4041de:	f88d 1037 	strb.w	r1, [sp, #55]	; 0x37
  4041e2:	2500      	movs	r5, #0
  4041e4:	1c61      	adds	r1, r4, #1
  4041e6:	f000 8116 	beq.w	404416 <_vfiprintf_r+0x4a2>
  4041ea:	f023 0180 	bic.w	r1, r3, #128	; 0x80
  4041ee:	9102      	str	r1, [sp, #8]
  4041f0:	ea56 0107 	orrs.w	r1, r6, r7
  4041f4:	f040 8114 	bne.w	404420 <_vfiprintf_r+0x4ac>
  4041f8:	2c00      	cmp	r4, #0
  4041fa:	f040 835c 	bne.w	4048b6 <_vfiprintf_r+0x942>
  4041fe:	2a00      	cmp	r2, #0
  404200:	f040 83b7 	bne.w	404972 <_vfiprintf_r+0x9fe>
  404204:	f013 0301 	ands.w	r3, r3, #1
  404208:	9305      	str	r3, [sp, #20]
  40420a:	f000 8457 	beq.w	404abc <_vfiprintf_r+0xb48>
  40420e:	f10d 0bb0 	add.w	fp, sp, #176	; 0xb0
  404212:	2330      	movs	r3, #48	; 0x30
  404214:	f80b 3d41 	strb.w	r3, [fp, #-65]!
  404218:	9b05      	ldr	r3, [sp, #20]
  40421a:	42a3      	cmp	r3, r4
  40421c:	bfb8      	it	lt
  40421e:	4623      	movlt	r3, r4
  404220:	9301      	str	r3, [sp, #4]
  404222:	b10d      	cbz	r5, 404228 <_vfiprintf_r+0x2b4>
  404224:	3301      	adds	r3, #1
  404226:	9301      	str	r3, [sp, #4]
  404228:	9b02      	ldr	r3, [sp, #8]
  40422a:	f013 0302 	ands.w	r3, r3, #2
  40422e:	9309      	str	r3, [sp, #36]	; 0x24
  404230:	d002      	beq.n	404238 <_vfiprintf_r+0x2c4>
  404232:	9b01      	ldr	r3, [sp, #4]
  404234:	3302      	adds	r3, #2
  404236:	9301      	str	r3, [sp, #4]
  404238:	9b02      	ldr	r3, [sp, #8]
  40423a:	f013 0384 	ands.w	r3, r3, #132	; 0x84
  40423e:	930a      	str	r3, [sp, #40]	; 0x28
  404240:	f040 8217 	bne.w	404672 <_vfiprintf_r+0x6fe>
  404244:	9b08      	ldr	r3, [sp, #32]
  404246:	9a01      	ldr	r2, [sp, #4]
  404248:	1a9d      	subs	r5, r3, r2
  40424a:	2d00      	cmp	r5, #0
  40424c:	f340 8211 	ble.w	404672 <_vfiprintf_r+0x6fe>
  404250:	2d10      	cmp	r5, #16
  404252:	f340 8490 	ble.w	404b76 <_vfiprintf_r+0xc02>
  404256:	9b10      	ldr	r3, [sp, #64]	; 0x40
  404258:	9a11      	ldr	r2, [sp, #68]	; 0x44
  40425a:	4ec4      	ldr	r6, [pc, #784]	; (40456c <_vfiprintf_r+0x5f8>)
  40425c:	46d6      	mov	lr, sl
  40425e:	2710      	movs	r7, #16
  404260:	46a2      	mov	sl, r4
  404262:	4619      	mov	r1, r3
  404264:	9c06      	ldr	r4, [sp, #24]
  404266:	e007      	b.n	404278 <_vfiprintf_r+0x304>
  404268:	f101 0c02 	add.w	ip, r1, #2
  40426c:	f10e 0e08 	add.w	lr, lr, #8
  404270:	4601      	mov	r1, r0
  404272:	3d10      	subs	r5, #16
  404274:	2d10      	cmp	r5, #16
  404276:	dd11      	ble.n	40429c <_vfiprintf_r+0x328>
  404278:	1c48      	adds	r0, r1, #1
  40427a:	3210      	adds	r2, #16
  40427c:	2807      	cmp	r0, #7
  40427e:	9211      	str	r2, [sp, #68]	; 0x44
  404280:	e88e 00c0 	stmia.w	lr, {r6, r7}
  404284:	9010      	str	r0, [sp, #64]	; 0x40
  404286:	ddef      	ble.n	404268 <_vfiprintf_r+0x2f4>
  404288:	2a00      	cmp	r2, #0
  40428a:	f040 81e4 	bne.w	404656 <_vfiprintf_r+0x6e2>
  40428e:	3d10      	subs	r5, #16
  404290:	2d10      	cmp	r5, #16
  404292:	4611      	mov	r1, r2
  404294:	f04f 0c01 	mov.w	ip, #1
  404298:	46ce      	mov	lr, r9
  40429a:	dced      	bgt.n	404278 <_vfiprintf_r+0x304>
  40429c:	4654      	mov	r4, sl
  40429e:	4661      	mov	r1, ip
  4042a0:	46f2      	mov	sl, lr
  4042a2:	442a      	add	r2, r5
  4042a4:	2907      	cmp	r1, #7
  4042a6:	9211      	str	r2, [sp, #68]	; 0x44
  4042a8:	f8ca 6000 	str.w	r6, [sl]
  4042ac:	f8ca 5004 	str.w	r5, [sl, #4]
  4042b0:	9110      	str	r1, [sp, #64]	; 0x40
  4042b2:	f300 82ec 	bgt.w	40488e <_vfiprintf_r+0x91a>
  4042b6:	f89d 5037 	ldrb.w	r5, [sp, #55]	; 0x37
  4042ba:	f10a 0a08 	add.w	sl, sl, #8
  4042be:	1c48      	adds	r0, r1, #1
  4042c0:	2d00      	cmp	r5, #0
  4042c2:	f040 81de 	bne.w	404682 <_vfiprintf_r+0x70e>
  4042c6:	9b09      	ldr	r3, [sp, #36]	; 0x24
  4042c8:	2b00      	cmp	r3, #0
  4042ca:	f000 81f8 	beq.w	4046be <_vfiprintf_r+0x74a>
  4042ce:	3202      	adds	r2, #2
  4042d0:	a90e      	add	r1, sp, #56	; 0x38
  4042d2:	2302      	movs	r3, #2
  4042d4:	2807      	cmp	r0, #7
  4042d6:	9211      	str	r2, [sp, #68]	; 0x44
  4042d8:	9010      	str	r0, [sp, #64]	; 0x40
  4042da:	e88a 000a 	stmia.w	sl, {r1, r3}
  4042de:	f340 81ea 	ble.w	4046b6 <_vfiprintf_r+0x742>
  4042e2:	2a00      	cmp	r2, #0
  4042e4:	f040 838c 	bne.w	404a00 <_vfiprintf_r+0xa8c>
  4042e8:	9b0a      	ldr	r3, [sp, #40]	; 0x28
  4042ea:	2b80      	cmp	r3, #128	; 0x80
  4042ec:	f04f 0001 	mov.w	r0, #1
  4042f0:	4611      	mov	r1, r2
  4042f2:	46ca      	mov	sl, r9
  4042f4:	f040 81e7 	bne.w	4046c6 <_vfiprintf_r+0x752>
  4042f8:	9b08      	ldr	r3, [sp, #32]
  4042fa:	9d01      	ldr	r5, [sp, #4]
  4042fc:	1b5e      	subs	r6, r3, r5
  4042fe:	2e00      	cmp	r6, #0
  404300:	f340 81e1 	ble.w	4046c6 <_vfiprintf_r+0x752>
  404304:	2e10      	cmp	r6, #16
  404306:	4d9a      	ldr	r5, [pc, #616]	; (404570 <_vfiprintf_r+0x5fc>)
  404308:	f340 8450 	ble.w	404bac <_vfiprintf_r+0xc38>
  40430c:	46d4      	mov	ip, sl
  40430e:	2710      	movs	r7, #16
  404310:	46a2      	mov	sl, r4
  404312:	9c06      	ldr	r4, [sp, #24]
  404314:	e007      	b.n	404326 <_vfiprintf_r+0x3b2>
  404316:	f101 0e02 	add.w	lr, r1, #2
  40431a:	f10c 0c08 	add.w	ip, ip, #8
  40431e:	4601      	mov	r1, r0
  404320:	3e10      	subs	r6, #16
  404322:	2e10      	cmp	r6, #16
  404324:	dd11      	ble.n	40434a <_vfiprintf_r+0x3d6>
  404326:	1c48      	adds	r0, r1, #1
  404328:	3210      	adds	r2, #16
  40432a:	2807      	cmp	r0, #7
  40432c:	9211      	str	r2, [sp, #68]	; 0x44
  40432e:	e88c 00a0 	stmia.w	ip, {r5, r7}
  404332:	9010      	str	r0, [sp, #64]	; 0x40
  404334:	ddef      	ble.n	404316 <_vfiprintf_r+0x3a2>
  404336:	2a00      	cmp	r2, #0
  404338:	f040 829d 	bne.w	404876 <_vfiprintf_r+0x902>
  40433c:	3e10      	subs	r6, #16
  40433e:	2e10      	cmp	r6, #16
  404340:	f04f 0e01 	mov.w	lr, #1
  404344:	4611      	mov	r1, r2
  404346:	46cc      	mov	ip, r9
  404348:	dced      	bgt.n	404326 <_vfiprintf_r+0x3b2>
  40434a:	4654      	mov	r4, sl
  40434c:	46e2      	mov	sl, ip
  40434e:	4432      	add	r2, r6
  404350:	f1be 0f07 	cmp.w	lr, #7
  404354:	9211      	str	r2, [sp, #68]	; 0x44
  404356:	e88a 0060 	stmia.w	sl, {r5, r6}
  40435a:	f8cd e040 	str.w	lr, [sp, #64]	; 0x40
  40435e:	f300 8369 	bgt.w	404a34 <_vfiprintf_r+0xac0>
  404362:	f10a 0a08 	add.w	sl, sl, #8
  404366:	f10e 0001 	add.w	r0, lr, #1
  40436a:	4671      	mov	r1, lr
  40436c:	e1ab      	b.n	4046c6 <_vfiprintf_r+0x752>
  40436e:	9608      	str	r6, [sp, #32]
  404370:	f013 0220 	ands.w	r2, r3, #32
  404374:	f040 838c 	bne.w	404a90 <_vfiprintf_r+0xb1c>
  404378:	f013 0110 	ands.w	r1, r3, #16
  40437c:	f040 831a 	bne.w	4049b4 <_vfiprintf_r+0xa40>
  404380:	f013 0240 	ands.w	r2, r3, #64	; 0x40
  404384:	f000 8316 	beq.w	4049b4 <_vfiprintf_r+0xa40>
  404388:	9807      	ldr	r0, [sp, #28]
  40438a:	460a      	mov	r2, r1
  40438c:	4601      	mov	r1, r0
  40438e:	3104      	adds	r1, #4
  404390:	8806      	ldrh	r6, [r0, #0]
  404392:	9107      	str	r1, [sp, #28]
  404394:	2700      	movs	r7, #0
  404396:	e720      	b.n	4041da <_vfiprintf_r+0x266>
  404398:	9608      	str	r6, [sp, #32]
  40439a:	f043 0310 	orr.w	r3, r3, #16
  40439e:	e7e7      	b.n	404370 <_vfiprintf_r+0x3fc>
  4043a0:	9608      	str	r6, [sp, #32]
  4043a2:	f043 0310 	orr.w	r3, r3, #16
  4043a6:	e708      	b.n	4041ba <_vfiprintf_r+0x246>
  4043a8:	f043 0380 	orr.w	r3, r3, #128	; 0x80
  4043ac:	f898 2000 	ldrb.w	r2, [r8]
  4043b0:	e652      	b.n	404058 <_vfiprintf_r+0xe4>
  4043b2:	f1a2 0130 	sub.w	r1, r2, #48	; 0x30
  4043b6:	2600      	movs	r6, #0
  4043b8:	f818 2b01 	ldrb.w	r2, [r8], #1
  4043bc:	eb06 0686 	add.w	r6, r6, r6, lsl #2
  4043c0:	eb01 0646 	add.w	r6, r1, r6, lsl #1
  4043c4:	f1a2 0130 	sub.w	r1, r2, #48	; 0x30
  4043c8:	2909      	cmp	r1, #9
  4043ca:	d9f5      	bls.n	4043b8 <_vfiprintf_r+0x444>
  4043cc:	e646      	b.n	40405c <_vfiprintf_r+0xe8>
  4043ce:	9608      	str	r6, [sp, #32]
  4043d0:	2800      	cmp	r0, #0
  4043d2:	f040 8408 	bne.w	404be6 <_vfiprintf_r+0xc72>
  4043d6:	f043 0310 	orr.w	r3, r3, #16
  4043da:	069e      	lsls	r6, r3, #26
  4043dc:	f100 834c 	bmi.w	404a78 <_vfiprintf_r+0xb04>
  4043e0:	06dd      	lsls	r5, r3, #27
  4043e2:	f100 82f3 	bmi.w	4049cc <_vfiprintf_r+0xa58>
  4043e6:	0658      	lsls	r0, r3, #25
  4043e8:	f140 82f0 	bpl.w	4049cc <_vfiprintf_r+0xa58>
  4043ec:	9d07      	ldr	r5, [sp, #28]
  4043ee:	f9b5 6000 	ldrsh.w	r6, [r5]
  4043f2:	462a      	mov	r2, r5
  4043f4:	17f7      	asrs	r7, r6, #31
  4043f6:	3204      	adds	r2, #4
  4043f8:	4630      	mov	r0, r6
  4043fa:	4639      	mov	r1, r7
  4043fc:	9207      	str	r2, [sp, #28]
  4043fe:	2800      	cmp	r0, #0
  404400:	f171 0200 	sbcs.w	r2, r1, #0
  404404:	f2c0 835d 	blt.w	404ac2 <_vfiprintf_r+0xb4e>
  404408:	1c61      	adds	r1, r4, #1
  40440a:	f89d 5037 	ldrb.w	r5, [sp, #55]	; 0x37
  40440e:	f04f 0201 	mov.w	r2, #1
  404412:	f47f aeea 	bne.w	4041ea <_vfiprintf_r+0x276>
  404416:	ea56 0107 	orrs.w	r1, r6, r7
  40441a:	f000 824d 	beq.w	4048b8 <_vfiprintf_r+0x944>
  40441e:	9302      	str	r3, [sp, #8]
  404420:	2a01      	cmp	r2, #1
  404422:	f000 828c 	beq.w	40493e <_vfiprintf_r+0x9ca>
  404426:	2a02      	cmp	r2, #2
  404428:	f040 825c 	bne.w	4048e4 <_vfiprintf_r+0x970>
  40442c:	980b      	ldr	r0, [sp, #44]	; 0x2c
  40442e:	46cb      	mov	fp, r9
  404430:	0933      	lsrs	r3, r6, #4
  404432:	f006 010f 	and.w	r1, r6, #15
  404436:	ea43 7307 	orr.w	r3, r3, r7, lsl #28
  40443a:	093a      	lsrs	r2, r7, #4
  40443c:	461e      	mov	r6, r3
  40443e:	4617      	mov	r7, r2
  404440:	5c43      	ldrb	r3, [r0, r1]
  404442:	f80b 3d01 	strb.w	r3, [fp, #-1]!
  404446:	ea56 0307 	orrs.w	r3, r6, r7
  40444a:	d1f1      	bne.n	404430 <_vfiprintf_r+0x4bc>
  40444c:	eba9 030b 	sub.w	r3, r9, fp
  404450:	9305      	str	r3, [sp, #20]
  404452:	e6e1      	b.n	404218 <_vfiprintf_r+0x2a4>
  404454:	2800      	cmp	r0, #0
  404456:	f040 83c0 	bne.w	404bda <_vfiprintf_r+0xc66>
  40445a:	0699      	lsls	r1, r3, #26
  40445c:	f100 8367 	bmi.w	404b2e <_vfiprintf_r+0xbba>
  404460:	06da      	lsls	r2, r3, #27
  404462:	f100 80f1 	bmi.w	404648 <_vfiprintf_r+0x6d4>
  404466:	065b      	lsls	r3, r3, #25
  404468:	f140 80ee 	bpl.w	404648 <_vfiprintf_r+0x6d4>
  40446c:	9a07      	ldr	r2, [sp, #28]
  40446e:	6813      	ldr	r3, [r2, #0]
  404470:	3204      	adds	r2, #4
  404472:	9207      	str	r2, [sp, #28]
  404474:	f8bd 200c 	ldrh.w	r2, [sp, #12]
  404478:	801a      	strh	r2, [r3, #0]
  40447a:	e5b8      	b.n	403fee <_vfiprintf_r+0x7a>
  40447c:	9807      	ldr	r0, [sp, #28]
  40447e:	4a3d      	ldr	r2, [pc, #244]	; (404574 <_vfiprintf_r+0x600>)
  404480:	9608      	str	r6, [sp, #32]
  404482:	920b      	str	r2, [sp, #44]	; 0x2c
  404484:	6806      	ldr	r6, [r0, #0]
  404486:	2278      	movs	r2, #120	; 0x78
  404488:	2130      	movs	r1, #48	; 0x30
  40448a:	3004      	adds	r0, #4
  40448c:	f88d 2039 	strb.w	r2, [sp, #57]	; 0x39
  404490:	f043 0302 	orr.w	r3, r3, #2
  404494:	9007      	str	r0, [sp, #28]
  404496:	2700      	movs	r7, #0
  404498:	f88d 1038 	strb.w	r1, [sp, #56]	; 0x38
  40449c:	2202      	movs	r2, #2
  40449e:	e69c      	b.n	4041da <_vfiprintf_r+0x266>
  4044a0:	9608      	str	r6, [sp, #32]
  4044a2:	2800      	cmp	r0, #0
  4044a4:	d099      	beq.n	4043da <_vfiprintf_r+0x466>
  4044a6:	f88d 5037 	strb.w	r5, [sp, #55]	; 0x37
  4044aa:	e796      	b.n	4043da <_vfiprintf_r+0x466>
  4044ac:	f898 2000 	ldrb.w	r2, [r8]
  4044b0:	2d00      	cmp	r5, #0
  4044b2:	f47f add1 	bne.w	404058 <_vfiprintf_r+0xe4>
  4044b6:	2001      	movs	r0, #1
  4044b8:	2520      	movs	r5, #32
  4044ba:	e5cd      	b.n	404058 <_vfiprintf_r+0xe4>
  4044bc:	f043 0301 	orr.w	r3, r3, #1
  4044c0:	f898 2000 	ldrb.w	r2, [r8]
  4044c4:	e5c8      	b.n	404058 <_vfiprintf_r+0xe4>
  4044c6:	9608      	str	r6, [sp, #32]
  4044c8:	2800      	cmp	r0, #0
  4044ca:	f040 8393 	bne.w	404bf4 <_vfiprintf_r+0xc80>
  4044ce:	4929      	ldr	r1, [pc, #164]	; (404574 <_vfiprintf_r+0x600>)
  4044d0:	910b      	str	r1, [sp, #44]	; 0x2c
  4044d2:	069f      	lsls	r7, r3, #26
  4044d4:	f100 82e8 	bmi.w	404aa8 <_vfiprintf_r+0xb34>
  4044d8:	9807      	ldr	r0, [sp, #28]
  4044da:	06de      	lsls	r6, r3, #27
  4044dc:	4601      	mov	r1, r0
  4044de:	f100 8270 	bmi.w	4049c2 <_vfiprintf_r+0xa4e>
  4044e2:	065d      	lsls	r5, r3, #25
  4044e4:	f140 826d 	bpl.w	4049c2 <_vfiprintf_r+0xa4e>
  4044e8:	3104      	adds	r1, #4
  4044ea:	8806      	ldrh	r6, [r0, #0]
  4044ec:	9107      	str	r1, [sp, #28]
  4044ee:	2700      	movs	r7, #0
  4044f0:	07d8      	lsls	r0, r3, #31
  4044f2:	f140 8222 	bpl.w	40493a <_vfiprintf_r+0x9c6>
  4044f6:	ea56 0107 	orrs.w	r1, r6, r7
  4044fa:	f000 821e 	beq.w	40493a <_vfiprintf_r+0x9c6>
  4044fe:	2130      	movs	r1, #48	; 0x30
  404500:	f88d 2039 	strb.w	r2, [sp, #57]	; 0x39
  404504:	f043 0302 	orr.w	r3, r3, #2
  404508:	f88d 1038 	strb.w	r1, [sp, #56]	; 0x38
  40450c:	2202      	movs	r2, #2
  40450e:	e664      	b.n	4041da <_vfiprintf_r+0x266>
  404510:	9608      	str	r6, [sp, #32]
  404512:	2800      	cmp	r0, #0
  404514:	f040 836b 	bne.w	404bee <_vfiprintf_r+0xc7a>
  404518:	4917      	ldr	r1, [pc, #92]	; (404578 <_vfiprintf_r+0x604>)
  40451a:	910b      	str	r1, [sp, #44]	; 0x2c
  40451c:	e7d9      	b.n	4044d2 <_vfiprintf_r+0x55e>
  40451e:	9907      	ldr	r1, [sp, #28]
  404520:	9608      	str	r6, [sp, #32]
  404522:	680a      	ldr	r2, [r1, #0]
  404524:	f88d 2048 	strb.w	r2, [sp, #72]	; 0x48
  404528:	f04f 0000 	mov.w	r0, #0
  40452c:	460a      	mov	r2, r1
  40452e:	f88d 0037 	strb.w	r0, [sp, #55]	; 0x37
  404532:	3204      	adds	r2, #4
  404534:	2001      	movs	r0, #1
  404536:	9001      	str	r0, [sp, #4]
  404538:	9207      	str	r2, [sp, #28]
  40453a:	9005      	str	r0, [sp, #20]
  40453c:	f10d 0b48 	add.w	fp, sp, #72	; 0x48
  404540:	9302      	str	r3, [sp, #8]
  404542:	2400      	movs	r4, #0
  404544:	e670      	b.n	404228 <_vfiprintf_r+0x2b4>
  404546:	f043 0340 	orr.w	r3, r3, #64	; 0x40
  40454a:	f898 2000 	ldrb.w	r2, [r8]
  40454e:	e583      	b.n	404058 <_vfiprintf_r+0xe4>
  404550:	f898 2000 	ldrb.w	r2, [r8]
  404554:	2a6c      	cmp	r2, #108	; 0x6c
  404556:	bf03      	ittte	eq
  404558:	f898 2001 	ldrbeq.w	r2, [r8, #1]
  40455c:	f043 0320 	orreq.w	r3, r3, #32
  404560:	f108 0801 	addeq.w	r8, r8, #1
  404564:	f043 0310 	orrne.w	r3, r3, #16
  404568:	e576      	b.n	404058 <_vfiprintf_r+0xe4>
  40456a:	bf00      	nop
  40456c:	00406b70 	.word	0x00406b70
  404570:	00406b80 	.word	0x00406b80
  404574:	00406b54 	.word	0x00406b54
  404578:	00406b40 	.word	0x00406b40
  40457c:	9907      	ldr	r1, [sp, #28]
  40457e:	680e      	ldr	r6, [r1, #0]
  404580:	460a      	mov	r2, r1
  404582:	2e00      	cmp	r6, #0
  404584:	f102 0204 	add.w	r2, r2, #4
  404588:	f6ff ae0f 	blt.w	4041aa <_vfiprintf_r+0x236>
  40458c:	9207      	str	r2, [sp, #28]
  40458e:	f898 2000 	ldrb.w	r2, [r8]
  404592:	e561      	b.n	404058 <_vfiprintf_r+0xe4>
  404594:	f898 2000 	ldrb.w	r2, [r8]
  404598:	2001      	movs	r0, #1
  40459a:	252b      	movs	r5, #43	; 0x2b
  40459c:	e55c      	b.n	404058 <_vfiprintf_r+0xe4>
  40459e:	9907      	ldr	r1, [sp, #28]
  4045a0:	9608      	str	r6, [sp, #32]
  4045a2:	f8d1 b000 	ldr.w	fp, [r1]
  4045a6:	f04f 0200 	mov.w	r2, #0
  4045aa:	f88d 2037 	strb.w	r2, [sp, #55]	; 0x37
  4045ae:	1d0e      	adds	r6, r1, #4
  4045b0:	f1bb 0f00 	cmp.w	fp, #0
  4045b4:	f000 82e5 	beq.w	404b82 <_vfiprintf_r+0xc0e>
  4045b8:	1c67      	adds	r7, r4, #1
  4045ba:	f000 82c4 	beq.w	404b46 <_vfiprintf_r+0xbd2>
  4045be:	4622      	mov	r2, r4
  4045c0:	2100      	movs	r1, #0
  4045c2:	4658      	mov	r0, fp
  4045c4:	9301      	str	r3, [sp, #4]
  4045c6:	f001 fbdb 	bl	405d80 <memchr>
  4045ca:	9b01      	ldr	r3, [sp, #4]
  4045cc:	2800      	cmp	r0, #0
  4045ce:	f000 82e5 	beq.w	404b9c <_vfiprintf_r+0xc28>
  4045d2:	eba0 020b 	sub.w	r2, r0, fp
  4045d6:	9205      	str	r2, [sp, #20]
  4045d8:	9607      	str	r6, [sp, #28]
  4045da:	9302      	str	r3, [sp, #8]
  4045dc:	f89d 5037 	ldrb.w	r5, [sp, #55]	; 0x37
  4045e0:	2400      	movs	r4, #0
  4045e2:	e619      	b.n	404218 <_vfiprintf_r+0x2a4>
  4045e4:	f898 2000 	ldrb.w	r2, [r8]
  4045e8:	2a2a      	cmp	r2, #42	; 0x2a
  4045ea:	f108 0701 	add.w	r7, r8, #1
  4045ee:	f000 82e9 	beq.w	404bc4 <_vfiprintf_r+0xc50>
  4045f2:	f1a2 0130 	sub.w	r1, r2, #48	; 0x30
  4045f6:	2909      	cmp	r1, #9
  4045f8:	46b8      	mov	r8, r7
  4045fa:	f04f 0400 	mov.w	r4, #0
  4045fe:	f63f ad2d 	bhi.w	40405c <_vfiprintf_r+0xe8>
  404602:	f818 2b01 	ldrb.w	r2, [r8], #1
  404606:	eb04 0484 	add.w	r4, r4, r4, lsl #2
  40460a:	eb01 0444 	add.w	r4, r1, r4, lsl #1
  40460e:	f1a2 0130 	sub.w	r1, r2, #48	; 0x30
  404612:	2909      	cmp	r1, #9
  404614:	d9f5      	bls.n	404602 <_vfiprintf_r+0x68e>
  404616:	e521      	b.n	40405c <_vfiprintf_r+0xe8>
  404618:	f043 0320 	orr.w	r3, r3, #32
  40461c:	f898 2000 	ldrb.w	r2, [r8]
  404620:	e51a      	b.n	404058 <_vfiprintf_r+0xe4>
  404622:	9608      	str	r6, [sp, #32]
  404624:	2800      	cmp	r0, #0
  404626:	f040 82db 	bne.w	404be0 <_vfiprintf_r+0xc6c>
  40462a:	2a00      	cmp	r2, #0
  40462c:	f000 80e7 	beq.w	4047fe <_vfiprintf_r+0x88a>
  404630:	2101      	movs	r1, #1
  404632:	f88d 2048 	strb.w	r2, [sp, #72]	; 0x48
  404636:	f04f 0200 	mov.w	r2, #0
  40463a:	9101      	str	r1, [sp, #4]
  40463c:	f88d 2037 	strb.w	r2, [sp, #55]	; 0x37
  404640:	9105      	str	r1, [sp, #20]
  404642:	f10d 0b48 	add.w	fp, sp, #72	; 0x48
  404646:	e77b      	b.n	404540 <_vfiprintf_r+0x5cc>
  404648:	9a07      	ldr	r2, [sp, #28]
  40464a:	6813      	ldr	r3, [r2, #0]
  40464c:	3204      	adds	r2, #4
  40464e:	9207      	str	r2, [sp, #28]
  404650:	9a03      	ldr	r2, [sp, #12]
  404652:	601a      	str	r2, [r3, #0]
  404654:	e4cb      	b.n	403fee <_vfiprintf_r+0x7a>
  404656:	aa0f      	add	r2, sp, #60	; 0x3c
  404658:	9904      	ldr	r1, [sp, #16]
  40465a:	4620      	mov	r0, r4
  40465c:	f7ff fc4a 	bl	403ef4 <__sprint_r.part.0>
  404660:	2800      	cmp	r0, #0
  404662:	f040 8139 	bne.w	4048d8 <_vfiprintf_r+0x964>
  404666:	9910      	ldr	r1, [sp, #64]	; 0x40
  404668:	9a11      	ldr	r2, [sp, #68]	; 0x44
  40466a:	f101 0c01 	add.w	ip, r1, #1
  40466e:	46ce      	mov	lr, r9
  404670:	e5ff      	b.n	404272 <_vfiprintf_r+0x2fe>
  404672:	9910      	ldr	r1, [sp, #64]	; 0x40
  404674:	9a11      	ldr	r2, [sp, #68]	; 0x44
  404676:	1c48      	adds	r0, r1, #1
  404678:	f89d 5037 	ldrb.w	r5, [sp, #55]	; 0x37
  40467c:	2d00      	cmp	r5, #0
  40467e:	f43f ae22 	beq.w	4042c6 <_vfiprintf_r+0x352>
  404682:	3201      	adds	r2, #1
  404684:	f10d 0537 	add.w	r5, sp, #55	; 0x37
  404688:	2101      	movs	r1, #1
  40468a:	2807      	cmp	r0, #7
  40468c:	9211      	str	r2, [sp, #68]	; 0x44
  40468e:	9010      	str	r0, [sp, #64]	; 0x40
  404690:	f8ca 5000 	str.w	r5, [sl]
  404694:	f8ca 1004 	str.w	r1, [sl, #4]
  404698:	f340 8108 	ble.w	4048ac <_vfiprintf_r+0x938>
  40469c:	2a00      	cmp	r2, #0
  40469e:	f040 81bc 	bne.w	404a1a <_vfiprintf_r+0xaa6>
  4046a2:	9b09      	ldr	r3, [sp, #36]	; 0x24
  4046a4:	2b00      	cmp	r3, #0
  4046a6:	f43f ae1f 	beq.w	4042e8 <_vfiprintf_r+0x374>
  4046aa:	ab0e      	add	r3, sp, #56	; 0x38
  4046ac:	2202      	movs	r2, #2
  4046ae:	4608      	mov	r0, r1
  4046b0:	931c      	str	r3, [sp, #112]	; 0x70
  4046b2:	921d      	str	r2, [sp, #116]	; 0x74
  4046b4:	46ca      	mov	sl, r9
  4046b6:	4601      	mov	r1, r0
  4046b8:	f10a 0a08 	add.w	sl, sl, #8
  4046bc:	3001      	adds	r0, #1
  4046be:	9b0a      	ldr	r3, [sp, #40]	; 0x28
  4046c0:	2b80      	cmp	r3, #128	; 0x80
  4046c2:	f43f ae19 	beq.w	4042f8 <_vfiprintf_r+0x384>
  4046c6:	9b05      	ldr	r3, [sp, #20]
  4046c8:	1ae4      	subs	r4, r4, r3
  4046ca:	2c00      	cmp	r4, #0
  4046cc:	dd2e      	ble.n	40472c <_vfiprintf_r+0x7b8>
  4046ce:	2c10      	cmp	r4, #16
  4046d0:	4db3      	ldr	r5, [pc, #716]	; (4049a0 <_vfiprintf_r+0xa2c>)
  4046d2:	dd1e      	ble.n	404712 <_vfiprintf_r+0x79e>
  4046d4:	46d6      	mov	lr, sl
  4046d6:	2610      	movs	r6, #16
  4046d8:	9f06      	ldr	r7, [sp, #24]
  4046da:	f8dd a010 	ldr.w	sl, [sp, #16]
  4046de:	e006      	b.n	4046ee <_vfiprintf_r+0x77a>
  4046e0:	1c88      	adds	r0, r1, #2
  4046e2:	f10e 0e08 	add.w	lr, lr, #8
  4046e6:	4619      	mov	r1, r3
  4046e8:	3c10      	subs	r4, #16
  4046ea:	2c10      	cmp	r4, #16
  4046ec:	dd10      	ble.n	404710 <_vfiprintf_r+0x79c>
  4046ee:	1c4b      	adds	r3, r1, #1
  4046f0:	3210      	adds	r2, #16
  4046f2:	2b07      	cmp	r3, #7
  4046f4:	9211      	str	r2, [sp, #68]	; 0x44
  4046f6:	e88e 0060 	stmia.w	lr, {r5, r6}
  4046fa:	9310      	str	r3, [sp, #64]	; 0x40
  4046fc:	ddf0      	ble.n	4046e0 <_vfiprintf_r+0x76c>
  4046fe:	2a00      	cmp	r2, #0
  404700:	d165      	bne.n	4047ce <_vfiprintf_r+0x85a>
  404702:	3c10      	subs	r4, #16
  404704:	2c10      	cmp	r4, #16
  404706:	f04f 0001 	mov.w	r0, #1
  40470a:	4611      	mov	r1, r2
  40470c:	46ce      	mov	lr, r9
  40470e:	dcee      	bgt.n	4046ee <_vfiprintf_r+0x77a>
  404710:	46f2      	mov	sl, lr
  404712:	4422      	add	r2, r4
  404714:	2807      	cmp	r0, #7
  404716:	9211      	str	r2, [sp, #68]	; 0x44
  404718:	f8ca 5000 	str.w	r5, [sl]
  40471c:	f8ca 4004 	str.w	r4, [sl, #4]
  404720:	9010      	str	r0, [sp, #64]	; 0x40
  404722:	f300 8085 	bgt.w	404830 <_vfiprintf_r+0x8bc>
  404726:	f10a 0a08 	add.w	sl, sl, #8
  40472a:	3001      	adds	r0, #1
  40472c:	9905      	ldr	r1, [sp, #20]
  40472e:	f8ca b000 	str.w	fp, [sl]
  404732:	440a      	add	r2, r1
  404734:	2807      	cmp	r0, #7
  404736:	9211      	str	r2, [sp, #68]	; 0x44
  404738:	f8ca 1004 	str.w	r1, [sl, #4]
  40473c:	9010      	str	r0, [sp, #64]	; 0x40
  40473e:	f340 8082 	ble.w	404846 <_vfiprintf_r+0x8d2>
  404742:	2a00      	cmp	r2, #0
  404744:	f040 8118 	bne.w	404978 <_vfiprintf_r+0xa04>
  404748:	9b02      	ldr	r3, [sp, #8]
  40474a:	9210      	str	r2, [sp, #64]	; 0x40
  40474c:	0758      	lsls	r0, r3, #29
  40474e:	d535      	bpl.n	4047bc <_vfiprintf_r+0x848>
  404750:	9b08      	ldr	r3, [sp, #32]
  404752:	9901      	ldr	r1, [sp, #4]
  404754:	1a5c      	subs	r4, r3, r1
  404756:	2c00      	cmp	r4, #0
  404758:	f340 80e7 	ble.w	40492a <_vfiprintf_r+0x9b6>
  40475c:	46ca      	mov	sl, r9
  40475e:	2c10      	cmp	r4, #16
  404760:	f340 8218 	ble.w	404b94 <_vfiprintf_r+0xc20>
  404764:	9910      	ldr	r1, [sp, #64]	; 0x40
  404766:	4e8f      	ldr	r6, [pc, #572]	; (4049a4 <_vfiprintf_r+0xa30>)
  404768:	9f06      	ldr	r7, [sp, #24]
  40476a:	f8dd b010 	ldr.w	fp, [sp, #16]
  40476e:	2510      	movs	r5, #16
  404770:	e006      	b.n	404780 <_vfiprintf_r+0x80c>
  404772:	1c88      	adds	r0, r1, #2
  404774:	f10a 0a08 	add.w	sl, sl, #8
  404778:	4619      	mov	r1, r3
  40477a:	3c10      	subs	r4, #16
  40477c:	2c10      	cmp	r4, #16
  40477e:	dd11      	ble.n	4047a4 <_vfiprintf_r+0x830>
  404780:	1c4b      	adds	r3, r1, #1
  404782:	3210      	adds	r2, #16
  404784:	2b07      	cmp	r3, #7
  404786:	9211      	str	r2, [sp, #68]	; 0x44
  404788:	f8ca 6000 	str.w	r6, [sl]
  40478c:	f8ca 5004 	str.w	r5, [sl, #4]
  404790:	9310      	str	r3, [sp, #64]	; 0x40
  404792:	ddee      	ble.n	404772 <_vfiprintf_r+0x7fe>
  404794:	bb42      	cbnz	r2, 4047e8 <_vfiprintf_r+0x874>
  404796:	3c10      	subs	r4, #16
  404798:	2c10      	cmp	r4, #16
  40479a:	f04f 0001 	mov.w	r0, #1
  40479e:	4611      	mov	r1, r2
  4047a0:	46ca      	mov	sl, r9
  4047a2:	dced      	bgt.n	404780 <_vfiprintf_r+0x80c>
  4047a4:	4422      	add	r2, r4
  4047a6:	2807      	cmp	r0, #7
  4047a8:	9211      	str	r2, [sp, #68]	; 0x44
  4047aa:	f8ca 6000 	str.w	r6, [sl]
  4047ae:	f8ca 4004 	str.w	r4, [sl, #4]
  4047b2:	9010      	str	r0, [sp, #64]	; 0x40
  4047b4:	dd51      	ble.n	40485a <_vfiprintf_r+0x8e6>
  4047b6:	2a00      	cmp	r2, #0
  4047b8:	f040 819b 	bne.w	404af2 <_vfiprintf_r+0xb7e>
  4047bc:	9b03      	ldr	r3, [sp, #12]
  4047be:	9a08      	ldr	r2, [sp, #32]
  4047c0:	9901      	ldr	r1, [sp, #4]
  4047c2:	428a      	cmp	r2, r1
  4047c4:	bfac      	ite	ge
  4047c6:	189b      	addge	r3, r3, r2
  4047c8:	185b      	addlt	r3, r3, r1
  4047ca:	9303      	str	r3, [sp, #12]
  4047cc:	e04e      	b.n	40486c <_vfiprintf_r+0x8f8>
  4047ce:	aa0f      	add	r2, sp, #60	; 0x3c
  4047d0:	4651      	mov	r1, sl
  4047d2:	4638      	mov	r0, r7
  4047d4:	f7ff fb8e 	bl	403ef4 <__sprint_r.part.0>
  4047d8:	2800      	cmp	r0, #0
  4047da:	f040 813f 	bne.w	404a5c <_vfiprintf_r+0xae8>
  4047de:	9910      	ldr	r1, [sp, #64]	; 0x40
  4047e0:	9a11      	ldr	r2, [sp, #68]	; 0x44
  4047e2:	1c48      	adds	r0, r1, #1
  4047e4:	46ce      	mov	lr, r9
  4047e6:	e77f      	b.n	4046e8 <_vfiprintf_r+0x774>
  4047e8:	aa0f      	add	r2, sp, #60	; 0x3c
  4047ea:	4659      	mov	r1, fp
  4047ec:	4638      	mov	r0, r7
  4047ee:	f7ff fb81 	bl	403ef4 <__sprint_r.part.0>
  4047f2:	b960      	cbnz	r0, 40480e <_vfiprintf_r+0x89a>
  4047f4:	9910      	ldr	r1, [sp, #64]	; 0x40
  4047f6:	9a11      	ldr	r2, [sp, #68]	; 0x44
  4047f8:	1c48      	adds	r0, r1, #1
  4047fa:	46ca      	mov	sl, r9
  4047fc:	e7bd      	b.n	40477a <_vfiprintf_r+0x806>
  4047fe:	9b11      	ldr	r3, [sp, #68]	; 0x44
  404800:	f8dd b010 	ldr.w	fp, [sp, #16]
  404804:	2b00      	cmp	r3, #0
  404806:	f040 81d4 	bne.w	404bb2 <_vfiprintf_r+0xc3e>
  40480a:	2300      	movs	r3, #0
  40480c:	9310      	str	r3, [sp, #64]	; 0x40
  40480e:	f8db 3064 	ldr.w	r3, [fp, #100]	; 0x64
  404812:	f013 0f01 	tst.w	r3, #1
  404816:	f8bb 300c 	ldrh.w	r3, [fp, #12]
  40481a:	d102      	bne.n	404822 <_vfiprintf_r+0x8ae>
  40481c:	059a      	lsls	r2, r3, #22
  40481e:	f140 80de 	bpl.w	4049de <_vfiprintf_r+0xa6a>
  404822:	065b      	lsls	r3, r3, #25
  404824:	f53f acb2 	bmi.w	40418c <_vfiprintf_r+0x218>
  404828:	9803      	ldr	r0, [sp, #12]
  40482a:	b02d      	add	sp, #180	; 0xb4
  40482c:	e8bd 8ff0 	ldmia.w	sp!, {r4, r5, r6, r7, r8, r9, sl, fp, pc}
  404830:	2a00      	cmp	r2, #0
  404832:	f040 8106 	bne.w	404a42 <_vfiprintf_r+0xace>
  404836:	9a05      	ldr	r2, [sp, #20]
  404838:	921d      	str	r2, [sp, #116]	; 0x74
  40483a:	2301      	movs	r3, #1
  40483c:	9211      	str	r2, [sp, #68]	; 0x44
  40483e:	f8cd b070 	str.w	fp, [sp, #112]	; 0x70
  404842:	9310      	str	r3, [sp, #64]	; 0x40
  404844:	46ca      	mov	sl, r9
  404846:	f10a 0a08 	add.w	sl, sl, #8
  40484a:	9b02      	ldr	r3, [sp, #8]
  40484c:	0759      	lsls	r1, r3, #29
  40484e:	d504      	bpl.n	40485a <_vfiprintf_r+0x8e6>
  404850:	9b08      	ldr	r3, [sp, #32]
  404852:	9901      	ldr	r1, [sp, #4]
  404854:	1a5c      	subs	r4, r3, r1
  404856:	2c00      	cmp	r4, #0
  404858:	dc81      	bgt.n	40475e <_vfiprintf_r+0x7ea>
  40485a:	9b03      	ldr	r3, [sp, #12]
  40485c:	9908      	ldr	r1, [sp, #32]
  40485e:	9801      	ldr	r0, [sp, #4]
  404860:	4281      	cmp	r1, r0
  404862:	bfac      	ite	ge
  404864:	185b      	addge	r3, r3, r1
  404866:	181b      	addlt	r3, r3, r0
  404868:	9303      	str	r3, [sp, #12]
  40486a:	bb72      	cbnz	r2, 4048ca <_vfiprintf_r+0x956>
  40486c:	2300      	movs	r3, #0
  40486e:	9310      	str	r3, [sp, #64]	; 0x40
  404870:	46ca      	mov	sl, r9
  404872:	f7ff bbbc 	b.w	403fee <_vfiprintf_r+0x7a>
  404876:	aa0f      	add	r2, sp, #60	; 0x3c
  404878:	9904      	ldr	r1, [sp, #16]
  40487a:	4620      	mov	r0, r4
  40487c:	f7ff fb3a 	bl	403ef4 <__sprint_r.part.0>
  404880:	bb50      	cbnz	r0, 4048d8 <_vfiprintf_r+0x964>
  404882:	9910      	ldr	r1, [sp, #64]	; 0x40
  404884:	9a11      	ldr	r2, [sp, #68]	; 0x44
  404886:	f101 0e01 	add.w	lr, r1, #1
  40488a:	46cc      	mov	ip, r9
  40488c:	e548      	b.n	404320 <_vfiprintf_r+0x3ac>
  40488e:	2a00      	cmp	r2, #0
  404890:	f040 8140 	bne.w	404b14 <_vfiprintf_r+0xba0>
  404894:	f89d 1037 	ldrb.w	r1, [sp, #55]	; 0x37
  404898:	2900      	cmp	r1, #0
  40489a:	f000 811b 	beq.w	404ad4 <_vfiprintf_r+0xb60>
  40489e:	2201      	movs	r2, #1
  4048a0:	f10d 0137 	add.w	r1, sp, #55	; 0x37
  4048a4:	4610      	mov	r0, r2
  4048a6:	921d      	str	r2, [sp, #116]	; 0x74
  4048a8:	911c      	str	r1, [sp, #112]	; 0x70
  4048aa:	46ca      	mov	sl, r9
  4048ac:	4601      	mov	r1, r0
  4048ae:	f10a 0a08 	add.w	sl, sl, #8
  4048b2:	3001      	adds	r0, #1
  4048b4:	e507      	b.n	4042c6 <_vfiprintf_r+0x352>
  4048b6:	9b02      	ldr	r3, [sp, #8]
  4048b8:	2a01      	cmp	r2, #1
  4048ba:	f000 8098 	beq.w	4049ee <_vfiprintf_r+0xa7a>
  4048be:	2a02      	cmp	r2, #2
  4048c0:	d10d      	bne.n	4048de <_vfiprintf_r+0x96a>
  4048c2:	9302      	str	r3, [sp, #8]
  4048c4:	2600      	movs	r6, #0
  4048c6:	2700      	movs	r7, #0
  4048c8:	e5b0      	b.n	40442c <_vfiprintf_r+0x4b8>
  4048ca:	aa0f      	add	r2, sp, #60	; 0x3c
  4048cc:	9904      	ldr	r1, [sp, #16]
  4048ce:	9806      	ldr	r0, [sp, #24]
  4048d0:	f7ff fb10 	bl	403ef4 <__sprint_r.part.0>
  4048d4:	2800      	cmp	r0, #0
  4048d6:	d0c9      	beq.n	40486c <_vfiprintf_r+0x8f8>
  4048d8:	f8dd b010 	ldr.w	fp, [sp, #16]
  4048dc:	e797      	b.n	40480e <_vfiprintf_r+0x89a>
  4048de:	9302      	str	r3, [sp, #8]
  4048e0:	2600      	movs	r6, #0
  4048e2:	2700      	movs	r7, #0
  4048e4:	4649      	mov	r1, r9
  4048e6:	e000      	b.n	4048ea <_vfiprintf_r+0x976>
  4048e8:	4659      	mov	r1, fp
  4048ea:	08f2      	lsrs	r2, r6, #3
  4048ec:	ea42 7247 	orr.w	r2, r2, r7, lsl #29
  4048f0:	08f8      	lsrs	r0, r7, #3
  4048f2:	f006 0307 	and.w	r3, r6, #7
  4048f6:	4607      	mov	r7, r0
  4048f8:	4616      	mov	r6, r2
  4048fa:	3330      	adds	r3, #48	; 0x30
  4048fc:	ea56 0207 	orrs.w	r2, r6, r7
  404900:	f801 3c01 	strb.w	r3, [r1, #-1]
  404904:	f101 3bff 	add.w	fp, r1, #4294967295
  404908:	d1ee      	bne.n	4048e8 <_vfiprintf_r+0x974>
  40490a:	9a02      	ldr	r2, [sp, #8]
  40490c:	07d6      	lsls	r6, r2, #31
  40490e:	f57f ad9d 	bpl.w	40444c <_vfiprintf_r+0x4d8>
  404912:	2b30      	cmp	r3, #48	; 0x30
  404914:	f43f ad9a 	beq.w	40444c <_vfiprintf_r+0x4d8>
  404918:	3902      	subs	r1, #2
  40491a:	2330      	movs	r3, #48	; 0x30
  40491c:	f80b 3c01 	strb.w	r3, [fp, #-1]
  404920:	eba9 0301 	sub.w	r3, r9, r1
  404924:	9305      	str	r3, [sp, #20]
  404926:	468b      	mov	fp, r1
  404928:	e476      	b.n	404218 <_vfiprintf_r+0x2a4>
  40492a:	9b03      	ldr	r3, [sp, #12]
  40492c:	9a08      	ldr	r2, [sp, #32]
  40492e:	428a      	cmp	r2, r1
  404930:	bfac      	ite	ge
  404932:	189b      	addge	r3, r3, r2
  404934:	185b      	addlt	r3, r3, r1
  404936:	9303      	str	r3, [sp, #12]
  404938:	e798      	b.n	40486c <_vfiprintf_r+0x8f8>
  40493a:	2202      	movs	r2, #2
  40493c:	e44d      	b.n	4041da <_vfiprintf_r+0x266>
  40493e:	2f00      	cmp	r7, #0
  404940:	bf08      	it	eq
  404942:	2e0a      	cmpeq	r6, #10
  404944:	d352      	bcc.n	4049ec <_vfiprintf_r+0xa78>
  404946:	46cb      	mov	fp, r9
  404948:	4630      	mov	r0, r6
  40494a:	4639      	mov	r1, r7
  40494c:	220a      	movs	r2, #10
  40494e:	2300      	movs	r3, #0
  404950:	f001 ff12 	bl	406778 <__aeabi_uldivmod>
  404954:	3230      	adds	r2, #48	; 0x30
  404956:	f80b 2d01 	strb.w	r2, [fp, #-1]!
  40495a:	4630      	mov	r0, r6
  40495c:	4639      	mov	r1, r7
  40495e:	2300      	movs	r3, #0
  404960:	220a      	movs	r2, #10
  404962:	f001 ff09 	bl	406778 <__aeabi_uldivmod>
  404966:	4606      	mov	r6, r0
  404968:	460f      	mov	r7, r1
  40496a:	ea56 0307 	orrs.w	r3, r6, r7
  40496e:	d1eb      	bne.n	404948 <_vfiprintf_r+0x9d4>
  404970:	e56c      	b.n	40444c <_vfiprintf_r+0x4d8>
  404972:	9405      	str	r4, [sp, #20]
  404974:	46cb      	mov	fp, r9
  404976:	e44f      	b.n	404218 <_vfiprintf_r+0x2a4>
  404978:	aa0f      	add	r2, sp, #60	; 0x3c
  40497a:	9904      	ldr	r1, [sp, #16]
  40497c:	9806      	ldr	r0, [sp, #24]
  40497e:	f7ff fab9 	bl	403ef4 <__sprint_r.part.0>
  404982:	2800      	cmp	r0, #0
  404984:	d1a8      	bne.n	4048d8 <_vfiprintf_r+0x964>
  404986:	9a11      	ldr	r2, [sp, #68]	; 0x44
  404988:	46ca      	mov	sl, r9
  40498a:	e75e      	b.n	40484a <_vfiprintf_r+0x8d6>
  40498c:	aa0f      	add	r2, sp, #60	; 0x3c
  40498e:	9904      	ldr	r1, [sp, #16]
  404990:	9806      	ldr	r0, [sp, #24]
  404992:	f7ff faaf 	bl	403ef4 <__sprint_r.part.0>
  404996:	2800      	cmp	r0, #0
  404998:	d19e      	bne.n	4048d8 <_vfiprintf_r+0x964>
  40499a:	46ca      	mov	sl, r9
  40499c:	f7ff bbc0 	b.w	404120 <_vfiprintf_r+0x1ac>
  4049a0:	00406b80 	.word	0x00406b80
  4049a4:	00406b70 	.word	0x00406b70
  4049a8:	3104      	adds	r1, #4
  4049aa:	6816      	ldr	r6, [r2, #0]
  4049ac:	9107      	str	r1, [sp, #28]
  4049ae:	2201      	movs	r2, #1
  4049b0:	2700      	movs	r7, #0
  4049b2:	e412      	b.n	4041da <_vfiprintf_r+0x266>
  4049b4:	9807      	ldr	r0, [sp, #28]
  4049b6:	4601      	mov	r1, r0
  4049b8:	3104      	adds	r1, #4
  4049ba:	6806      	ldr	r6, [r0, #0]
  4049bc:	9107      	str	r1, [sp, #28]
  4049be:	2700      	movs	r7, #0
  4049c0:	e40b      	b.n	4041da <_vfiprintf_r+0x266>
  4049c2:	680e      	ldr	r6, [r1, #0]
  4049c4:	3104      	adds	r1, #4
  4049c6:	9107      	str	r1, [sp, #28]
  4049c8:	2700      	movs	r7, #0
  4049ca:	e591      	b.n	4044f0 <_vfiprintf_r+0x57c>
  4049cc:	9907      	ldr	r1, [sp, #28]
  4049ce:	680e      	ldr	r6, [r1, #0]
  4049d0:	460a      	mov	r2, r1
  4049d2:	17f7      	asrs	r7, r6, #31
  4049d4:	3204      	adds	r2, #4
  4049d6:	9207      	str	r2, [sp, #28]
  4049d8:	4630      	mov	r0, r6
  4049da:	4639      	mov	r1, r7
  4049dc:	e50f      	b.n	4043fe <_vfiprintf_r+0x48a>
  4049de:	f8db 0058 	ldr.w	r0, [fp, #88]	; 0x58
  4049e2:	f000 fe7f 	bl	4056e4 <__retarget_lock_release_recursive>
  4049e6:	f8bb 300c 	ldrh.w	r3, [fp, #12]
  4049ea:	e71a      	b.n	404822 <_vfiprintf_r+0x8ae>
  4049ec:	9b02      	ldr	r3, [sp, #8]
  4049ee:	9302      	str	r3, [sp, #8]
  4049f0:	f10d 0bb0 	add.w	fp, sp, #176	; 0xb0
  4049f4:	3630      	adds	r6, #48	; 0x30
  4049f6:	2301      	movs	r3, #1
  4049f8:	f80b 6d41 	strb.w	r6, [fp, #-65]!
  4049fc:	9305      	str	r3, [sp, #20]
  4049fe:	e40b      	b.n	404218 <_vfiprintf_r+0x2a4>
  404a00:	aa0f      	add	r2, sp, #60	; 0x3c
  404a02:	9904      	ldr	r1, [sp, #16]
  404a04:	9806      	ldr	r0, [sp, #24]
  404a06:	f7ff fa75 	bl	403ef4 <__sprint_r.part.0>
  404a0a:	2800      	cmp	r0, #0
  404a0c:	f47f af64 	bne.w	4048d8 <_vfiprintf_r+0x964>
  404a10:	9910      	ldr	r1, [sp, #64]	; 0x40
  404a12:	9a11      	ldr	r2, [sp, #68]	; 0x44
  404a14:	1c48      	adds	r0, r1, #1
  404a16:	46ca      	mov	sl, r9
  404a18:	e651      	b.n	4046be <_vfiprintf_r+0x74a>
  404a1a:	aa0f      	add	r2, sp, #60	; 0x3c
  404a1c:	9904      	ldr	r1, [sp, #16]
  404a1e:	9806      	ldr	r0, [sp, #24]
  404a20:	f7ff fa68 	bl	403ef4 <__sprint_r.part.0>
  404a24:	2800      	cmp	r0, #0
  404a26:	f47f af57 	bne.w	4048d8 <_vfiprintf_r+0x964>
  404a2a:	9910      	ldr	r1, [sp, #64]	; 0x40
  404a2c:	9a11      	ldr	r2, [sp, #68]	; 0x44
  404a2e:	1c48      	adds	r0, r1, #1
  404a30:	46ca      	mov	sl, r9
  404a32:	e448      	b.n	4042c6 <_vfiprintf_r+0x352>
  404a34:	2a00      	cmp	r2, #0
  404a36:	f040 8091 	bne.w	404b5c <_vfiprintf_r+0xbe8>
  404a3a:	2001      	movs	r0, #1
  404a3c:	4611      	mov	r1, r2
  404a3e:	46ca      	mov	sl, r9
  404a40:	e641      	b.n	4046c6 <_vfiprintf_r+0x752>
  404a42:	aa0f      	add	r2, sp, #60	; 0x3c
  404a44:	9904      	ldr	r1, [sp, #16]
  404a46:	9806      	ldr	r0, [sp, #24]
  404a48:	f7ff fa54 	bl	403ef4 <__sprint_r.part.0>
  404a4c:	2800      	cmp	r0, #0
  404a4e:	f47f af43 	bne.w	4048d8 <_vfiprintf_r+0x964>
  404a52:	9810      	ldr	r0, [sp, #64]	; 0x40
  404a54:	9a11      	ldr	r2, [sp, #68]	; 0x44
  404a56:	3001      	adds	r0, #1
  404a58:	46ca      	mov	sl, r9
  404a5a:	e667      	b.n	40472c <_vfiprintf_r+0x7b8>
  404a5c:	46d3      	mov	fp, sl
  404a5e:	e6d6      	b.n	40480e <_vfiprintf_r+0x89a>
  404a60:	9e07      	ldr	r6, [sp, #28]
  404a62:	3607      	adds	r6, #7
  404a64:	f026 0207 	bic.w	r2, r6, #7
  404a68:	f102 0108 	add.w	r1, r2, #8
  404a6c:	e9d2 6700 	ldrd	r6, r7, [r2]
  404a70:	9107      	str	r1, [sp, #28]
  404a72:	2201      	movs	r2, #1
  404a74:	f7ff bbb1 	b.w	4041da <_vfiprintf_r+0x266>
  404a78:	9e07      	ldr	r6, [sp, #28]
  404a7a:	3607      	adds	r6, #7
  404a7c:	f026 0607 	bic.w	r6, r6, #7
  404a80:	e9d6 0100 	ldrd	r0, r1, [r6]
  404a84:	f106 0208 	add.w	r2, r6, #8
  404a88:	9207      	str	r2, [sp, #28]
  404a8a:	4606      	mov	r6, r0
  404a8c:	460f      	mov	r7, r1
  404a8e:	e4b6      	b.n	4043fe <_vfiprintf_r+0x48a>
  404a90:	9e07      	ldr	r6, [sp, #28]
  404a92:	3607      	adds	r6, #7
  404a94:	f026 0207 	bic.w	r2, r6, #7
  404a98:	f102 0108 	add.w	r1, r2, #8
  404a9c:	e9d2 6700 	ldrd	r6, r7, [r2]
  404aa0:	9107      	str	r1, [sp, #28]
  404aa2:	2200      	movs	r2, #0
  404aa4:	f7ff bb99 	b.w	4041da <_vfiprintf_r+0x266>
  404aa8:	9e07      	ldr	r6, [sp, #28]
  404aaa:	3607      	adds	r6, #7
  404aac:	f026 0107 	bic.w	r1, r6, #7
  404ab0:	f101 0008 	add.w	r0, r1, #8
  404ab4:	9007      	str	r0, [sp, #28]
  404ab6:	e9d1 6700 	ldrd	r6, r7, [r1]
  404aba:	e519      	b.n	4044f0 <_vfiprintf_r+0x57c>
  404abc:	46cb      	mov	fp, r9
  404abe:	f7ff bbab 	b.w	404218 <_vfiprintf_r+0x2a4>
  404ac2:	252d      	movs	r5, #45	; 0x2d
  404ac4:	4276      	negs	r6, r6
  404ac6:	eb67 0747 	sbc.w	r7, r7, r7, lsl #1
  404aca:	f88d 5037 	strb.w	r5, [sp, #55]	; 0x37
  404ace:	2201      	movs	r2, #1
  404ad0:	f7ff bb88 	b.w	4041e4 <_vfiprintf_r+0x270>
  404ad4:	9b09      	ldr	r3, [sp, #36]	; 0x24
  404ad6:	b9b3      	cbnz	r3, 404b06 <_vfiprintf_r+0xb92>
  404ad8:	4611      	mov	r1, r2
  404ada:	2001      	movs	r0, #1
  404adc:	46ca      	mov	sl, r9
  404ade:	e5f2      	b.n	4046c6 <_vfiprintf_r+0x752>
  404ae0:	f8db 0058 	ldr.w	r0, [fp, #88]	; 0x58
  404ae4:	f000 fdfe 	bl	4056e4 <__retarget_lock_release_recursive>
  404ae8:	f04f 33ff 	mov.w	r3, #4294967295
  404aec:	9303      	str	r3, [sp, #12]
  404aee:	f7ff bb50 	b.w	404192 <_vfiprintf_r+0x21e>
  404af2:	aa0f      	add	r2, sp, #60	; 0x3c
  404af4:	9904      	ldr	r1, [sp, #16]
  404af6:	9806      	ldr	r0, [sp, #24]
  404af8:	f7ff f9fc 	bl	403ef4 <__sprint_r.part.0>
  404afc:	2800      	cmp	r0, #0
  404afe:	f47f aeeb 	bne.w	4048d8 <_vfiprintf_r+0x964>
  404b02:	9a11      	ldr	r2, [sp, #68]	; 0x44
  404b04:	e6a9      	b.n	40485a <_vfiprintf_r+0x8e6>
  404b06:	ab0e      	add	r3, sp, #56	; 0x38
  404b08:	2202      	movs	r2, #2
  404b0a:	931c      	str	r3, [sp, #112]	; 0x70
  404b0c:	921d      	str	r2, [sp, #116]	; 0x74
  404b0e:	2001      	movs	r0, #1
  404b10:	46ca      	mov	sl, r9
  404b12:	e5d0      	b.n	4046b6 <_vfiprintf_r+0x742>
  404b14:	aa0f      	add	r2, sp, #60	; 0x3c
  404b16:	9904      	ldr	r1, [sp, #16]
  404b18:	9806      	ldr	r0, [sp, #24]
  404b1a:	f7ff f9eb 	bl	403ef4 <__sprint_r.part.0>
  404b1e:	2800      	cmp	r0, #0
  404b20:	f47f aeda 	bne.w	4048d8 <_vfiprintf_r+0x964>
  404b24:	9910      	ldr	r1, [sp, #64]	; 0x40
  404b26:	9a11      	ldr	r2, [sp, #68]	; 0x44
  404b28:	1c48      	adds	r0, r1, #1
  404b2a:	46ca      	mov	sl, r9
  404b2c:	e5a4      	b.n	404678 <_vfiprintf_r+0x704>
  404b2e:	9a07      	ldr	r2, [sp, #28]
  404b30:	9903      	ldr	r1, [sp, #12]
  404b32:	6813      	ldr	r3, [r2, #0]
  404b34:	17cd      	asrs	r5, r1, #31
  404b36:	4608      	mov	r0, r1
  404b38:	3204      	adds	r2, #4
  404b3a:	4629      	mov	r1, r5
  404b3c:	9207      	str	r2, [sp, #28]
  404b3e:	e9c3 0100 	strd	r0, r1, [r3]
  404b42:	f7ff ba54 	b.w	403fee <_vfiprintf_r+0x7a>
  404b46:	4658      	mov	r0, fp
  404b48:	9607      	str	r6, [sp, #28]
  404b4a:	9302      	str	r3, [sp, #8]
  404b4c:	f001 fbd8 	bl	406300 <strlen>
  404b50:	2400      	movs	r4, #0
  404b52:	9005      	str	r0, [sp, #20]
  404b54:	f89d 5037 	ldrb.w	r5, [sp, #55]	; 0x37
  404b58:	f7ff bb5e 	b.w	404218 <_vfiprintf_r+0x2a4>
  404b5c:	aa0f      	add	r2, sp, #60	; 0x3c
  404b5e:	9904      	ldr	r1, [sp, #16]
  404b60:	9806      	ldr	r0, [sp, #24]
  404b62:	f7ff f9c7 	bl	403ef4 <__sprint_r.part.0>
  404b66:	2800      	cmp	r0, #0
  404b68:	f47f aeb6 	bne.w	4048d8 <_vfiprintf_r+0x964>
  404b6c:	9910      	ldr	r1, [sp, #64]	; 0x40
  404b6e:	9a11      	ldr	r2, [sp, #68]	; 0x44
  404b70:	1c48      	adds	r0, r1, #1
  404b72:	46ca      	mov	sl, r9
  404b74:	e5a7      	b.n	4046c6 <_vfiprintf_r+0x752>
  404b76:	9910      	ldr	r1, [sp, #64]	; 0x40
  404b78:	9a11      	ldr	r2, [sp, #68]	; 0x44
  404b7a:	4e20      	ldr	r6, [pc, #128]	; (404bfc <_vfiprintf_r+0xc88>)
  404b7c:	3101      	adds	r1, #1
  404b7e:	f7ff bb90 	b.w	4042a2 <_vfiprintf_r+0x32e>
  404b82:	2c06      	cmp	r4, #6
  404b84:	bf28      	it	cs
  404b86:	2406      	movcs	r4, #6
  404b88:	9405      	str	r4, [sp, #20]
  404b8a:	9607      	str	r6, [sp, #28]
  404b8c:	9401      	str	r4, [sp, #4]
  404b8e:	f8df b070 	ldr.w	fp, [pc, #112]	; 404c00 <_vfiprintf_r+0xc8c>
  404b92:	e4d5      	b.n	404540 <_vfiprintf_r+0x5cc>
  404b94:	9810      	ldr	r0, [sp, #64]	; 0x40
  404b96:	4e19      	ldr	r6, [pc, #100]	; (404bfc <_vfiprintf_r+0xc88>)
  404b98:	3001      	adds	r0, #1
  404b9a:	e603      	b.n	4047a4 <_vfiprintf_r+0x830>
  404b9c:	9405      	str	r4, [sp, #20]
  404b9e:	f89d 5037 	ldrb.w	r5, [sp, #55]	; 0x37
  404ba2:	9607      	str	r6, [sp, #28]
  404ba4:	9302      	str	r3, [sp, #8]
  404ba6:	4604      	mov	r4, r0
  404ba8:	f7ff bb36 	b.w	404218 <_vfiprintf_r+0x2a4>
  404bac:	4686      	mov	lr, r0
  404bae:	f7ff bbce 	b.w	40434e <_vfiprintf_r+0x3da>
  404bb2:	9806      	ldr	r0, [sp, #24]
  404bb4:	aa0f      	add	r2, sp, #60	; 0x3c
  404bb6:	4659      	mov	r1, fp
  404bb8:	f7ff f99c 	bl	403ef4 <__sprint_r.part.0>
  404bbc:	2800      	cmp	r0, #0
  404bbe:	f43f ae24 	beq.w	40480a <_vfiprintf_r+0x896>
  404bc2:	e624      	b.n	40480e <_vfiprintf_r+0x89a>
  404bc4:	9907      	ldr	r1, [sp, #28]
  404bc6:	f898 2001 	ldrb.w	r2, [r8, #1]
  404bca:	680c      	ldr	r4, [r1, #0]
  404bcc:	3104      	adds	r1, #4
  404bce:	ea44 74e4 	orr.w	r4, r4, r4, asr #31
  404bd2:	46b8      	mov	r8, r7
  404bd4:	9107      	str	r1, [sp, #28]
  404bd6:	f7ff ba3f 	b.w	404058 <_vfiprintf_r+0xe4>
  404bda:	f88d 5037 	strb.w	r5, [sp, #55]	; 0x37
  404bde:	e43c      	b.n	40445a <_vfiprintf_r+0x4e6>
  404be0:	f88d 5037 	strb.w	r5, [sp, #55]	; 0x37
  404be4:	e521      	b.n	40462a <_vfiprintf_r+0x6b6>
  404be6:	f88d 5037 	strb.w	r5, [sp, #55]	; 0x37
  404bea:	f7ff bbf4 	b.w	4043d6 <_vfiprintf_r+0x462>
  404bee:	f88d 5037 	strb.w	r5, [sp, #55]	; 0x37
  404bf2:	e491      	b.n	404518 <_vfiprintf_r+0x5a4>
  404bf4:	f88d 5037 	strb.w	r5, [sp, #55]	; 0x37
  404bf8:	e469      	b.n	4044ce <_vfiprintf_r+0x55a>
  404bfa:	bf00      	nop
  404bfc:	00406b70 	.word	0x00406b70
  404c00:	00406b68 	.word	0x00406b68

00404c04 <__sbprintf>:
  404c04:	e92d 41f0 	stmdb	sp!, {r4, r5, r6, r7, r8, lr}
  404c08:	460c      	mov	r4, r1
  404c0a:	f5ad 6d8d 	sub.w	sp, sp, #1128	; 0x468
  404c0e:	8989      	ldrh	r1, [r1, #12]
  404c10:	6e66      	ldr	r6, [r4, #100]	; 0x64
  404c12:	89e5      	ldrh	r5, [r4, #14]
  404c14:	9619      	str	r6, [sp, #100]	; 0x64
  404c16:	f021 0102 	bic.w	r1, r1, #2
  404c1a:	4606      	mov	r6, r0
  404c1c:	69e0      	ldr	r0, [r4, #28]
  404c1e:	f8ad 100c 	strh.w	r1, [sp, #12]
  404c22:	4617      	mov	r7, r2
  404c24:	f44f 6180 	mov.w	r1, #1024	; 0x400
  404c28:	6a62      	ldr	r2, [r4, #36]	; 0x24
  404c2a:	f8ad 500e 	strh.w	r5, [sp, #14]
  404c2e:	4698      	mov	r8, r3
  404c30:	ad1a      	add	r5, sp, #104	; 0x68
  404c32:	2300      	movs	r3, #0
  404c34:	9007      	str	r0, [sp, #28]
  404c36:	a816      	add	r0, sp, #88	; 0x58
  404c38:	9209      	str	r2, [sp, #36]	; 0x24
  404c3a:	9306      	str	r3, [sp, #24]
  404c3c:	9500      	str	r5, [sp, #0]
  404c3e:	9504      	str	r5, [sp, #16]
  404c40:	9102      	str	r1, [sp, #8]
  404c42:	9105      	str	r1, [sp, #20]
  404c44:	f000 fd48 	bl	4056d8 <__retarget_lock_init_recursive>
  404c48:	4643      	mov	r3, r8
  404c4a:	463a      	mov	r2, r7
  404c4c:	4669      	mov	r1, sp
  404c4e:	4630      	mov	r0, r6
  404c50:	f7ff f990 	bl	403f74 <_vfiprintf_r>
  404c54:	1e05      	subs	r5, r0, #0
  404c56:	db07      	blt.n	404c68 <__sbprintf+0x64>
  404c58:	4630      	mov	r0, r6
  404c5a:	4669      	mov	r1, sp
  404c5c:	f000 f928 	bl	404eb0 <_fflush_r>
  404c60:	2800      	cmp	r0, #0
  404c62:	bf18      	it	ne
  404c64:	f04f 35ff 	movne.w	r5, #4294967295
  404c68:	f8bd 300c 	ldrh.w	r3, [sp, #12]
  404c6c:	065b      	lsls	r3, r3, #25
  404c6e:	d503      	bpl.n	404c78 <__sbprintf+0x74>
  404c70:	89a3      	ldrh	r3, [r4, #12]
  404c72:	f043 0340 	orr.w	r3, r3, #64	; 0x40
  404c76:	81a3      	strh	r3, [r4, #12]
  404c78:	9816      	ldr	r0, [sp, #88]	; 0x58
  404c7a:	f000 fd2f 	bl	4056dc <__retarget_lock_close_recursive>
  404c7e:	4628      	mov	r0, r5
  404c80:	f50d 6d8d 	add.w	sp, sp, #1128	; 0x468
  404c84:	e8bd 81f0 	ldmia.w	sp!, {r4, r5, r6, r7, r8, pc}

00404c88 <__swsetup_r>:
  404c88:	b538      	push	{r3, r4, r5, lr}
  404c8a:	4b30      	ldr	r3, [pc, #192]	; (404d4c <__swsetup_r+0xc4>)
  404c8c:	681b      	ldr	r3, [r3, #0]
  404c8e:	4605      	mov	r5, r0
  404c90:	460c      	mov	r4, r1
  404c92:	b113      	cbz	r3, 404c9a <__swsetup_r+0x12>
  404c94:	6b9a      	ldr	r2, [r3, #56]	; 0x38
  404c96:	2a00      	cmp	r2, #0
  404c98:	d038      	beq.n	404d0c <__swsetup_r+0x84>
  404c9a:	f9b4 200c 	ldrsh.w	r2, [r4, #12]
  404c9e:	b293      	uxth	r3, r2
  404ca0:	0718      	lsls	r0, r3, #28
  404ca2:	d50c      	bpl.n	404cbe <__swsetup_r+0x36>
  404ca4:	6920      	ldr	r0, [r4, #16]
  404ca6:	b1a8      	cbz	r0, 404cd4 <__swsetup_r+0x4c>
  404ca8:	f013 0201 	ands.w	r2, r3, #1
  404cac:	d01e      	beq.n	404cec <__swsetup_r+0x64>
  404cae:	6963      	ldr	r3, [r4, #20]
  404cb0:	2200      	movs	r2, #0
  404cb2:	425b      	negs	r3, r3
  404cb4:	61a3      	str	r3, [r4, #24]
  404cb6:	60a2      	str	r2, [r4, #8]
  404cb8:	b1f0      	cbz	r0, 404cf8 <__swsetup_r+0x70>
  404cba:	2000      	movs	r0, #0
  404cbc:	bd38      	pop	{r3, r4, r5, pc}
  404cbe:	06d9      	lsls	r1, r3, #27
  404cc0:	d53c      	bpl.n	404d3c <__swsetup_r+0xb4>
  404cc2:	0758      	lsls	r0, r3, #29
  404cc4:	d426      	bmi.n	404d14 <__swsetup_r+0x8c>
  404cc6:	6920      	ldr	r0, [r4, #16]
  404cc8:	f042 0308 	orr.w	r3, r2, #8
  404ccc:	81a3      	strh	r3, [r4, #12]
  404cce:	b29b      	uxth	r3, r3
  404cd0:	2800      	cmp	r0, #0
  404cd2:	d1e9      	bne.n	404ca8 <__swsetup_r+0x20>
  404cd4:	f403 7220 	and.w	r2, r3, #640	; 0x280
  404cd8:	f5b2 7f00 	cmp.w	r2, #512	; 0x200
  404cdc:	d0e4      	beq.n	404ca8 <__swsetup_r+0x20>
  404cde:	4628      	mov	r0, r5
  404ce0:	4621      	mov	r1, r4
  404ce2:	f000 fd2f 	bl	405744 <__smakebuf_r>
  404ce6:	89a3      	ldrh	r3, [r4, #12]
  404ce8:	6920      	ldr	r0, [r4, #16]
  404cea:	e7dd      	b.n	404ca8 <__swsetup_r+0x20>
  404cec:	0799      	lsls	r1, r3, #30
  404cee:	bf58      	it	pl
  404cf0:	6962      	ldrpl	r2, [r4, #20]
  404cf2:	60a2      	str	r2, [r4, #8]
  404cf4:	2800      	cmp	r0, #0
  404cf6:	d1e0      	bne.n	404cba <__swsetup_r+0x32>
  404cf8:	f9b4 300c 	ldrsh.w	r3, [r4, #12]
  404cfc:	061a      	lsls	r2, r3, #24
  404cfe:	d5dd      	bpl.n	404cbc <__swsetup_r+0x34>
  404d00:	f043 0340 	orr.w	r3, r3, #64	; 0x40
  404d04:	81a3      	strh	r3, [r4, #12]
  404d06:	f04f 30ff 	mov.w	r0, #4294967295
  404d0a:	bd38      	pop	{r3, r4, r5, pc}
  404d0c:	4618      	mov	r0, r3
  404d0e:	f000 f927 	bl	404f60 <__sinit>
  404d12:	e7c2      	b.n	404c9a <__swsetup_r+0x12>
  404d14:	6b21      	ldr	r1, [r4, #48]	; 0x30
  404d16:	b151      	cbz	r1, 404d2e <__swsetup_r+0xa6>
  404d18:	f104 0340 	add.w	r3, r4, #64	; 0x40
  404d1c:	4299      	cmp	r1, r3
  404d1e:	d004      	beq.n	404d2a <__swsetup_r+0xa2>
  404d20:	4628      	mov	r0, r5
  404d22:	f000 fa43 	bl	4051ac <_free_r>
  404d26:	f9b4 200c 	ldrsh.w	r2, [r4, #12]
  404d2a:	2300      	movs	r3, #0
  404d2c:	6323      	str	r3, [r4, #48]	; 0x30
  404d2e:	2300      	movs	r3, #0
  404d30:	6920      	ldr	r0, [r4, #16]
  404d32:	6063      	str	r3, [r4, #4]
  404d34:	f022 0224 	bic.w	r2, r2, #36	; 0x24
  404d38:	6020      	str	r0, [r4, #0]
  404d3a:	e7c5      	b.n	404cc8 <__swsetup_r+0x40>
  404d3c:	f042 0240 	orr.w	r2, r2, #64	; 0x40
  404d40:	2309      	movs	r3, #9
  404d42:	602b      	str	r3, [r5, #0]
  404d44:	f04f 30ff 	mov.w	r0, #4294967295
  404d48:	81a2      	strh	r2, [r4, #12]
  404d4a:	bd38      	pop	{r3, r4, r5, pc}
  404d4c:	20000098 	.word	0x20000098

00404d50 <register_fini>:
  404d50:	4b02      	ldr	r3, [pc, #8]	; (404d5c <register_fini+0xc>)
  404d52:	b113      	cbz	r3, 404d5a <register_fini+0xa>
  404d54:	4802      	ldr	r0, [pc, #8]	; (404d60 <register_fini+0x10>)
  404d56:	f000 b805 	b.w	404d64 <atexit>
  404d5a:	4770      	bx	lr
  404d5c:	00000000 	.word	0x00000000
  404d60:	00404fd1 	.word	0x00404fd1

00404d64 <atexit>:
  404d64:	2300      	movs	r3, #0
  404d66:	4601      	mov	r1, r0
  404d68:	461a      	mov	r2, r3
  404d6a:	4618      	mov	r0, r3
  404d6c:	f001 bbdc 	b.w	406528 <__register_exitproc>

00404d70 <__sflush_r>:
  404d70:	f9b1 300c 	ldrsh.w	r3, [r1, #12]
  404d74:	b29a      	uxth	r2, r3
  404d76:	e92d 41f0 	stmdb	sp!, {r4, r5, r6, r7, r8, lr}
  404d7a:	460d      	mov	r5, r1
  404d7c:	0711      	lsls	r1, r2, #28
  404d7e:	4680      	mov	r8, r0
  404d80:	d43a      	bmi.n	404df8 <__sflush_r+0x88>
  404d82:	686a      	ldr	r2, [r5, #4]
  404d84:	f443 6300 	orr.w	r3, r3, #2048	; 0x800
  404d88:	2a00      	cmp	r2, #0
  404d8a:	81ab      	strh	r3, [r5, #12]
  404d8c:	dd6f      	ble.n	404e6e <__sflush_r+0xfe>
  404d8e:	6aac      	ldr	r4, [r5, #40]	; 0x28
  404d90:	2c00      	cmp	r4, #0
  404d92:	d049      	beq.n	404e28 <__sflush_r+0xb8>
  404d94:	2200      	movs	r2, #0
  404d96:	b29b      	uxth	r3, r3
  404d98:	f8d8 6000 	ldr.w	r6, [r8]
  404d9c:	f8c8 2000 	str.w	r2, [r8]
  404da0:	f413 5280 	ands.w	r2, r3, #4096	; 0x1000
  404da4:	d067      	beq.n	404e76 <__sflush_r+0x106>
  404da6:	6d2a      	ldr	r2, [r5, #80]	; 0x50
  404da8:	075f      	lsls	r7, r3, #29
  404daa:	d505      	bpl.n	404db8 <__sflush_r+0x48>
  404dac:	6869      	ldr	r1, [r5, #4]
  404dae:	6b2b      	ldr	r3, [r5, #48]	; 0x30
  404db0:	1a52      	subs	r2, r2, r1
  404db2:	b10b      	cbz	r3, 404db8 <__sflush_r+0x48>
  404db4:	6beb      	ldr	r3, [r5, #60]	; 0x3c
  404db6:	1ad2      	subs	r2, r2, r3
  404db8:	2300      	movs	r3, #0
  404dba:	69e9      	ldr	r1, [r5, #28]
  404dbc:	4640      	mov	r0, r8
  404dbe:	47a0      	blx	r4
  404dc0:	1c44      	adds	r4, r0, #1
  404dc2:	d03c      	beq.n	404e3e <__sflush_r+0xce>
  404dc4:	f9b5 300c 	ldrsh.w	r3, [r5, #12]
  404dc8:	692a      	ldr	r2, [r5, #16]
  404dca:	602a      	str	r2, [r5, #0]
  404dcc:	f423 6300 	bic.w	r3, r3, #2048	; 0x800
  404dd0:	2200      	movs	r2, #0
  404dd2:	81ab      	strh	r3, [r5, #12]
  404dd4:	04db      	lsls	r3, r3, #19
  404dd6:	606a      	str	r2, [r5, #4]
  404dd8:	d447      	bmi.n	404e6a <__sflush_r+0xfa>
  404dda:	6b29      	ldr	r1, [r5, #48]	; 0x30
  404ddc:	f8c8 6000 	str.w	r6, [r8]
  404de0:	b311      	cbz	r1, 404e28 <__sflush_r+0xb8>
  404de2:	f105 0340 	add.w	r3, r5, #64	; 0x40
  404de6:	4299      	cmp	r1, r3
  404de8:	d002      	beq.n	404df0 <__sflush_r+0x80>
  404dea:	4640      	mov	r0, r8
  404dec:	f000 f9de 	bl	4051ac <_free_r>
  404df0:	2000      	movs	r0, #0
  404df2:	6328      	str	r0, [r5, #48]	; 0x30
  404df4:	e8bd 81f0 	ldmia.w	sp!, {r4, r5, r6, r7, r8, pc}
  404df8:	692e      	ldr	r6, [r5, #16]
  404dfa:	b1ae      	cbz	r6, 404e28 <__sflush_r+0xb8>
  404dfc:	682c      	ldr	r4, [r5, #0]
  404dfe:	602e      	str	r6, [r5, #0]
  404e00:	0791      	lsls	r1, r2, #30
  404e02:	bf0c      	ite	eq
  404e04:	696b      	ldreq	r3, [r5, #20]
  404e06:	2300      	movne	r3, #0
  404e08:	1ba4      	subs	r4, r4, r6
  404e0a:	60ab      	str	r3, [r5, #8]
  404e0c:	e00a      	b.n	404e24 <__sflush_r+0xb4>
  404e0e:	4623      	mov	r3, r4
  404e10:	4632      	mov	r2, r6
  404e12:	6a6f      	ldr	r7, [r5, #36]	; 0x24
  404e14:	69e9      	ldr	r1, [r5, #28]
  404e16:	4640      	mov	r0, r8
  404e18:	47b8      	blx	r7
  404e1a:	2800      	cmp	r0, #0
  404e1c:	eba4 0400 	sub.w	r4, r4, r0
  404e20:	4406      	add	r6, r0
  404e22:	dd04      	ble.n	404e2e <__sflush_r+0xbe>
  404e24:	2c00      	cmp	r4, #0
  404e26:	dcf2      	bgt.n	404e0e <__sflush_r+0x9e>
  404e28:	2000      	movs	r0, #0
  404e2a:	e8bd 81f0 	ldmia.w	sp!, {r4, r5, r6, r7, r8, pc}
  404e2e:	89ab      	ldrh	r3, [r5, #12]
  404e30:	f043 0340 	orr.w	r3, r3, #64	; 0x40
  404e34:	81ab      	strh	r3, [r5, #12]
  404e36:	f04f 30ff 	mov.w	r0, #4294967295
  404e3a:	e8bd 81f0 	ldmia.w	sp!, {r4, r5, r6, r7, r8, pc}
  404e3e:	f8d8 4000 	ldr.w	r4, [r8]
  404e42:	2c1d      	cmp	r4, #29
  404e44:	d8f3      	bhi.n	404e2e <__sflush_r+0xbe>
  404e46:	4b19      	ldr	r3, [pc, #100]	; (404eac <__sflush_r+0x13c>)
  404e48:	40e3      	lsrs	r3, r4
  404e4a:	43db      	mvns	r3, r3
  404e4c:	f013 0301 	ands.w	r3, r3, #1
  404e50:	d1ed      	bne.n	404e2e <__sflush_r+0xbe>
  404e52:	f9b5 200c 	ldrsh.w	r2, [r5, #12]
  404e56:	606b      	str	r3, [r5, #4]
  404e58:	f422 6300 	bic.w	r3, r2, #2048	; 0x800
  404e5c:	6929      	ldr	r1, [r5, #16]
  404e5e:	81ab      	strh	r3, [r5, #12]
  404e60:	04da      	lsls	r2, r3, #19
  404e62:	6029      	str	r1, [r5, #0]
  404e64:	d5b9      	bpl.n	404dda <__sflush_r+0x6a>
  404e66:	2c00      	cmp	r4, #0
  404e68:	d1b7      	bne.n	404dda <__sflush_r+0x6a>
  404e6a:	6528      	str	r0, [r5, #80]	; 0x50
  404e6c:	e7b5      	b.n	404dda <__sflush_r+0x6a>
  404e6e:	6bea      	ldr	r2, [r5, #60]	; 0x3c
  404e70:	2a00      	cmp	r2, #0
  404e72:	dc8c      	bgt.n	404d8e <__sflush_r+0x1e>
  404e74:	e7d8      	b.n	404e28 <__sflush_r+0xb8>
  404e76:	2301      	movs	r3, #1
  404e78:	69e9      	ldr	r1, [r5, #28]
  404e7a:	4640      	mov	r0, r8
  404e7c:	47a0      	blx	r4
  404e7e:	1c43      	adds	r3, r0, #1
  404e80:	4602      	mov	r2, r0
  404e82:	d002      	beq.n	404e8a <__sflush_r+0x11a>
  404e84:	89ab      	ldrh	r3, [r5, #12]
  404e86:	6aac      	ldr	r4, [r5, #40]	; 0x28
  404e88:	e78e      	b.n	404da8 <__sflush_r+0x38>
  404e8a:	f8d8 3000 	ldr.w	r3, [r8]
  404e8e:	2b00      	cmp	r3, #0
  404e90:	d0f8      	beq.n	404e84 <__sflush_r+0x114>
  404e92:	2b1d      	cmp	r3, #29
  404e94:	d001      	beq.n	404e9a <__sflush_r+0x12a>
  404e96:	2b16      	cmp	r3, #22
  404e98:	d102      	bne.n	404ea0 <__sflush_r+0x130>
  404e9a:	f8c8 6000 	str.w	r6, [r8]
  404e9e:	e7c3      	b.n	404e28 <__sflush_r+0xb8>
  404ea0:	89ab      	ldrh	r3, [r5, #12]
  404ea2:	f043 0340 	orr.w	r3, r3, #64	; 0x40
  404ea6:	81ab      	strh	r3, [r5, #12]
  404ea8:	e8bd 81f0 	ldmia.w	sp!, {r4, r5, r6, r7, r8, pc}
  404eac:	20400001 	.word	0x20400001

00404eb0 <_fflush_r>:
  404eb0:	b538      	push	{r3, r4, r5, lr}
  404eb2:	460d      	mov	r5, r1
  404eb4:	4604      	mov	r4, r0
  404eb6:	b108      	cbz	r0, 404ebc <_fflush_r+0xc>
  404eb8:	6b83      	ldr	r3, [r0, #56]	; 0x38
  404eba:	b1bb      	cbz	r3, 404eec <_fflush_r+0x3c>
  404ebc:	f9b5 000c 	ldrsh.w	r0, [r5, #12]
  404ec0:	b188      	cbz	r0, 404ee6 <_fflush_r+0x36>
  404ec2:	6e6b      	ldr	r3, [r5, #100]	; 0x64
  404ec4:	07db      	lsls	r3, r3, #31
  404ec6:	d401      	bmi.n	404ecc <_fflush_r+0x1c>
  404ec8:	0581      	lsls	r1, r0, #22
  404eca:	d517      	bpl.n	404efc <_fflush_r+0x4c>
  404ecc:	4620      	mov	r0, r4
  404ece:	4629      	mov	r1, r5
  404ed0:	f7ff ff4e 	bl	404d70 <__sflush_r>
  404ed4:	6e6b      	ldr	r3, [r5, #100]	; 0x64
  404ed6:	07da      	lsls	r2, r3, #31
  404ed8:	4604      	mov	r4, r0
  404eda:	d402      	bmi.n	404ee2 <_fflush_r+0x32>
  404edc:	89ab      	ldrh	r3, [r5, #12]
  404ede:	059b      	lsls	r3, r3, #22
  404ee0:	d507      	bpl.n	404ef2 <_fflush_r+0x42>
  404ee2:	4620      	mov	r0, r4
  404ee4:	bd38      	pop	{r3, r4, r5, pc}
  404ee6:	4604      	mov	r4, r0
  404ee8:	4620      	mov	r0, r4
  404eea:	bd38      	pop	{r3, r4, r5, pc}
  404eec:	f000 f838 	bl	404f60 <__sinit>
  404ef0:	e7e4      	b.n	404ebc <_fflush_r+0xc>
  404ef2:	6da8      	ldr	r0, [r5, #88]	; 0x58
  404ef4:	f000 fbf6 	bl	4056e4 <__retarget_lock_release_recursive>
  404ef8:	4620      	mov	r0, r4
  404efa:	bd38      	pop	{r3, r4, r5, pc}
  404efc:	6da8      	ldr	r0, [r5, #88]	; 0x58
  404efe:	f000 fbef 	bl	4056e0 <__retarget_lock_acquire_recursive>
  404f02:	e7e3      	b.n	404ecc <_fflush_r+0x1c>

00404f04 <_cleanup_r>:
  404f04:	4901      	ldr	r1, [pc, #4]	; (404f0c <_cleanup_r+0x8>)
  404f06:	f000 bbaf 	b.w	405668 <_fwalk_reent>
  404f0a:	bf00      	nop
  404f0c:	00406611 	.word	0x00406611

00404f10 <std.isra.0>:
  404f10:	b510      	push	{r4, lr}
  404f12:	2300      	movs	r3, #0
  404f14:	4604      	mov	r4, r0
  404f16:	8181      	strh	r1, [r0, #12]
  404f18:	81c2      	strh	r2, [r0, #14]
  404f1a:	6003      	str	r3, [r0, #0]
  404f1c:	6043      	str	r3, [r0, #4]
  404f1e:	6083      	str	r3, [r0, #8]
  404f20:	6643      	str	r3, [r0, #100]	; 0x64
  404f22:	6103      	str	r3, [r0, #16]
  404f24:	6143      	str	r3, [r0, #20]
  404f26:	6183      	str	r3, [r0, #24]
  404f28:	4619      	mov	r1, r3
  404f2a:	2208      	movs	r2, #8
  404f2c:	305c      	adds	r0, #92	; 0x5c
  404f2e:	f7fe fec3 	bl	403cb8 <memset>
  404f32:	4807      	ldr	r0, [pc, #28]	; (404f50 <std.isra.0+0x40>)
  404f34:	4907      	ldr	r1, [pc, #28]	; (404f54 <std.isra.0+0x44>)
  404f36:	4a08      	ldr	r2, [pc, #32]	; (404f58 <std.isra.0+0x48>)
  404f38:	4b08      	ldr	r3, [pc, #32]	; (404f5c <std.isra.0+0x4c>)
  404f3a:	6220      	str	r0, [r4, #32]
  404f3c:	61e4      	str	r4, [r4, #28]
  404f3e:	6261      	str	r1, [r4, #36]	; 0x24
  404f40:	62a2      	str	r2, [r4, #40]	; 0x28
  404f42:	62e3      	str	r3, [r4, #44]	; 0x2c
  404f44:	f104 0058 	add.w	r0, r4, #88	; 0x58
  404f48:	e8bd 4010 	ldmia.w	sp!, {r4, lr}
  404f4c:	f000 bbc4 	b.w	4056d8 <__retarget_lock_init_recursive>
  404f50:	00406271 	.word	0x00406271
  404f54:	00406295 	.word	0x00406295
  404f58:	004062d1 	.word	0x004062d1
  404f5c:	004062f1 	.word	0x004062f1

00404f60 <__sinit>:
  404f60:	b510      	push	{r4, lr}
  404f62:	4604      	mov	r4, r0
  404f64:	4812      	ldr	r0, [pc, #72]	; (404fb0 <__sinit+0x50>)
  404f66:	f000 fbbb 	bl	4056e0 <__retarget_lock_acquire_recursive>
  404f6a:	6ba2      	ldr	r2, [r4, #56]	; 0x38
  404f6c:	b9d2      	cbnz	r2, 404fa4 <__sinit+0x44>
  404f6e:	f504 733b 	add.w	r3, r4, #748	; 0x2ec
  404f72:	4810      	ldr	r0, [pc, #64]	; (404fb4 <__sinit+0x54>)
  404f74:	f8c4 32e8 	str.w	r3, [r4, #744]	; 0x2e8
  404f78:	2103      	movs	r1, #3
  404f7a:	f8c4 22e0 	str.w	r2, [r4, #736]	; 0x2e0
  404f7e:	63e0      	str	r0, [r4, #60]	; 0x3c
  404f80:	f8c4 12e4 	str.w	r1, [r4, #740]	; 0x2e4
  404f84:	6860      	ldr	r0, [r4, #4]
  404f86:	2104      	movs	r1, #4
  404f88:	f7ff ffc2 	bl	404f10 <std.isra.0>
  404f8c:	2201      	movs	r2, #1
  404f8e:	2109      	movs	r1, #9
  404f90:	68a0      	ldr	r0, [r4, #8]
  404f92:	f7ff ffbd 	bl	404f10 <std.isra.0>
  404f96:	2202      	movs	r2, #2
  404f98:	2112      	movs	r1, #18
  404f9a:	68e0      	ldr	r0, [r4, #12]
  404f9c:	f7ff ffb8 	bl	404f10 <std.isra.0>
  404fa0:	2301      	movs	r3, #1
  404fa2:	63a3      	str	r3, [r4, #56]	; 0x38
  404fa4:	4802      	ldr	r0, [pc, #8]	; (404fb0 <__sinit+0x50>)
  404fa6:	e8bd 4010 	ldmia.w	sp!, {r4, lr}
  404faa:	f000 bb9b 	b.w	4056e4 <__retarget_lock_release_recursive>
  404fae:	bf00      	nop
  404fb0:	2001b8a4 	.word	0x2001b8a4
  404fb4:	00404f05 	.word	0x00404f05

00404fb8 <__sfp_lock_acquire>:
  404fb8:	4801      	ldr	r0, [pc, #4]	; (404fc0 <__sfp_lock_acquire+0x8>)
  404fba:	f000 bb91 	b.w	4056e0 <__retarget_lock_acquire_recursive>
  404fbe:	bf00      	nop
  404fc0:	2001b8b8 	.word	0x2001b8b8

00404fc4 <__sfp_lock_release>:
  404fc4:	4801      	ldr	r0, [pc, #4]	; (404fcc <__sfp_lock_release+0x8>)
  404fc6:	f000 bb8d 	b.w	4056e4 <__retarget_lock_release_recursive>
  404fca:	bf00      	nop
  404fcc:	2001b8b8 	.word	0x2001b8b8

00404fd0 <__libc_fini_array>:
  404fd0:	b538      	push	{r3, r4, r5, lr}
  404fd2:	4c0a      	ldr	r4, [pc, #40]	; (404ffc <__libc_fini_array+0x2c>)
  404fd4:	4d0a      	ldr	r5, [pc, #40]	; (405000 <__libc_fini_array+0x30>)
  404fd6:	1b64      	subs	r4, r4, r5
  404fd8:	10a4      	asrs	r4, r4, #2
  404fda:	d00a      	beq.n	404ff2 <__libc_fini_array+0x22>
  404fdc:	f104 4380 	add.w	r3, r4, #1073741824	; 0x40000000
  404fe0:	3b01      	subs	r3, #1
  404fe2:	eb05 0583 	add.w	r5, r5, r3, lsl #2
  404fe6:	3c01      	subs	r4, #1
  404fe8:	f855 3904 	ldr.w	r3, [r5], #-4
  404fec:	4798      	blx	r3
  404fee:	2c00      	cmp	r4, #0
  404ff0:	d1f9      	bne.n	404fe6 <__libc_fini_array+0x16>
  404ff2:	e8bd 4038 	ldmia.w	sp!, {r3, r4, r5, lr}
  404ff6:	f001 be5f 	b.w	406cb8 <_fini>
  404ffa:	bf00      	nop
  404ffc:	00406cc8 	.word	0x00406cc8
  405000:	00406cc4 	.word	0x00406cc4

00405004 <__fputwc>:
  405004:	e92d 47f0 	stmdb	sp!, {r4, r5, r6, r7, r8, r9, sl, lr}
  405008:	b082      	sub	sp, #8
  40500a:	4680      	mov	r8, r0
  40500c:	4689      	mov	r9, r1
  40500e:	4614      	mov	r4, r2
  405010:	f000 fb54 	bl	4056bc <__locale_mb_cur_max>
  405014:	2801      	cmp	r0, #1
  405016:	d036      	beq.n	405086 <__fputwc+0x82>
  405018:	464a      	mov	r2, r9
  40501a:	f104 035c 	add.w	r3, r4, #92	; 0x5c
  40501e:	a901      	add	r1, sp, #4
  405020:	4640      	mov	r0, r8
  405022:	f001 fa33 	bl	40648c <_wcrtomb_r>
  405026:	1c42      	adds	r2, r0, #1
  405028:	4606      	mov	r6, r0
  40502a:	d025      	beq.n	405078 <__fputwc+0x74>
  40502c:	b3a8      	cbz	r0, 40509a <__fputwc+0x96>
  40502e:	f89d e004 	ldrb.w	lr, [sp, #4]
  405032:	2500      	movs	r5, #0
  405034:	f10d 0a04 	add.w	sl, sp, #4
  405038:	e009      	b.n	40504e <__fputwc+0x4a>
  40503a:	6823      	ldr	r3, [r4, #0]
  40503c:	1c5a      	adds	r2, r3, #1
  40503e:	6022      	str	r2, [r4, #0]
  405040:	f883 e000 	strb.w	lr, [r3]
  405044:	3501      	adds	r5, #1
  405046:	42b5      	cmp	r5, r6
  405048:	d227      	bcs.n	40509a <__fputwc+0x96>
  40504a:	f815 e00a 	ldrb.w	lr, [r5, sl]
  40504e:	68a3      	ldr	r3, [r4, #8]
  405050:	3b01      	subs	r3, #1
  405052:	2b00      	cmp	r3, #0
  405054:	60a3      	str	r3, [r4, #8]
  405056:	daf0      	bge.n	40503a <__fputwc+0x36>
  405058:	69a7      	ldr	r7, [r4, #24]
  40505a:	42bb      	cmp	r3, r7
  40505c:	4671      	mov	r1, lr
  40505e:	4622      	mov	r2, r4
  405060:	4640      	mov	r0, r8
  405062:	db02      	blt.n	40506a <__fputwc+0x66>
  405064:	f1be 0f0a 	cmp.w	lr, #10
  405068:	d1e7      	bne.n	40503a <__fputwc+0x36>
  40506a:	f001 f9b7 	bl	4063dc <__swbuf_r>
  40506e:	1c43      	adds	r3, r0, #1
  405070:	d1e8      	bne.n	405044 <__fputwc+0x40>
  405072:	b002      	add	sp, #8
  405074:	e8bd 87f0 	ldmia.w	sp!, {r4, r5, r6, r7, r8, r9, sl, pc}
  405078:	89a3      	ldrh	r3, [r4, #12]
  40507a:	f043 0340 	orr.w	r3, r3, #64	; 0x40
  40507e:	81a3      	strh	r3, [r4, #12]
  405080:	b002      	add	sp, #8
  405082:	e8bd 87f0 	ldmia.w	sp!, {r4, r5, r6, r7, r8, r9, sl, pc}
  405086:	f109 33ff 	add.w	r3, r9, #4294967295
  40508a:	2bfe      	cmp	r3, #254	; 0xfe
  40508c:	d8c4      	bhi.n	405018 <__fputwc+0x14>
  40508e:	fa5f fe89 	uxtb.w	lr, r9
  405092:	4606      	mov	r6, r0
  405094:	f88d e004 	strb.w	lr, [sp, #4]
  405098:	e7cb      	b.n	405032 <__fputwc+0x2e>
  40509a:	4648      	mov	r0, r9
  40509c:	b002      	add	sp, #8
  40509e:	e8bd 87f0 	ldmia.w	sp!, {r4, r5, r6, r7, r8, r9, sl, pc}
  4050a2:	bf00      	nop

004050a4 <_fputwc_r>:
  4050a4:	b530      	push	{r4, r5, lr}
  4050a6:	6e53      	ldr	r3, [r2, #100]	; 0x64
  4050a8:	f013 0f01 	tst.w	r3, #1
  4050ac:	f9b2 300c 	ldrsh.w	r3, [r2, #12]
  4050b0:	4614      	mov	r4, r2
  4050b2:	b083      	sub	sp, #12
  4050b4:	4605      	mov	r5, r0
  4050b6:	b29a      	uxth	r2, r3
  4050b8:	d101      	bne.n	4050be <_fputwc_r+0x1a>
  4050ba:	0590      	lsls	r0, r2, #22
  4050bc:	d51c      	bpl.n	4050f8 <_fputwc_r+0x54>
  4050be:	0490      	lsls	r0, r2, #18
  4050c0:	d406      	bmi.n	4050d0 <_fputwc_r+0x2c>
  4050c2:	6e62      	ldr	r2, [r4, #100]	; 0x64
  4050c4:	f443 5300 	orr.w	r3, r3, #8192	; 0x2000
  4050c8:	f442 5200 	orr.w	r2, r2, #8192	; 0x2000
  4050cc:	81a3      	strh	r3, [r4, #12]
  4050ce:	6662      	str	r2, [r4, #100]	; 0x64
  4050d0:	4628      	mov	r0, r5
  4050d2:	4622      	mov	r2, r4
  4050d4:	f7ff ff96 	bl	405004 <__fputwc>
  4050d8:	6e63      	ldr	r3, [r4, #100]	; 0x64
  4050da:	07da      	lsls	r2, r3, #31
  4050dc:	4605      	mov	r5, r0
  4050de:	d402      	bmi.n	4050e6 <_fputwc_r+0x42>
  4050e0:	89a3      	ldrh	r3, [r4, #12]
  4050e2:	059b      	lsls	r3, r3, #22
  4050e4:	d502      	bpl.n	4050ec <_fputwc_r+0x48>
  4050e6:	4628      	mov	r0, r5
  4050e8:	b003      	add	sp, #12
  4050ea:	bd30      	pop	{r4, r5, pc}
  4050ec:	6da0      	ldr	r0, [r4, #88]	; 0x58
  4050ee:	f000 faf9 	bl	4056e4 <__retarget_lock_release_recursive>
  4050f2:	4628      	mov	r0, r5
  4050f4:	b003      	add	sp, #12
  4050f6:	bd30      	pop	{r4, r5, pc}
  4050f8:	6da0      	ldr	r0, [r4, #88]	; 0x58
  4050fa:	9101      	str	r1, [sp, #4]
  4050fc:	f000 faf0 	bl	4056e0 <__retarget_lock_acquire_recursive>
  405100:	f9b4 300c 	ldrsh.w	r3, [r4, #12]
  405104:	9901      	ldr	r1, [sp, #4]
  405106:	b29a      	uxth	r2, r3
  405108:	e7d9      	b.n	4050be <_fputwc_r+0x1a>
  40510a:	bf00      	nop

0040510c <_malloc_trim_r>:
  40510c:	b5f8      	push	{r3, r4, r5, r6, r7, lr}
  40510e:	4f24      	ldr	r7, [pc, #144]	; (4051a0 <_malloc_trim_r+0x94>)
  405110:	460c      	mov	r4, r1
  405112:	4606      	mov	r6, r0
  405114:	f000 fee8 	bl	405ee8 <__malloc_lock>
  405118:	68bb      	ldr	r3, [r7, #8]
  40511a:	685d      	ldr	r5, [r3, #4]
  40511c:	f5c4 617e 	rsb	r1, r4, #4064	; 0xfe0
  405120:	310f      	adds	r1, #15
  405122:	f025 0503 	bic.w	r5, r5, #3
  405126:	4429      	add	r1, r5
  405128:	f421 617f 	bic.w	r1, r1, #4080	; 0xff0
  40512c:	f021 010f 	bic.w	r1, r1, #15
  405130:	f5a1 5480 	sub.w	r4, r1, #4096	; 0x1000
  405134:	f5b4 5f80 	cmp.w	r4, #4096	; 0x1000
  405138:	db07      	blt.n	40514a <_malloc_trim_r+0x3e>
  40513a:	2100      	movs	r1, #0
  40513c:	4630      	mov	r0, r6
  40513e:	f001 f885 	bl	40624c <_sbrk_r>
  405142:	68bb      	ldr	r3, [r7, #8]
  405144:	442b      	add	r3, r5
  405146:	4298      	cmp	r0, r3
  405148:	d004      	beq.n	405154 <_malloc_trim_r+0x48>
  40514a:	4630      	mov	r0, r6
  40514c:	f000 fed2 	bl	405ef4 <__malloc_unlock>
  405150:	2000      	movs	r0, #0
  405152:	bdf8      	pop	{r3, r4, r5, r6, r7, pc}
  405154:	4261      	negs	r1, r4
  405156:	4630      	mov	r0, r6
  405158:	f001 f878 	bl	40624c <_sbrk_r>
  40515c:	3001      	adds	r0, #1
  40515e:	d00d      	beq.n	40517c <_malloc_trim_r+0x70>
  405160:	4b10      	ldr	r3, [pc, #64]	; (4051a4 <_malloc_trim_r+0x98>)
  405162:	68ba      	ldr	r2, [r7, #8]
  405164:	6819      	ldr	r1, [r3, #0]
  405166:	1b2d      	subs	r5, r5, r4
  405168:	f045 0501 	orr.w	r5, r5, #1
  40516c:	4630      	mov	r0, r6
  40516e:	1b09      	subs	r1, r1, r4
  405170:	6055      	str	r5, [r2, #4]
  405172:	6019      	str	r1, [r3, #0]
  405174:	f000 febe 	bl	405ef4 <__malloc_unlock>
  405178:	2001      	movs	r0, #1
  40517a:	bdf8      	pop	{r3, r4, r5, r6, r7, pc}
  40517c:	2100      	movs	r1, #0
  40517e:	4630      	mov	r0, r6
  405180:	f001 f864 	bl	40624c <_sbrk_r>
  405184:	68ba      	ldr	r2, [r7, #8]
  405186:	1a83      	subs	r3, r0, r2
  405188:	2b0f      	cmp	r3, #15
  40518a:	ddde      	ble.n	40514a <_malloc_trim_r+0x3e>
  40518c:	4c06      	ldr	r4, [pc, #24]	; (4051a8 <_malloc_trim_r+0x9c>)
  40518e:	4905      	ldr	r1, [pc, #20]	; (4051a4 <_malloc_trim_r+0x98>)
  405190:	6824      	ldr	r4, [r4, #0]
  405192:	f043 0301 	orr.w	r3, r3, #1
  405196:	1b00      	subs	r0, r0, r4
  405198:	6053      	str	r3, [r2, #4]
  40519a:	6008      	str	r0, [r1, #0]
  40519c:	e7d5      	b.n	40514a <_malloc_trim_r+0x3e>
  40519e:	bf00      	nop
  4051a0:	20000638 	.word	0x20000638
  4051a4:	20013834 	.word	0x20013834
  4051a8:	20000a40 	.word	0x20000a40

004051ac <_free_r>:
  4051ac:	2900      	cmp	r1, #0
  4051ae:	d044      	beq.n	40523a <_free_r+0x8e>
  4051b0:	e92d 41f0 	stmdb	sp!, {r4, r5, r6, r7, r8, lr}
  4051b4:	460d      	mov	r5, r1
  4051b6:	4680      	mov	r8, r0
  4051b8:	f000 fe96 	bl	405ee8 <__malloc_lock>
  4051bc:	f855 7c04 	ldr.w	r7, [r5, #-4]
  4051c0:	4969      	ldr	r1, [pc, #420]	; (405368 <_free_r+0x1bc>)
  4051c2:	f027 0301 	bic.w	r3, r7, #1
  4051c6:	f1a5 0408 	sub.w	r4, r5, #8
  4051ca:	18e2      	adds	r2, r4, r3
  4051cc:	688e      	ldr	r6, [r1, #8]
  4051ce:	6850      	ldr	r0, [r2, #4]
  4051d0:	42b2      	cmp	r2, r6
  4051d2:	f020 0003 	bic.w	r0, r0, #3
  4051d6:	d05e      	beq.n	405296 <_free_r+0xea>
  4051d8:	07fe      	lsls	r6, r7, #31
  4051da:	6050      	str	r0, [r2, #4]
  4051dc:	d40b      	bmi.n	4051f6 <_free_r+0x4a>
  4051de:	f855 7c08 	ldr.w	r7, [r5, #-8]
  4051e2:	1be4      	subs	r4, r4, r7
  4051e4:	f101 0e08 	add.w	lr, r1, #8
  4051e8:	68a5      	ldr	r5, [r4, #8]
  4051ea:	4575      	cmp	r5, lr
  4051ec:	443b      	add	r3, r7
  4051ee:	d06d      	beq.n	4052cc <_free_r+0x120>
  4051f0:	68e7      	ldr	r7, [r4, #12]
  4051f2:	60ef      	str	r7, [r5, #12]
  4051f4:	60bd      	str	r5, [r7, #8]
  4051f6:	1815      	adds	r5, r2, r0
  4051f8:	686d      	ldr	r5, [r5, #4]
  4051fa:	07ed      	lsls	r5, r5, #31
  4051fc:	d53e      	bpl.n	40527c <_free_r+0xd0>
  4051fe:	f043 0201 	orr.w	r2, r3, #1
  405202:	6062      	str	r2, [r4, #4]
  405204:	50e3      	str	r3, [r4, r3]
  405206:	f5b3 7f00 	cmp.w	r3, #512	; 0x200
  40520a:	d217      	bcs.n	40523c <_free_r+0x90>
  40520c:	08db      	lsrs	r3, r3, #3
  40520e:	1c58      	adds	r0, r3, #1
  405210:	109a      	asrs	r2, r3, #2
  405212:	684d      	ldr	r5, [r1, #4]
  405214:	f851 7030 	ldr.w	r7, [r1, r0, lsl #3]
  405218:	60a7      	str	r7, [r4, #8]
  40521a:	2301      	movs	r3, #1
  40521c:	4093      	lsls	r3, r2
  40521e:	eb01 02c0 	add.w	r2, r1, r0, lsl #3
  405222:	432b      	orrs	r3, r5
  405224:	3a08      	subs	r2, #8
  405226:	60e2      	str	r2, [r4, #12]
  405228:	604b      	str	r3, [r1, #4]
  40522a:	f841 4030 	str.w	r4, [r1, r0, lsl #3]
  40522e:	60fc      	str	r4, [r7, #12]
  405230:	4640      	mov	r0, r8
  405232:	e8bd 41f0 	ldmia.w	sp!, {r4, r5, r6, r7, r8, lr}
  405236:	f000 be5d 	b.w	405ef4 <__malloc_unlock>
  40523a:	4770      	bx	lr
  40523c:	0a5a      	lsrs	r2, r3, #9
  40523e:	2a04      	cmp	r2, #4
  405240:	d852      	bhi.n	4052e8 <_free_r+0x13c>
  405242:	099a      	lsrs	r2, r3, #6
  405244:	f102 0739 	add.w	r7, r2, #57	; 0x39
  405248:	00ff      	lsls	r7, r7, #3
  40524a:	f102 0538 	add.w	r5, r2, #56	; 0x38
  40524e:	19c8      	adds	r0, r1, r7
  405250:	59ca      	ldr	r2, [r1, r7]
  405252:	3808      	subs	r0, #8
  405254:	4290      	cmp	r0, r2
  405256:	d04f      	beq.n	4052f8 <_free_r+0x14c>
  405258:	6851      	ldr	r1, [r2, #4]
  40525a:	f021 0103 	bic.w	r1, r1, #3
  40525e:	428b      	cmp	r3, r1
  405260:	d232      	bcs.n	4052c8 <_free_r+0x11c>
  405262:	6892      	ldr	r2, [r2, #8]
  405264:	4290      	cmp	r0, r2
  405266:	d1f7      	bne.n	405258 <_free_r+0xac>
  405268:	68c3      	ldr	r3, [r0, #12]
  40526a:	60a0      	str	r0, [r4, #8]
  40526c:	60e3      	str	r3, [r4, #12]
  40526e:	609c      	str	r4, [r3, #8]
  405270:	60c4      	str	r4, [r0, #12]
  405272:	4640      	mov	r0, r8
  405274:	e8bd 41f0 	ldmia.w	sp!, {r4, r5, r6, r7, r8, lr}
  405278:	f000 be3c 	b.w	405ef4 <__malloc_unlock>
  40527c:	6895      	ldr	r5, [r2, #8]
  40527e:	4f3b      	ldr	r7, [pc, #236]	; (40536c <_free_r+0x1c0>)
  405280:	42bd      	cmp	r5, r7
  405282:	4403      	add	r3, r0
  405284:	d040      	beq.n	405308 <_free_r+0x15c>
  405286:	68d0      	ldr	r0, [r2, #12]
  405288:	60e8      	str	r0, [r5, #12]
  40528a:	f043 0201 	orr.w	r2, r3, #1
  40528e:	6085      	str	r5, [r0, #8]
  405290:	6062      	str	r2, [r4, #4]
  405292:	50e3      	str	r3, [r4, r3]
  405294:	e7b7      	b.n	405206 <_free_r+0x5a>
  405296:	07ff      	lsls	r7, r7, #31
  405298:	4403      	add	r3, r0
  40529a:	d407      	bmi.n	4052ac <_free_r+0x100>
  40529c:	f855 2c08 	ldr.w	r2, [r5, #-8]
  4052a0:	1aa4      	subs	r4, r4, r2
  4052a2:	4413      	add	r3, r2
  4052a4:	68a0      	ldr	r0, [r4, #8]
  4052a6:	68e2      	ldr	r2, [r4, #12]
  4052a8:	60c2      	str	r2, [r0, #12]
  4052aa:	6090      	str	r0, [r2, #8]
  4052ac:	4a30      	ldr	r2, [pc, #192]	; (405370 <_free_r+0x1c4>)
  4052ae:	6812      	ldr	r2, [r2, #0]
  4052b0:	f043 0001 	orr.w	r0, r3, #1
  4052b4:	4293      	cmp	r3, r2
  4052b6:	6060      	str	r0, [r4, #4]
  4052b8:	608c      	str	r4, [r1, #8]
  4052ba:	d3b9      	bcc.n	405230 <_free_r+0x84>
  4052bc:	4b2d      	ldr	r3, [pc, #180]	; (405374 <_free_r+0x1c8>)
  4052be:	4640      	mov	r0, r8
  4052c0:	6819      	ldr	r1, [r3, #0]
  4052c2:	f7ff ff23 	bl	40510c <_malloc_trim_r>
  4052c6:	e7b3      	b.n	405230 <_free_r+0x84>
  4052c8:	4610      	mov	r0, r2
  4052ca:	e7cd      	b.n	405268 <_free_r+0xbc>
  4052cc:	1811      	adds	r1, r2, r0
  4052ce:	6849      	ldr	r1, [r1, #4]
  4052d0:	07c9      	lsls	r1, r1, #31
  4052d2:	d444      	bmi.n	40535e <_free_r+0x1b2>
  4052d4:	6891      	ldr	r1, [r2, #8]
  4052d6:	68d2      	ldr	r2, [r2, #12]
  4052d8:	60ca      	str	r2, [r1, #12]
  4052da:	4403      	add	r3, r0
  4052dc:	f043 0001 	orr.w	r0, r3, #1
  4052e0:	6091      	str	r1, [r2, #8]
  4052e2:	6060      	str	r0, [r4, #4]
  4052e4:	50e3      	str	r3, [r4, r3]
  4052e6:	e7a3      	b.n	405230 <_free_r+0x84>
  4052e8:	2a14      	cmp	r2, #20
  4052ea:	d816      	bhi.n	40531a <_free_r+0x16e>
  4052ec:	f102 075c 	add.w	r7, r2, #92	; 0x5c
  4052f0:	00ff      	lsls	r7, r7, #3
  4052f2:	f102 055b 	add.w	r5, r2, #91	; 0x5b
  4052f6:	e7aa      	b.n	40524e <_free_r+0xa2>
  4052f8:	10aa      	asrs	r2, r5, #2
  4052fa:	2301      	movs	r3, #1
  4052fc:	684d      	ldr	r5, [r1, #4]
  4052fe:	4093      	lsls	r3, r2
  405300:	432b      	orrs	r3, r5
  405302:	604b      	str	r3, [r1, #4]
  405304:	4603      	mov	r3, r0
  405306:	e7b0      	b.n	40526a <_free_r+0xbe>
  405308:	f043 0201 	orr.w	r2, r3, #1
  40530c:	614c      	str	r4, [r1, #20]
  40530e:	610c      	str	r4, [r1, #16]
  405310:	60e5      	str	r5, [r4, #12]
  405312:	60a5      	str	r5, [r4, #8]
  405314:	6062      	str	r2, [r4, #4]
  405316:	50e3      	str	r3, [r4, r3]
  405318:	e78a      	b.n	405230 <_free_r+0x84>
  40531a:	2a54      	cmp	r2, #84	; 0x54
  40531c:	d806      	bhi.n	40532c <_free_r+0x180>
  40531e:	0b1a      	lsrs	r2, r3, #12
  405320:	f102 076f 	add.w	r7, r2, #111	; 0x6f
  405324:	00ff      	lsls	r7, r7, #3
  405326:	f102 056e 	add.w	r5, r2, #110	; 0x6e
  40532a:	e790      	b.n	40524e <_free_r+0xa2>
  40532c:	f5b2 7faa 	cmp.w	r2, #340	; 0x154
  405330:	d806      	bhi.n	405340 <_free_r+0x194>
  405332:	0bda      	lsrs	r2, r3, #15
  405334:	f102 0778 	add.w	r7, r2, #120	; 0x78
  405338:	00ff      	lsls	r7, r7, #3
  40533a:	f102 0577 	add.w	r5, r2, #119	; 0x77
  40533e:	e786      	b.n	40524e <_free_r+0xa2>
  405340:	f240 5054 	movw	r0, #1364	; 0x554
  405344:	4282      	cmp	r2, r0
  405346:	d806      	bhi.n	405356 <_free_r+0x1aa>
  405348:	0c9a      	lsrs	r2, r3, #18
  40534a:	f102 077d 	add.w	r7, r2, #125	; 0x7d
  40534e:	00ff      	lsls	r7, r7, #3
  405350:	f102 057c 	add.w	r5, r2, #124	; 0x7c
  405354:	e77b      	b.n	40524e <_free_r+0xa2>
  405356:	f44f 777e 	mov.w	r7, #1016	; 0x3f8
  40535a:	257e      	movs	r5, #126	; 0x7e
  40535c:	e777      	b.n	40524e <_free_r+0xa2>
  40535e:	f043 0101 	orr.w	r1, r3, #1
  405362:	6061      	str	r1, [r4, #4]
  405364:	6013      	str	r3, [r2, #0]
  405366:	e763      	b.n	405230 <_free_r+0x84>
  405368:	20000638 	.word	0x20000638
  40536c:	20000640 	.word	0x20000640
  405370:	20000a44 	.word	0x20000a44
  405374:	20013864 	.word	0x20013864

00405378 <__sfvwrite_r>:
  405378:	6893      	ldr	r3, [r2, #8]
  40537a:	2b00      	cmp	r3, #0
  40537c:	d073      	beq.n	405466 <__sfvwrite_r+0xee>
  40537e:	e92d 4ff0 	stmdb	sp!, {r4, r5, r6, r7, r8, r9, sl, fp, lr}
  405382:	898b      	ldrh	r3, [r1, #12]
  405384:	b083      	sub	sp, #12
  405386:	460c      	mov	r4, r1
  405388:	0719      	lsls	r1, r3, #28
  40538a:	9000      	str	r0, [sp, #0]
  40538c:	4616      	mov	r6, r2
  40538e:	d526      	bpl.n	4053de <__sfvwrite_r+0x66>
  405390:	6922      	ldr	r2, [r4, #16]
  405392:	b322      	cbz	r2, 4053de <__sfvwrite_r+0x66>
  405394:	f013 0002 	ands.w	r0, r3, #2
  405398:	6835      	ldr	r5, [r6, #0]
  40539a:	d02c      	beq.n	4053f6 <__sfvwrite_r+0x7e>
  40539c:	f04f 0900 	mov.w	r9, #0
  4053a0:	4fb0      	ldr	r7, [pc, #704]	; (405664 <__sfvwrite_r+0x2ec>)
  4053a2:	46c8      	mov	r8, r9
  4053a4:	46b2      	mov	sl, r6
  4053a6:	45b8      	cmp	r8, r7
  4053a8:	4643      	mov	r3, r8
  4053aa:	464a      	mov	r2, r9
  4053ac:	bf28      	it	cs
  4053ae:	463b      	movcs	r3, r7
  4053b0:	9800      	ldr	r0, [sp, #0]
  4053b2:	f1b8 0f00 	cmp.w	r8, #0
  4053b6:	d050      	beq.n	40545a <__sfvwrite_r+0xe2>
  4053b8:	69e1      	ldr	r1, [r4, #28]
  4053ba:	6a66      	ldr	r6, [r4, #36]	; 0x24
  4053bc:	47b0      	blx	r6
  4053be:	2800      	cmp	r0, #0
  4053c0:	dd58      	ble.n	405474 <__sfvwrite_r+0xfc>
  4053c2:	f8da 3008 	ldr.w	r3, [sl, #8]
  4053c6:	1a1b      	subs	r3, r3, r0
  4053c8:	4481      	add	r9, r0
  4053ca:	eba8 0800 	sub.w	r8, r8, r0
  4053ce:	f8ca 3008 	str.w	r3, [sl, #8]
  4053d2:	2b00      	cmp	r3, #0
  4053d4:	d1e7      	bne.n	4053a6 <__sfvwrite_r+0x2e>
  4053d6:	2000      	movs	r0, #0
  4053d8:	b003      	add	sp, #12
  4053da:	e8bd 8ff0 	ldmia.w	sp!, {r4, r5, r6, r7, r8, r9, sl, fp, pc}
  4053de:	4621      	mov	r1, r4
  4053e0:	9800      	ldr	r0, [sp, #0]
  4053e2:	f7ff fc51 	bl	404c88 <__swsetup_r>
  4053e6:	2800      	cmp	r0, #0
  4053e8:	f040 8133 	bne.w	405652 <__sfvwrite_r+0x2da>
  4053ec:	89a3      	ldrh	r3, [r4, #12]
  4053ee:	6835      	ldr	r5, [r6, #0]
  4053f0:	f013 0002 	ands.w	r0, r3, #2
  4053f4:	d1d2      	bne.n	40539c <__sfvwrite_r+0x24>
  4053f6:	f013 0901 	ands.w	r9, r3, #1
  4053fa:	d145      	bne.n	405488 <__sfvwrite_r+0x110>
  4053fc:	464f      	mov	r7, r9
  4053fe:	9601      	str	r6, [sp, #4]
  405400:	b337      	cbz	r7, 405450 <__sfvwrite_r+0xd8>
  405402:	059a      	lsls	r2, r3, #22
  405404:	f8d4 8008 	ldr.w	r8, [r4, #8]
  405408:	f140 8083 	bpl.w	405512 <__sfvwrite_r+0x19a>
  40540c:	4547      	cmp	r7, r8
  40540e:	46c3      	mov	fp, r8
  405410:	f0c0 80ab 	bcc.w	40556a <__sfvwrite_r+0x1f2>
  405414:	f413 6f90 	tst.w	r3, #1152	; 0x480
  405418:	f040 80ac 	bne.w	405574 <__sfvwrite_r+0x1fc>
  40541c:	6820      	ldr	r0, [r4, #0]
  40541e:	46ba      	mov	sl, r7
  405420:	465a      	mov	r2, fp
  405422:	4649      	mov	r1, r9
  405424:	f000 fcfc 	bl	405e20 <memmove>
  405428:	68a2      	ldr	r2, [r4, #8]
  40542a:	6823      	ldr	r3, [r4, #0]
  40542c:	eba2 0208 	sub.w	r2, r2, r8
  405430:	445b      	add	r3, fp
  405432:	60a2      	str	r2, [r4, #8]
  405434:	6023      	str	r3, [r4, #0]
  405436:	9a01      	ldr	r2, [sp, #4]
  405438:	6893      	ldr	r3, [r2, #8]
  40543a:	eba3 030a 	sub.w	r3, r3, sl
  40543e:	44d1      	add	r9, sl
  405440:	eba7 070a 	sub.w	r7, r7, sl
  405444:	6093      	str	r3, [r2, #8]
  405446:	2b00      	cmp	r3, #0
  405448:	d0c5      	beq.n	4053d6 <__sfvwrite_r+0x5e>
  40544a:	89a3      	ldrh	r3, [r4, #12]
  40544c:	2f00      	cmp	r7, #0
  40544e:	d1d8      	bne.n	405402 <__sfvwrite_r+0x8a>
  405450:	f8d5 9000 	ldr.w	r9, [r5]
  405454:	686f      	ldr	r7, [r5, #4]
  405456:	3508      	adds	r5, #8
  405458:	e7d2      	b.n	405400 <__sfvwrite_r+0x88>
  40545a:	f8d5 9000 	ldr.w	r9, [r5]
  40545e:	f8d5 8004 	ldr.w	r8, [r5, #4]
  405462:	3508      	adds	r5, #8
  405464:	e79f      	b.n	4053a6 <__sfvwrite_r+0x2e>
  405466:	2000      	movs	r0, #0
  405468:	4770      	bx	lr
  40546a:	4621      	mov	r1, r4
  40546c:	9800      	ldr	r0, [sp, #0]
  40546e:	f7ff fd1f 	bl	404eb0 <_fflush_r>
  405472:	b370      	cbz	r0, 4054d2 <__sfvwrite_r+0x15a>
  405474:	f9b4 300c 	ldrsh.w	r3, [r4, #12]
  405478:	f043 0340 	orr.w	r3, r3, #64	; 0x40
  40547c:	f04f 30ff 	mov.w	r0, #4294967295
  405480:	81a3      	strh	r3, [r4, #12]
  405482:	b003      	add	sp, #12
  405484:	e8bd 8ff0 	ldmia.w	sp!, {r4, r5, r6, r7, r8, r9, sl, fp, pc}
  405488:	4681      	mov	r9, r0
  40548a:	4633      	mov	r3, r6
  40548c:	464e      	mov	r6, r9
  40548e:	46a8      	mov	r8, r5
  405490:	469a      	mov	sl, r3
  405492:	464d      	mov	r5, r9
  405494:	b34e      	cbz	r6, 4054ea <__sfvwrite_r+0x172>
  405496:	b380      	cbz	r0, 4054fa <__sfvwrite_r+0x182>
  405498:	6820      	ldr	r0, [r4, #0]
  40549a:	6923      	ldr	r3, [r4, #16]
  40549c:	6962      	ldr	r2, [r4, #20]
  40549e:	45b1      	cmp	r9, r6
  4054a0:	46cb      	mov	fp, r9
  4054a2:	bf28      	it	cs
  4054a4:	46b3      	movcs	fp, r6
  4054a6:	4298      	cmp	r0, r3
  4054a8:	465f      	mov	r7, fp
  4054aa:	d904      	bls.n	4054b6 <__sfvwrite_r+0x13e>
  4054ac:	68a3      	ldr	r3, [r4, #8]
  4054ae:	4413      	add	r3, r2
  4054b0:	459b      	cmp	fp, r3
  4054b2:	f300 80a6 	bgt.w	405602 <__sfvwrite_r+0x28a>
  4054b6:	4593      	cmp	fp, r2
  4054b8:	db4b      	blt.n	405552 <__sfvwrite_r+0x1da>
  4054ba:	4613      	mov	r3, r2
  4054bc:	6a67      	ldr	r7, [r4, #36]	; 0x24
  4054be:	69e1      	ldr	r1, [r4, #28]
  4054c0:	9800      	ldr	r0, [sp, #0]
  4054c2:	462a      	mov	r2, r5
  4054c4:	47b8      	blx	r7
  4054c6:	1e07      	subs	r7, r0, #0
  4054c8:	ddd4      	ble.n	405474 <__sfvwrite_r+0xfc>
  4054ca:	ebb9 0907 	subs.w	r9, r9, r7
  4054ce:	d0cc      	beq.n	40546a <__sfvwrite_r+0xf2>
  4054d0:	2001      	movs	r0, #1
  4054d2:	f8da 3008 	ldr.w	r3, [sl, #8]
  4054d6:	1bdb      	subs	r3, r3, r7
  4054d8:	443d      	add	r5, r7
  4054da:	1bf6      	subs	r6, r6, r7
  4054dc:	f8ca 3008 	str.w	r3, [sl, #8]
  4054e0:	2b00      	cmp	r3, #0
  4054e2:	f43f af78 	beq.w	4053d6 <__sfvwrite_r+0x5e>
  4054e6:	2e00      	cmp	r6, #0
  4054e8:	d1d5      	bne.n	405496 <__sfvwrite_r+0x11e>
  4054ea:	f108 0308 	add.w	r3, r8, #8
  4054ee:	e913 0060 	ldmdb	r3, {r5, r6}
  4054f2:	4698      	mov	r8, r3
  4054f4:	3308      	adds	r3, #8
  4054f6:	2e00      	cmp	r6, #0
  4054f8:	d0f9      	beq.n	4054ee <__sfvwrite_r+0x176>
  4054fa:	4632      	mov	r2, r6
  4054fc:	210a      	movs	r1, #10
  4054fe:	4628      	mov	r0, r5
  405500:	f000 fc3e 	bl	405d80 <memchr>
  405504:	2800      	cmp	r0, #0
  405506:	f000 80a1 	beq.w	40564c <__sfvwrite_r+0x2d4>
  40550a:	3001      	adds	r0, #1
  40550c:	eba0 0905 	sub.w	r9, r0, r5
  405510:	e7c2      	b.n	405498 <__sfvwrite_r+0x120>
  405512:	6820      	ldr	r0, [r4, #0]
  405514:	6923      	ldr	r3, [r4, #16]
  405516:	4298      	cmp	r0, r3
  405518:	d802      	bhi.n	405520 <__sfvwrite_r+0x1a8>
  40551a:	6963      	ldr	r3, [r4, #20]
  40551c:	429f      	cmp	r7, r3
  40551e:	d25d      	bcs.n	4055dc <__sfvwrite_r+0x264>
  405520:	45b8      	cmp	r8, r7
  405522:	bf28      	it	cs
  405524:	46b8      	movcs	r8, r7
  405526:	4642      	mov	r2, r8
  405528:	4649      	mov	r1, r9
  40552a:	f000 fc79 	bl	405e20 <memmove>
  40552e:	68a3      	ldr	r3, [r4, #8]
  405530:	6822      	ldr	r2, [r4, #0]
  405532:	eba3 0308 	sub.w	r3, r3, r8
  405536:	4442      	add	r2, r8
  405538:	60a3      	str	r3, [r4, #8]
  40553a:	6022      	str	r2, [r4, #0]
  40553c:	b10b      	cbz	r3, 405542 <__sfvwrite_r+0x1ca>
  40553e:	46c2      	mov	sl, r8
  405540:	e779      	b.n	405436 <__sfvwrite_r+0xbe>
  405542:	4621      	mov	r1, r4
  405544:	9800      	ldr	r0, [sp, #0]
  405546:	f7ff fcb3 	bl	404eb0 <_fflush_r>
  40554a:	2800      	cmp	r0, #0
  40554c:	d192      	bne.n	405474 <__sfvwrite_r+0xfc>
  40554e:	46c2      	mov	sl, r8
  405550:	e771      	b.n	405436 <__sfvwrite_r+0xbe>
  405552:	465a      	mov	r2, fp
  405554:	4629      	mov	r1, r5
  405556:	f000 fc63 	bl	405e20 <memmove>
  40555a:	68a2      	ldr	r2, [r4, #8]
  40555c:	6823      	ldr	r3, [r4, #0]
  40555e:	eba2 020b 	sub.w	r2, r2, fp
  405562:	445b      	add	r3, fp
  405564:	60a2      	str	r2, [r4, #8]
  405566:	6023      	str	r3, [r4, #0]
  405568:	e7af      	b.n	4054ca <__sfvwrite_r+0x152>
  40556a:	6820      	ldr	r0, [r4, #0]
  40556c:	46b8      	mov	r8, r7
  40556e:	46ba      	mov	sl, r7
  405570:	46bb      	mov	fp, r7
  405572:	e755      	b.n	405420 <__sfvwrite_r+0xa8>
  405574:	6962      	ldr	r2, [r4, #20]
  405576:	6820      	ldr	r0, [r4, #0]
  405578:	6921      	ldr	r1, [r4, #16]
  40557a:	eb02 0842 	add.w	r8, r2, r2, lsl #1
  40557e:	eba0 0a01 	sub.w	sl, r0, r1
  405582:	eb08 78d8 	add.w	r8, r8, r8, lsr #31
  405586:	f10a 0001 	add.w	r0, sl, #1
  40558a:	ea4f 0868 	mov.w	r8, r8, asr #1
  40558e:	4438      	add	r0, r7
  405590:	4540      	cmp	r0, r8
  405592:	4642      	mov	r2, r8
  405594:	bf84      	itt	hi
  405596:	4680      	movhi	r8, r0
  405598:	4642      	movhi	r2, r8
  40559a:	055b      	lsls	r3, r3, #21
  40559c:	d544      	bpl.n	405628 <__sfvwrite_r+0x2b0>
  40559e:	4611      	mov	r1, r2
  4055a0:	9800      	ldr	r0, [sp, #0]
  4055a2:	f000 f921 	bl	4057e8 <_malloc_r>
  4055a6:	4683      	mov	fp, r0
  4055a8:	2800      	cmp	r0, #0
  4055aa:	d055      	beq.n	405658 <__sfvwrite_r+0x2e0>
  4055ac:	4652      	mov	r2, sl
  4055ae:	6921      	ldr	r1, [r4, #16]
  4055b0:	f7fe fae8 	bl	403b84 <memcpy>
  4055b4:	89a3      	ldrh	r3, [r4, #12]
  4055b6:	f423 6390 	bic.w	r3, r3, #1152	; 0x480
  4055ba:	f043 0380 	orr.w	r3, r3, #128	; 0x80
  4055be:	81a3      	strh	r3, [r4, #12]
  4055c0:	eb0b 000a 	add.w	r0, fp, sl
  4055c4:	eba8 030a 	sub.w	r3, r8, sl
  4055c8:	f8c4 b010 	str.w	fp, [r4, #16]
  4055cc:	f8c4 8014 	str.w	r8, [r4, #20]
  4055d0:	6020      	str	r0, [r4, #0]
  4055d2:	60a3      	str	r3, [r4, #8]
  4055d4:	46b8      	mov	r8, r7
  4055d6:	46ba      	mov	sl, r7
  4055d8:	46bb      	mov	fp, r7
  4055da:	e721      	b.n	405420 <__sfvwrite_r+0xa8>
  4055dc:	f06f 4100 	mvn.w	r1, #2147483648	; 0x80000000
  4055e0:	42b9      	cmp	r1, r7
  4055e2:	bf28      	it	cs
  4055e4:	4639      	movcs	r1, r7
  4055e6:	464a      	mov	r2, r9
  4055e8:	fb91 f1f3 	sdiv	r1, r1, r3
  4055ec:	9800      	ldr	r0, [sp, #0]
  4055ee:	6a66      	ldr	r6, [r4, #36]	; 0x24
  4055f0:	fb03 f301 	mul.w	r3, r3, r1
  4055f4:	69e1      	ldr	r1, [r4, #28]
  4055f6:	47b0      	blx	r6
  4055f8:	f1b0 0a00 	subs.w	sl, r0, #0
  4055fc:	f73f af1b 	bgt.w	405436 <__sfvwrite_r+0xbe>
  405600:	e738      	b.n	405474 <__sfvwrite_r+0xfc>
  405602:	461a      	mov	r2, r3
  405604:	4629      	mov	r1, r5
  405606:	9301      	str	r3, [sp, #4]
  405608:	f000 fc0a 	bl	405e20 <memmove>
  40560c:	6822      	ldr	r2, [r4, #0]
  40560e:	9b01      	ldr	r3, [sp, #4]
  405610:	9800      	ldr	r0, [sp, #0]
  405612:	441a      	add	r2, r3
  405614:	6022      	str	r2, [r4, #0]
  405616:	4621      	mov	r1, r4
  405618:	f7ff fc4a 	bl	404eb0 <_fflush_r>
  40561c:	9b01      	ldr	r3, [sp, #4]
  40561e:	2800      	cmp	r0, #0
  405620:	f47f af28 	bne.w	405474 <__sfvwrite_r+0xfc>
  405624:	461f      	mov	r7, r3
  405626:	e750      	b.n	4054ca <__sfvwrite_r+0x152>
  405628:	9800      	ldr	r0, [sp, #0]
  40562a:	f000 fc69 	bl	405f00 <_realloc_r>
  40562e:	4683      	mov	fp, r0
  405630:	2800      	cmp	r0, #0
  405632:	d1c5      	bne.n	4055c0 <__sfvwrite_r+0x248>
  405634:	9d00      	ldr	r5, [sp, #0]
  405636:	6921      	ldr	r1, [r4, #16]
  405638:	4628      	mov	r0, r5
  40563a:	f7ff fdb7 	bl	4051ac <_free_r>
  40563e:	f9b4 300c 	ldrsh.w	r3, [r4, #12]
  405642:	220c      	movs	r2, #12
  405644:	f023 0380 	bic.w	r3, r3, #128	; 0x80
  405648:	602a      	str	r2, [r5, #0]
  40564a:	e715      	b.n	405478 <__sfvwrite_r+0x100>
  40564c:	f106 0901 	add.w	r9, r6, #1
  405650:	e722      	b.n	405498 <__sfvwrite_r+0x120>
  405652:	f04f 30ff 	mov.w	r0, #4294967295
  405656:	e6bf      	b.n	4053d8 <__sfvwrite_r+0x60>
  405658:	9a00      	ldr	r2, [sp, #0]
  40565a:	230c      	movs	r3, #12
  40565c:	6013      	str	r3, [r2, #0]
  40565e:	f9b4 300c 	ldrsh.w	r3, [r4, #12]
  405662:	e709      	b.n	405478 <__sfvwrite_r+0x100>
  405664:	7ffffc00 	.word	0x7ffffc00

00405668 <_fwalk_reent>:
  405668:	e92d 43f8 	stmdb	sp!, {r3, r4, r5, r6, r7, r8, r9, lr}
  40566c:	f510 7738 	adds.w	r7, r0, #736	; 0x2e0
  405670:	d01f      	beq.n	4056b2 <_fwalk_reent+0x4a>
  405672:	4688      	mov	r8, r1
  405674:	4606      	mov	r6, r0
  405676:	f04f 0900 	mov.w	r9, #0
  40567a:	687d      	ldr	r5, [r7, #4]
  40567c:	68bc      	ldr	r4, [r7, #8]
  40567e:	3d01      	subs	r5, #1
  405680:	d411      	bmi.n	4056a6 <_fwalk_reent+0x3e>
  405682:	89a3      	ldrh	r3, [r4, #12]
  405684:	2b01      	cmp	r3, #1
  405686:	f105 35ff 	add.w	r5, r5, #4294967295
  40568a:	d908      	bls.n	40569e <_fwalk_reent+0x36>
  40568c:	f9b4 300e 	ldrsh.w	r3, [r4, #14]
  405690:	3301      	adds	r3, #1
  405692:	4621      	mov	r1, r4
  405694:	4630      	mov	r0, r6
  405696:	d002      	beq.n	40569e <_fwalk_reent+0x36>
  405698:	47c0      	blx	r8
  40569a:	ea49 0900 	orr.w	r9, r9, r0
  40569e:	1c6b      	adds	r3, r5, #1
  4056a0:	f104 0468 	add.w	r4, r4, #104	; 0x68
  4056a4:	d1ed      	bne.n	405682 <_fwalk_reent+0x1a>
  4056a6:	683f      	ldr	r7, [r7, #0]
  4056a8:	2f00      	cmp	r7, #0
  4056aa:	d1e6      	bne.n	40567a <_fwalk_reent+0x12>
  4056ac:	4648      	mov	r0, r9
  4056ae:	e8bd 83f8 	ldmia.w	sp!, {r3, r4, r5, r6, r7, r8, r9, pc}
  4056b2:	46b9      	mov	r9, r7
  4056b4:	4648      	mov	r0, r9
  4056b6:	e8bd 83f8 	ldmia.w	sp!, {r3, r4, r5, r6, r7, r8, r9, pc}
  4056ba:	bf00      	nop

004056bc <__locale_mb_cur_max>:
  4056bc:	4b04      	ldr	r3, [pc, #16]	; (4056d0 <__locale_mb_cur_max+0x14>)
  4056be:	4a05      	ldr	r2, [pc, #20]	; (4056d4 <__locale_mb_cur_max+0x18>)
  4056c0:	681b      	ldr	r3, [r3, #0]
  4056c2:	6b5b      	ldr	r3, [r3, #52]	; 0x34
  4056c4:	2b00      	cmp	r3, #0
  4056c6:	bf08      	it	eq
  4056c8:	4613      	moveq	r3, r2
  4056ca:	f893 0128 	ldrb.w	r0, [r3, #296]	; 0x128
  4056ce:	4770      	bx	lr
  4056d0:	20000098 	.word	0x20000098
  4056d4:	200004cc 	.word	0x200004cc

004056d8 <__retarget_lock_init_recursive>:
  4056d8:	4770      	bx	lr
  4056da:	bf00      	nop

004056dc <__retarget_lock_close_recursive>:
  4056dc:	4770      	bx	lr
  4056de:	bf00      	nop

004056e0 <__retarget_lock_acquire_recursive>:
  4056e0:	4770      	bx	lr
  4056e2:	bf00      	nop

004056e4 <__retarget_lock_release_recursive>:
  4056e4:	4770      	bx	lr
  4056e6:	bf00      	nop

004056e8 <__swhatbuf_r>:
  4056e8:	b570      	push	{r4, r5, r6, lr}
  4056ea:	460c      	mov	r4, r1
  4056ec:	f9b1 100e 	ldrsh.w	r1, [r1, #14]
  4056f0:	2900      	cmp	r1, #0
  4056f2:	b090      	sub	sp, #64	; 0x40
  4056f4:	4615      	mov	r5, r2
  4056f6:	461e      	mov	r6, r3
  4056f8:	db14      	blt.n	405724 <__swhatbuf_r+0x3c>
  4056fa:	aa01      	add	r2, sp, #4
  4056fc:	f000 ffea 	bl	4066d4 <_fstat_r>
  405700:	2800      	cmp	r0, #0
  405702:	db0f      	blt.n	405724 <__swhatbuf_r+0x3c>
  405704:	9a02      	ldr	r2, [sp, #8]
  405706:	f402 4270 	and.w	r2, r2, #61440	; 0xf000
  40570a:	f5a2 5200 	sub.w	r2, r2, #8192	; 0x2000
  40570e:	fab2 f282 	clz	r2, r2
  405712:	0952      	lsrs	r2, r2, #5
  405714:	f44f 6380 	mov.w	r3, #1024	; 0x400
  405718:	f44f 6000 	mov.w	r0, #2048	; 0x800
  40571c:	6032      	str	r2, [r6, #0]
  40571e:	602b      	str	r3, [r5, #0]
  405720:	b010      	add	sp, #64	; 0x40
  405722:	bd70      	pop	{r4, r5, r6, pc}
  405724:	89a2      	ldrh	r2, [r4, #12]
  405726:	2300      	movs	r3, #0
  405728:	f012 0080 	ands.w	r0, r2, #128	; 0x80
  40572c:	6033      	str	r3, [r6, #0]
  40572e:	d004      	beq.n	40573a <__swhatbuf_r+0x52>
  405730:	2240      	movs	r2, #64	; 0x40
  405732:	4618      	mov	r0, r3
  405734:	602a      	str	r2, [r5, #0]
  405736:	b010      	add	sp, #64	; 0x40
  405738:	bd70      	pop	{r4, r5, r6, pc}
  40573a:	f44f 6380 	mov.w	r3, #1024	; 0x400
  40573e:	602b      	str	r3, [r5, #0]
  405740:	b010      	add	sp, #64	; 0x40
  405742:	bd70      	pop	{r4, r5, r6, pc}

00405744 <__smakebuf_r>:
  405744:	898a      	ldrh	r2, [r1, #12]
  405746:	0792      	lsls	r2, r2, #30
  405748:	460b      	mov	r3, r1
  40574a:	d506      	bpl.n	40575a <__smakebuf_r+0x16>
  40574c:	f101 0243 	add.w	r2, r1, #67	; 0x43
  405750:	2101      	movs	r1, #1
  405752:	601a      	str	r2, [r3, #0]
  405754:	611a      	str	r2, [r3, #16]
  405756:	6159      	str	r1, [r3, #20]
  405758:	4770      	bx	lr
  40575a:	b5f0      	push	{r4, r5, r6, r7, lr}
  40575c:	b083      	sub	sp, #12
  40575e:	ab01      	add	r3, sp, #4
  405760:	466a      	mov	r2, sp
  405762:	460c      	mov	r4, r1
  405764:	4606      	mov	r6, r0
  405766:	f7ff ffbf 	bl	4056e8 <__swhatbuf_r>
  40576a:	9900      	ldr	r1, [sp, #0]
  40576c:	4605      	mov	r5, r0
  40576e:	4630      	mov	r0, r6
  405770:	f000 f83a 	bl	4057e8 <_malloc_r>
  405774:	f9b4 300c 	ldrsh.w	r3, [r4, #12]
  405778:	b1d8      	cbz	r0, 4057b2 <__smakebuf_r+0x6e>
  40577a:	9a01      	ldr	r2, [sp, #4]
  40577c:	4f15      	ldr	r7, [pc, #84]	; (4057d4 <__smakebuf_r+0x90>)
  40577e:	9900      	ldr	r1, [sp, #0]
  405780:	63f7      	str	r7, [r6, #60]	; 0x3c
  405782:	f043 0380 	orr.w	r3, r3, #128	; 0x80
  405786:	81a3      	strh	r3, [r4, #12]
  405788:	6020      	str	r0, [r4, #0]
  40578a:	6120      	str	r0, [r4, #16]
  40578c:	6161      	str	r1, [r4, #20]
  40578e:	b91a      	cbnz	r2, 405798 <__smakebuf_r+0x54>
  405790:	432b      	orrs	r3, r5
  405792:	81a3      	strh	r3, [r4, #12]
  405794:	b003      	add	sp, #12
  405796:	bdf0      	pop	{r4, r5, r6, r7, pc}
  405798:	4630      	mov	r0, r6
  40579a:	f9b4 100e 	ldrsh.w	r1, [r4, #14]
  40579e:	f000 ffad 	bl	4066fc <_isatty_r>
  4057a2:	b1a0      	cbz	r0, 4057ce <__smakebuf_r+0x8a>
  4057a4:	89a3      	ldrh	r3, [r4, #12]
  4057a6:	f023 0303 	bic.w	r3, r3, #3
  4057aa:	f043 0301 	orr.w	r3, r3, #1
  4057ae:	b21b      	sxth	r3, r3
  4057b0:	e7ee      	b.n	405790 <__smakebuf_r+0x4c>
  4057b2:	059a      	lsls	r2, r3, #22
  4057b4:	d4ee      	bmi.n	405794 <__smakebuf_r+0x50>
  4057b6:	f023 0303 	bic.w	r3, r3, #3
  4057ba:	f104 0243 	add.w	r2, r4, #67	; 0x43
  4057be:	f043 0302 	orr.w	r3, r3, #2
  4057c2:	2101      	movs	r1, #1
  4057c4:	81a3      	strh	r3, [r4, #12]
  4057c6:	6022      	str	r2, [r4, #0]
  4057c8:	6122      	str	r2, [r4, #16]
  4057ca:	6161      	str	r1, [r4, #20]
  4057cc:	e7e2      	b.n	405794 <__smakebuf_r+0x50>
  4057ce:	f9b4 300c 	ldrsh.w	r3, [r4, #12]
  4057d2:	e7dd      	b.n	405790 <__smakebuf_r+0x4c>
  4057d4:	00404f05 	.word	0x00404f05

004057d8 <malloc>:
  4057d8:	4b02      	ldr	r3, [pc, #8]	; (4057e4 <malloc+0xc>)
  4057da:	4601      	mov	r1, r0
  4057dc:	6818      	ldr	r0, [r3, #0]
  4057de:	f000 b803 	b.w	4057e8 <_malloc_r>
  4057e2:	bf00      	nop
  4057e4:	20000098 	.word	0x20000098

004057e8 <_malloc_r>:
  4057e8:	e92d 4ff0 	stmdb	sp!, {r4, r5, r6, r7, r8, r9, sl, fp, lr}
  4057ec:	f101 060b 	add.w	r6, r1, #11
  4057f0:	2e16      	cmp	r6, #22
  4057f2:	b083      	sub	sp, #12
  4057f4:	4605      	mov	r5, r0
  4057f6:	f240 809e 	bls.w	405936 <_malloc_r+0x14e>
  4057fa:	f036 0607 	bics.w	r6, r6, #7
  4057fe:	f100 80bd 	bmi.w	40597c <_malloc_r+0x194>
  405802:	42b1      	cmp	r1, r6
  405804:	f200 80ba 	bhi.w	40597c <_malloc_r+0x194>
  405808:	f000 fb6e 	bl	405ee8 <__malloc_lock>
  40580c:	f5b6 7ffc 	cmp.w	r6, #504	; 0x1f8
  405810:	f0c0 8293 	bcc.w	405d3a <_malloc_r+0x552>
  405814:	0a73      	lsrs	r3, r6, #9
  405816:	f000 80b8 	beq.w	40598a <_malloc_r+0x1a2>
  40581a:	2b04      	cmp	r3, #4
  40581c:	f200 8179 	bhi.w	405b12 <_malloc_r+0x32a>
  405820:	09b3      	lsrs	r3, r6, #6
  405822:	f103 0039 	add.w	r0, r3, #57	; 0x39
  405826:	f103 0e38 	add.w	lr, r3, #56	; 0x38
  40582a:	00c3      	lsls	r3, r0, #3
  40582c:	4fbf      	ldr	r7, [pc, #764]	; (405b2c <_malloc_r+0x344>)
  40582e:	443b      	add	r3, r7
  405830:	f1a3 0108 	sub.w	r1, r3, #8
  405834:	685c      	ldr	r4, [r3, #4]
  405836:	42a1      	cmp	r1, r4
  405838:	d106      	bne.n	405848 <_malloc_r+0x60>
  40583a:	e00c      	b.n	405856 <_malloc_r+0x6e>
  40583c:	2a00      	cmp	r2, #0
  40583e:	f280 80aa 	bge.w	405996 <_malloc_r+0x1ae>
  405842:	68e4      	ldr	r4, [r4, #12]
  405844:	42a1      	cmp	r1, r4
  405846:	d006      	beq.n	405856 <_malloc_r+0x6e>
  405848:	6863      	ldr	r3, [r4, #4]
  40584a:	f023 0303 	bic.w	r3, r3, #3
  40584e:	1b9a      	subs	r2, r3, r6
  405850:	2a0f      	cmp	r2, #15
  405852:	ddf3      	ble.n	40583c <_malloc_r+0x54>
  405854:	4670      	mov	r0, lr
  405856:	693c      	ldr	r4, [r7, #16]
  405858:	f8df e2e4 	ldr.w	lr, [pc, #740]	; 405b40 <_malloc_r+0x358>
  40585c:	4574      	cmp	r4, lr
  40585e:	f000 81ab 	beq.w	405bb8 <_malloc_r+0x3d0>
  405862:	6863      	ldr	r3, [r4, #4]
  405864:	f023 0303 	bic.w	r3, r3, #3
  405868:	1b9a      	subs	r2, r3, r6
  40586a:	2a0f      	cmp	r2, #15
  40586c:	f300 8190 	bgt.w	405b90 <_malloc_r+0x3a8>
  405870:	2a00      	cmp	r2, #0
  405872:	f8c7 e014 	str.w	lr, [r7, #20]
  405876:	f8c7 e010 	str.w	lr, [r7, #16]
  40587a:	f280 809d 	bge.w	4059b8 <_malloc_r+0x1d0>
  40587e:	f5b3 7f00 	cmp.w	r3, #512	; 0x200
  405882:	f080 8161 	bcs.w	405b48 <_malloc_r+0x360>
  405886:	08db      	lsrs	r3, r3, #3
  405888:	f103 0c01 	add.w	ip, r3, #1
  40588c:	1099      	asrs	r1, r3, #2
  40588e:	687a      	ldr	r2, [r7, #4]
  405890:	f857 803c 	ldr.w	r8, [r7, ip, lsl #3]
  405894:	f8c4 8008 	str.w	r8, [r4, #8]
  405898:	2301      	movs	r3, #1
  40589a:	408b      	lsls	r3, r1
  40589c:	eb07 01cc 	add.w	r1, r7, ip, lsl #3
  4058a0:	4313      	orrs	r3, r2
  4058a2:	3908      	subs	r1, #8
  4058a4:	60e1      	str	r1, [r4, #12]
  4058a6:	607b      	str	r3, [r7, #4]
  4058a8:	f847 403c 	str.w	r4, [r7, ip, lsl #3]
  4058ac:	f8c8 400c 	str.w	r4, [r8, #12]
  4058b0:	1082      	asrs	r2, r0, #2
  4058b2:	2401      	movs	r4, #1
  4058b4:	4094      	lsls	r4, r2
  4058b6:	429c      	cmp	r4, r3
  4058b8:	f200 808b 	bhi.w	4059d2 <_malloc_r+0x1ea>
  4058bc:	421c      	tst	r4, r3
  4058be:	d106      	bne.n	4058ce <_malloc_r+0xe6>
  4058c0:	f020 0003 	bic.w	r0, r0, #3
  4058c4:	0064      	lsls	r4, r4, #1
  4058c6:	421c      	tst	r4, r3
  4058c8:	f100 0004 	add.w	r0, r0, #4
  4058cc:	d0fa      	beq.n	4058c4 <_malloc_r+0xdc>
  4058ce:	eb07 09c0 	add.w	r9, r7, r0, lsl #3
  4058d2:	46cc      	mov	ip, r9
  4058d4:	4680      	mov	r8, r0
  4058d6:	f8dc 300c 	ldr.w	r3, [ip, #12]
  4058da:	459c      	cmp	ip, r3
  4058dc:	d107      	bne.n	4058ee <_malloc_r+0x106>
  4058de:	e16d      	b.n	405bbc <_malloc_r+0x3d4>
  4058e0:	2a00      	cmp	r2, #0
  4058e2:	f280 817b 	bge.w	405bdc <_malloc_r+0x3f4>
  4058e6:	68db      	ldr	r3, [r3, #12]
  4058e8:	459c      	cmp	ip, r3
  4058ea:	f000 8167 	beq.w	405bbc <_malloc_r+0x3d4>
  4058ee:	6859      	ldr	r1, [r3, #4]
  4058f0:	f021 0103 	bic.w	r1, r1, #3
  4058f4:	1b8a      	subs	r2, r1, r6
  4058f6:	2a0f      	cmp	r2, #15
  4058f8:	ddf2      	ble.n	4058e0 <_malloc_r+0xf8>
  4058fa:	f8d3 c00c 	ldr.w	ip, [r3, #12]
  4058fe:	f8d3 8008 	ldr.w	r8, [r3, #8]
  405902:	9300      	str	r3, [sp, #0]
  405904:	199c      	adds	r4, r3, r6
  405906:	4628      	mov	r0, r5
  405908:	f046 0601 	orr.w	r6, r6, #1
  40590c:	f042 0501 	orr.w	r5, r2, #1
  405910:	605e      	str	r6, [r3, #4]
  405912:	f8c8 c00c 	str.w	ip, [r8, #12]
  405916:	f8cc 8008 	str.w	r8, [ip, #8]
  40591a:	617c      	str	r4, [r7, #20]
  40591c:	613c      	str	r4, [r7, #16]
  40591e:	f8c4 e00c 	str.w	lr, [r4, #12]
  405922:	f8c4 e008 	str.w	lr, [r4, #8]
  405926:	6065      	str	r5, [r4, #4]
  405928:	505a      	str	r2, [r3, r1]
  40592a:	f000 fae3 	bl	405ef4 <__malloc_unlock>
  40592e:	9b00      	ldr	r3, [sp, #0]
  405930:	f103 0408 	add.w	r4, r3, #8
  405934:	e01e      	b.n	405974 <_malloc_r+0x18c>
  405936:	2910      	cmp	r1, #16
  405938:	d820      	bhi.n	40597c <_malloc_r+0x194>
  40593a:	f000 fad5 	bl	405ee8 <__malloc_lock>
  40593e:	2610      	movs	r6, #16
  405940:	2318      	movs	r3, #24
  405942:	2002      	movs	r0, #2
  405944:	4f79      	ldr	r7, [pc, #484]	; (405b2c <_malloc_r+0x344>)
  405946:	443b      	add	r3, r7
  405948:	f1a3 0208 	sub.w	r2, r3, #8
  40594c:	685c      	ldr	r4, [r3, #4]
  40594e:	4294      	cmp	r4, r2
  405950:	f000 813d 	beq.w	405bce <_malloc_r+0x3e6>
  405954:	6863      	ldr	r3, [r4, #4]
  405956:	68e1      	ldr	r1, [r4, #12]
  405958:	68a6      	ldr	r6, [r4, #8]
  40595a:	f023 0303 	bic.w	r3, r3, #3
  40595e:	4423      	add	r3, r4
  405960:	4628      	mov	r0, r5
  405962:	685a      	ldr	r2, [r3, #4]
  405964:	60f1      	str	r1, [r6, #12]
  405966:	f042 0201 	orr.w	r2, r2, #1
  40596a:	608e      	str	r6, [r1, #8]
  40596c:	605a      	str	r2, [r3, #4]
  40596e:	f000 fac1 	bl	405ef4 <__malloc_unlock>
  405972:	3408      	adds	r4, #8
  405974:	4620      	mov	r0, r4
  405976:	b003      	add	sp, #12
  405978:	e8bd 8ff0 	ldmia.w	sp!, {r4, r5, r6, r7, r8, r9, sl, fp, pc}
  40597c:	2400      	movs	r4, #0
  40597e:	230c      	movs	r3, #12
  405980:	4620      	mov	r0, r4
  405982:	602b      	str	r3, [r5, #0]
  405984:	b003      	add	sp, #12
  405986:	e8bd 8ff0 	ldmia.w	sp!, {r4, r5, r6, r7, r8, r9, sl, fp, pc}
  40598a:	2040      	movs	r0, #64	; 0x40
  40598c:	f44f 7300 	mov.w	r3, #512	; 0x200
  405990:	f04f 0e3f 	mov.w	lr, #63	; 0x3f
  405994:	e74a      	b.n	40582c <_malloc_r+0x44>
  405996:	4423      	add	r3, r4
  405998:	68e1      	ldr	r1, [r4, #12]
  40599a:	685a      	ldr	r2, [r3, #4]
  40599c:	68a6      	ldr	r6, [r4, #8]
  40599e:	f042 0201 	orr.w	r2, r2, #1
  4059a2:	60f1      	str	r1, [r6, #12]
  4059a4:	4628      	mov	r0, r5
  4059a6:	608e      	str	r6, [r1, #8]
  4059a8:	605a      	str	r2, [r3, #4]
  4059aa:	f000 faa3 	bl	405ef4 <__malloc_unlock>
  4059ae:	3408      	adds	r4, #8
  4059b0:	4620      	mov	r0, r4
  4059b2:	b003      	add	sp, #12
  4059b4:	e8bd 8ff0 	ldmia.w	sp!, {r4, r5, r6, r7, r8, r9, sl, fp, pc}
  4059b8:	4423      	add	r3, r4
  4059ba:	4628      	mov	r0, r5
  4059bc:	685a      	ldr	r2, [r3, #4]
  4059be:	f042 0201 	orr.w	r2, r2, #1
  4059c2:	605a      	str	r2, [r3, #4]
  4059c4:	f000 fa96 	bl	405ef4 <__malloc_unlock>
  4059c8:	3408      	adds	r4, #8
  4059ca:	4620      	mov	r0, r4
  4059cc:	b003      	add	sp, #12
  4059ce:	e8bd 8ff0 	ldmia.w	sp!, {r4, r5, r6, r7, r8, r9, sl, fp, pc}
  4059d2:	68bc      	ldr	r4, [r7, #8]
  4059d4:	6863      	ldr	r3, [r4, #4]
  4059d6:	f023 0803 	bic.w	r8, r3, #3
  4059da:	45b0      	cmp	r8, r6
  4059dc:	d304      	bcc.n	4059e8 <_malloc_r+0x200>
  4059de:	eba8 0306 	sub.w	r3, r8, r6
  4059e2:	2b0f      	cmp	r3, #15
  4059e4:	f300 8085 	bgt.w	405af2 <_malloc_r+0x30a>
  4059e8:	f8df 9158 	ldr.w	r9, [pc, #344]	; 405b44 <_malloc_r+0x35c>
  4059ec:	4b50      	ldr	r3, [pc, #320]	; (405b30 <_malloc_r+0x348>)
  4059ee:	f8d9 2000 	ldr.w	r2, [r9]
  4059f2:	681b      	ldr	r3, [r3, #0]
  4059f4:	3201      	adds	r2, #1
  4059f6:	4433      	add	r3, r6
  4059f8:	eb04 0a08 	add.w	sl, r4, r8
  4059fc:	f000 8155 	beq.w	405caa <_malloc_r+0x4c2>
  405a00:	f503 5380 	add.w	r3, r3, #4096	; 0x1000
  405a04:	330f      	adds	r3, #15
  405a06:	f423 6b7f 	bic.w	fp, r3, #4080	; 0xff0
  405a0a:	f02b 0b0f 	bic.w	fp, fp, #15
  405a0e:	4659      	mov	r1, fp
  405a10:	4628      	mov	r0, r5
  405a12:	f000 fc1b 	bl	40624c <_sbrk_r>
  405a16:	1c41      	adds	r1, r0, #1
  405a18:	4602      	mov	r2, r0
  405a1a:	f000 80fc 	beq.w	405c16 <_malloc_r+0x42e>
  405a1e:	4582      	cmp	sl, r0
  405a20:	f200 80f7 	bhi.w	405c12 <_malloc_r+0x42a>
  405a24:	4b43      	ldr	r3, [pc, #268]	; (405b34 <_malloc_r+0x34c>)
  405a26:	6819      	ldr	r1, [r3, #0]
  405a28:	4459      	add	r1, fp
  405a2a:	6019      	str	r1, [r3, #0]
  405a2c:	f000 814d 	beq.w	405cca <_malloc_r+0x4e2>
  405a30:	f8d9 0000 	ldr.w	r0, [r9]
  405a34:	3001      	adds	r0, #1
  405a36:	bf1b      	ittet	ne
  405a38:	eba2 0a0a 	subne.w	sl, r2, sl
  405a3c:	4451      	addne	r1, sl
  405a3e:	f8c9 2000 	streq.w	r2, [r9]
  405a42:	6019      	strne	r1, [r3, #0]
  405a44:	f012 0107 	ands.w	r1, r2, #7
  405a48:	f000 8115 	beq.w	405c76 <_malloc_r+0x48e>
  405a4c:	f1c1 0008 	rsb	r0, r1, #8
  405a50:	f5c1 5180 	rsb	r1, r1, #4096	; 0x1000
  405a54:	4402      	add	r2, r0
  405a56:	3108      	adds	r1, #8
  405a58:	eb02 090b 	add.w	r9, r2, fp
  405a5c:	f3c9 090b 	ubfx	r9, r9, #0, #12
  405a60:	eba1 0909 	sub.w	r9, r1, r9
  405a64:	4649      	mov	r1, r9
  405a66:	4628      	mov	r0, r5
  405a68:	9301      	str	r3, [sp, #4]
  405a6a:	9200      	str	r2, [sp, #0]
  405a6c:	f000 fbee 	bl	40624c <_sbrk_r>
  405a70:	1c43      	adds	r3, r0, #1
  405a72:	e89d 000c 	ldmia.w	sp, {r2, r3}
  405a76:	f000 8143 	beq.w	405d00 <_malloc_r+0x518>
  405a7a:	1a80      	subs	r0, r0, r2
  405a7c:	4448      	add	r0, r9
  405a7e:	f040 0001 	orr.w	r0, r0, #1
  405a82:	6819      	ldr	r1, [r3, #0]
  405a84:	60ba      	str	r2, [r7, #8]
  405a86:	4449      	add	r1, r9
  405a88:	42bc      	cmp	r4, r7
  405a8a:	6050      	str	r0, [r2, #4]
  405a8c:	6019      	str	r1, [r3, #0]
  405a8e:	d017      	beq.n	405ac0 <_malloc_r+0x2d8>
  405a90:	f1b8 0f0f 	cmp.w	r8, #15
  405a94:	f240 80fb 	bls.w	405c8e <_malloc_r+0x4a6>
  405a98:	6860      	ldr	r0, [r4, #4]
  405a9a:	f1a8 020c 	sub.w	r2, r8, #12
  405a9e:	f022 0207 	bic.w	r2, r2, #7
  405aa2:	eb04 0e02 	add.w	lr, r4, r2
  405aa6:	f000 0001 	and.w	r0, r0, #1
  405aaa:	f04f 0c05 	mov.w	ip, #5
  405aae:	4310      	orrs	r0, r2
  405ab0:	2a0f      	cmp	r2, #15
  405ab2:	6060      	str	r0, [r4, #4]
  405ab4:	f8ce c004 	str.w	ip, [lr, #4]
  405ab8:	f8ce c008 	str.w	ip, [lr, #8]
  405abc:	f200 8117 	bhi.w	405cee <_malloc_r+0x506>
  405ac0:	4b1d      	ldr	r3, [pc, #116]	; (405b38 <_malloc_r+0x350>)
  405ac2:	68bc      	ldr	r4, [r7, #8]
  405ac4:	681a      	ldr	r2, [r3, #0]
  405ac6:	4291      	cmp	r1, r2
  405ac8:	bf88      	it	hi
  405aca:	6019      	strhi	r1, [r3, #0]
  405acc:	4b1b      	ldr	r3, [pc, #108]	; (405b3c <_malloc_r+0x354>)
  405ace:	681a      	ldr	r2, [r3, #0]
  405ad0:	4291      	cmp	r1, r2
  405ad2:	6862      	ldr	r2, [r4, #4]
  405ad4:	bf88      	it	hi
  405ad6:	6019      	strhi	r1, [r3, #0]
  405ad8:	f022 0203 	bic.w	r2, r2, #3
  405adc:	4296      	cmp	r6, r2
  405ade:	eba2 0306 	sub.w	r3, r2, r6
  405ae2:	d801      	bhi.n	405ae8 <_malloc_r+0x300>
  405ae4:	2b0f      	cmp	r3, #15
  405ae6:	dc04      	bgt.n	405af2 <_malloc_r+0x30a>
  405ae8:	4628      	mov	r0, r5
  405aea:	f000 fa03 	bl	405ef4 <__malloc_unlock>
  405aee:	2400      	movs	r4, #0
  405af0:	e740      	b.n	405974 <_malloc_r+0x18c>
  405af2:	19a2      	adds	r2, r4, r6
  405af4:	f043 0301 	orr.w	r3, r3, #1
  405af8:	f046 0601 	orr.w	r6, r6, #1
  405afc:	6066      	str	r6, [r4, #4]
  405afe:	4628      	mov	r0, r5
  405b00:	60ba      	str	r2, [r7, #8]
  405b02:	6053      	str	r3, [r2, #4]
  405b04:	f000 f9f6 	bl	405ef4 <__malloc_unlock>
  405b08:	3408      	adds	r4, #8
  405b0a:	4620      	mov	r0, r4
  405b0c:	b003      	add	sp, #12
  405b0e:	e8bd 8ff0 	ldmia.w	sp!, {r4, r5, r6, r7, r8, r9, sl, fp, pc}
  405b12:	2b14      	cmp	r3, #20
  405b14:	d971      	bls.n	405bfa <_malloc_r+0x412>
  405b16:	2b54      	cmp	r3, #84	; 0x54
  405b18:	f200 80a3 	bhi.w	405c62 <_malloc_r+0x47a>
  405b1c:	0b33      	lsrs	r3, r6, #12
  405b1e:	f103 006f 	add.w	r0, r3, #111	; 0x6f
  405b22:	f103 0e6e 	add.w	lr, r3, #110	; 0x6e
  405b26:	00c3      	lsls	r3, r0, #3
  405b28:	e680      	b.n	40582c <_malloc_r+0x44>
  405b2a:	bf00      	nop
  405b2c:	20000638 	.word	0x20000638
  405b30:	20013864 	.word	0x20013864
  405b34:	20013834 	.word	0x20013834
  405b38:	2001385c 	.word	0x2001385c
  405b3c:	20013860 	.word	0x20013860
  405b40:	20000640 	.word	0x20000640
  405b44:	20000a40 	.word	0x20000a40
  405b48:	0a5a      	lsrs	r2, r3, #9
  405b4a:	2a04      	cmp	r2, #4
  405b4c:	d95b      	bls.n	405c06 <_malloc_r+0x41e>
  405b4e:	2a14      	cmp	r2, #20
  405b50:	f200 80ae 	bhi.w	405cb0 <_malloc_r+0x4c8>
  405b54:	f102 015c 	add.w	r1, r2, #92	; 0x5c
  405b58:	00c9      	lsls	r1, r1, #3
  405b5a:	325b      	adds	r2, #91	; 0x5b
  405b5c:	eb07 0c01 	add.w	ip, r7, r1
  405b60:	5879      	ldr	r1, [r7, r1]
  405b62:	f1ac 0c08 	sub.w	ip, ip, #8
  405b66:	458c      	cmp	ip, r1
  405b68:	f000 8088 	beq.w	405c7c <_malloc_r+0x494>
  405b6c:	684a      	ldr	r2, [r1, #4]
  405b6e:	f022 0203 	bic.w	r2, r2, #3
  405b72:	4293      	cmp	r3, r2
  405b74:	d273      	bcs.n	405c5e <_malloc_r+0x476>
  405b76:	6889      	ldr	r1, [r1, #8]
  405b78:	458c      	cmp	ip, r1
  405b7a:	d1f7      	bne.n	405b6c <_malloc_r+0x384>
  405b7c:	f8dc 200c 	ldr.w	r2, [ip, #12]
  405b80:	687b      	ldr	r3, [r7, #4]
  405b82:	60e2      	str	r2, [r4, #12]
  405b84:	f8c4 c008 	str.w	ip, [r4, #8]
  405b88:	6094      	str	r4, [r2, #8]
  405b8a:	f8cc 400c 	str.w	r4, [ip, #12]
  405b8e:	e68f      	b.n	4058b0 <_malloc_r+0xc8>
  405b90:	19a1      	adds	r1, r4, r6
  405b92:	f046 0c01 	orr.w	ip, r6, #1
  405b96:	f042 0601 	orr.w	r6, r2, #1
  405b9a:	f8c4 c004 	str.w	ip, [r4, #4]
  405b9e:	4628      	mov	r0, r5
  405ba0:	6179      	str	r1, [r7, #20]
  405ba2:	6139      	str	r1, [r7, #16]
  405ba4:	f8c1 e00c 	str.w	lr, [r1, #12]
  405ba8:	f8c1 e008 	str.w	lr, [r1, #8]
  405bac:	604e      	str	r6, [r1, #4]
  405bae:	50e2      	str	r2, [r4, r3]
  405bb0:	f000 f9a0 	bl	405ef4 <__malloc_unlock>
  405bb4:	3408      	adds	r4, #8
  405bb6:	e6dd      	b.n	405974 <_malloc_r+0x18c>
  405bb8:	687b      	ldr	r3, [r7, #4]
  405bba:	e679      	b.n	4058b0 <_malloc_r+0xc8>
  405bbc:	f108 0801 	add.w	r8, r8, #1
  405bc0:	f018 0f03 	tst.w	r8, #3
  405bc4:	f10c 0c08 	add.w	ip, ip, #8
  405bc8:	f47f ae85 	bne.w	4058d6 <_malloc_r+0xee>
  405bcc:	e02d      	b.n	405c2a <_malloc_r+0x442>
  405bce:	68dc      	ldr	r4, [r3, #12]
  405bd0:	42a3      	cmp	r3, r4
  405bd2:	bf08      	it	eq
  405bd4:	3002      	addeq	r0, #2
  405bd6:	f43f ae3e 	beq.w	405856 <_malloc_r+0x6e>
  405bda:	e6bb      	b.n	405954 <_malloc_r+0x16c>
  405bdc:	4419      	add	r1, r3
  405bde:	461c      	mov	r4, r3
  405be0:	684a      	ldr	r2, [r1, #4]
  405be2:	68db      	ldr	r3, [r3, #12]
  405be4:	f854 6f08 	ldr.w	r6, [r4, #8]!
  405be8:	f042 0201 	orr.w	r2, r2, #1
  405bec:	604a      	str	r2, [r1, #4]
  405bee:	4628      	mov	r0, r5
  405bf0:	60f3      	str	r3, [r6, #12]
  405bf2:	609e      	str	r6, [r3, #8]
  405bf4:	f000 f97e 	bl	405ef4 <__malloc_unlock>
  405bf8:	e6bc      	b.n	405974 <_malloc_r+0x18c>
  405bfa:	f103 005c 	add.w	r0, r3, #92	; 0x5c
  405bfe:	f103 0e5b 	add.w	lr, r3, #91	; 0x5b
  405c02:	00c3      	lsls	r3, r0, #3
  405c04:	e612      	b.n	40582c <_malloc_r+0x44>
  405c06:	099a      	lsrs	r2, r3, #6
  405c08:	f102 0139 	add.w	r1, r2, #57	; 0x39
  405c0c:	00c9      	lsls	r1, r1, #3
  405c0e:	3238      	adds	r2, #56	; 0x38
  405c10:	e7a4      	b.n	405b5c <_malloc_r+0x374>
  405c12:	42bc      	cmp	r4, r7
  405c14:	d054      	beq.n	405cc0 <_malloc_r+0x4d8>
  405c16:	68bc      	ldr	r4, [r7, #8]
  405c18:	6862      	ldr	r2, [r4, #4]
  405c1a:	f022 0203 	bic.w	r2, r2, #3
  405c1e:	e75d      	b.n	405adc <_malloc_r+0x2f4>
  405c20:	f859 3908 	ldr.w	r3, [r9], #-8
  405c24:	4599      	cmp	r9, r3
  405c26:	f040 8086 	bne.w	405d36 <_malloc_r+0x54e>
  405c2a:	f010 0f03 	tst.w	r0, #3
  405c2e:	f100 30ff 	add.w	r0, r0, #4294967295
  405c32:	d1f5      	bne.n	405c20 <_malloc_r+0x438>
  405c34:	687b      	ldr	r3, [r7, #4]
  405c36:	ea23 0304 	bic.w	r3, r3, r4
  405c3a:	607b      	str	r3, [r7, #4]
  405c3c:	0064      	lsls	r4, r4, #1
  405c3e:	429c      	cmp	r4, r3
  405c40:	f63f aec7 	bhi.w	4059d2 <_malloc_r+0x1ea>
  405c44:	2c00      	cmp	r4, #0
  405c46:	f43f aec4 	beq.w	4059d2 <_malloc_r+0x1ea>
  405c4a:	421c      	tst	r4, r3
  405c4c:	4640      	mov	r0, r8
  405c4e:	f47f ae3e 	bne.w	4058ce <_malloc_r+0xe6>
  405c52:	0064      	lsls	r4, r4, #1
  405c54:	421c      	tst	r4, r3
  405c56:	f100 0004 	add.w	r0, r0, #4
  405c5a:	d0fa      	beq.n	405c52 <_malloc_r+0x46a>
  405c5c:	e637      	b.n	4058ce <_malloc_r+0xe6>
  405c5e:	468c      	mov	ip, r1
  405c60:	e78c      	b.n	405b7c <_malloc_r+0x394>
  405c62:	f5b3 7faa 	cmp.w	r3, #340	; 0x154
  405c66:	d815      	bhi.n	405c94 <_malloc_r+0x4ac>
  405c68:	0bf3      	lsrs	r3, r6, #15
  405c6a:	f103 0078 	add.w	r0, r3, #120	; 0x78
  405c6e:	f103 0e77 	add.w	lr, r3, #119	; 0x77
  405c72:	00c3      	lsls	r3, r0, #3
  405c74:	e5da      	b.n	40582c <_malloc_r+0x44>
  405c76:	f44f 5180 	mov.w	r1, #4096	; 0x1000
  405c7a:	e6ed      	b.n	405a58 <_malloc_r+0x270>
  405c7c:	687b      	ldr	r3, [r7, #4]
  405c7e:	1092      	asrs	r2, r2, #2
  405c80:	2101      	movs	r1, #1
  405c82:	fa01 f202 	lsl.w	r2, r1, r2
  405c86:	4313      	orrs	r3, r2
  405c88:	607b      	str	r3, [r7, #4]
  405c8a:	4662      	mov	r2, ip
  405c8c:	e779      	b.n	405b82 <_malloc_r+0x39a>
  405c8e:	2301      	movs	r3, #1
  405c90:	6053      	str	r3, [r2, #4]
  405c92:	e729      	b.n	405ae8 <_malloc_r+0x300>
  405c94:	f240 5254 	movw	r2, #1364	; 0x554
  405c98:	4293      	cmp	r3, r2
  405c9a:	d822      	bhi.n	405ce2 <_malloc_r+0x4fa>
  405c9c:	0cb3      	lsrs	r3, r6, #18
  405c9e:	f103 007d 	add.w	r0, r3, #125	; 0x7d
  405ca2:	f103 0e7c 	add.w	lr, r3, #124	; 0x7c
  405ca6:	00c3      	lsls	r3, r0, #3
  405ca8:	e5c0      	b.n	40582c <_malloc_r+0x44>
  405caa:	f103 0b10 	add.w	fp, r3, #16
  405cae:	e6ae      	b.n	405a0e <_malloc_r+0x226>
  405cb0:	2a54      	cmp	r2, #84	; 0x54
  405cb2:	d829      	bhi.n	405d08 <_malloc_r+0x520>
  405cb4:	0b1a      	lsrs	r2, r3, #12
  405cb6:	f102 016f 	add.w	r1, r2, #111	; 0x6f
  405cba:	00c9      	lsls	r1, r1, #3
  405cbc:	326e      	adds	r2, #110	; 0x6e
  405cbe:	e74d      	b.n	405b5c <_malloc_r+0x374>
  405cc0:	4b20      	ldr	r3, [pc, #128]	; (405d44 <_malloc_r+0x55c>)
  405cc2:	6819      	ldr	r1, [r3, #0]
  405cc4:	4459      	add	r1, fp
  405cc6:	6019      	str	r1, [r3, #0]
  405cc8:	e6b2      	b.n	405a30 <_malloc_r+0x248>
  405cca:	f3ca 000b 	ubfx	r0, sl, #0, #12
  405cce:	2800      	cmp	r0, #0
  405cd0:	f47f aeae 	bne.w	405a30 <_malloc_r+0x248>
  405cd4:	eb08 030b 	add.w	r3, r8, fp
  405cd8:	68ba      	ldr	r2, [r7, #8]
  405cda:	f043 0301 	orr.w	r3, r3, #1
  405cde:	6053      	str	r3, [r2, #4]
  405ce0:	e6ee      	b.n	405ac0 <_malloc_r+0x2d8>
  405ce2:	207f      	movs	r0, #127	; 0x7f
  405ce4:	f44f 737e 	mov.w	r3, #1016	; 0x3f8
  405ce8:	f04f 0e7e 	mov.w	lr, #126	; 0x7e
  405cec:	e59e      	b.n	40582c <_malloc_r+0x44>
  405cee:	f104 0108 	add.w	r1, r4, #8
  405cf2:	4628      	mov	r0, r5
  405cf4:	9300      	str	r3, [sp, #0]
  405cf6:	f7ff fa59 	bl	4051ac <_free_r>
  405cfa:	9b00      	ldr	r3, [sp, #0]
  405cfc:	6819      	ldr	r1, [r3, #0]
  405cfe:	e6df      	b.n	405ac0 <_malloc_r+0x2d8>
  405d00:	2001      	movs	r0, #1
  405d02:	f04f 0900 	mov.w	r9, #0
  405d06:	e6bc      	b.n	405a82 <_malloc_r+0x29a>
  405d08:	f5b2 7faa 	cmp.w	r2, #340	; 0x154
  405d0c:	d805      	bhi.n	405d1a <_malloc_r+0x532>
  405d0e:	0bda      	lsrs	r2, r3, #15
  405d10:	f102 0178 	add.w	r1, r2, #120	; 0x78
  405d14:	00c9      	lsls	r1, r1, #3
  405d16:	3277      	adds	r2, #119	; 0x77
  405d18:	e720      	b.n	405b5c <_malloc_r+0x374>
  405d1a:	f240 5154 	movw	r1, #1364	; 0x554
  405d1e:	428a      	cmp	r2, r1
  405d20:	d805      	bhi.n	405d2e <_malloc_r+0x546>
  405d22:	0c9a      	lsrs	r2, r3, #18
  405d24:	f102 017d 	add.w	r1, r2, #125	; 0x7d
  405d28:	00c9      	lsls	r1, r1, #3
  405d2a:	327c      	adds	r2, #124	; 0x7c
  405d2c:	e716      	b.n	405b5c <_malloc_r+0x374>
  405d2e:	f44f 717e 	mov.w	r1, #1016	; 0x3f8
  405d32:	227e      	movs	r2, #126	; 0x7e
  405d34:	e712      	b.n	405b5c <_malloc_r+0x374>
  405d36:	687b      	ldr	r3, [r7, #4]
  405d38:	e780      	b.n	405c3c <_malloc_r+0x454>
  405d3a:	08f0      	lsrs	r0, r6, #3
  405d3c:	f106 0308 	add.w	r3, r6, #8
  405d40:	e600      	b.n	405944 <_malloc_r+0x15c>
  405d42:	bf00      	nop
  405d44:	20013834 	.word	0x20013834

00405d48 <__ascii_mbtowc>:
  405d48:	b082      	sub	sp, #8
  405d4a:	b149      	cbz	r1, 405d60 <__ascii_mbtowc+0x18>
  405d4c:	b15a      	cbz	r2, 405d66 <__ascii_mbtowc+0x1e>
  405d4e:	b16b      	cbz	r3, 405d6c <__ascii_mbtowc+0x24>
  405d50:	7813      	ldrb	r3, [r2, #0]
  405d52:	600b      	str	r3, [r1, #0]
  405d54:	7812      	ldrb	r2, [r2, #0]
  405d56:	1c10      	adds	r0, r2, #0
  405d58:	bf18      	it	ne
  405d5a:	2001      	movne	r0, #1
  405d5c:	b002      	add	sp, #8
  405d5e:	4770      	bx	lr
  405d60:	a901      	add	r1, sp, #4
  405d62:	2a00      	cmp	r2, #0
  405d64:	d1f3      	bne.n	405d4e <__ascii_mbtowc+0x6>
  405d66:	4610      	mov	r0, r2
  405d68:	b002      	add	sp, #8
  405d6a:	4770      	bx	lr
  405d6c:	f06f 0001 	mvn.w	r0, #1
  405d70:	e7f4      	b.n	405d5c <__ascii_mbtowc+0x14>
  405d72:	bf00      	nop
	...

00405d80 <memchr>:
  405d80:	f001 01ff 	and.w	r1, r1, #255	; 0xff
  405d84:	2a10      	cmp	r2, #16
  405d86:	db2b      	blt.n	405de0 <memchr+0x60>
  405d88:	f010 0f07 	tst.w	r0, #7
  405d8c:	d008      	beq.n	405da0 <memchr+0x20>
  405d8e:	f810 3b01 	ldrb.w	r3, [r0], #1
  405d92:	3a01      	subs	r2, #1
  405d94:	428b      	cmp	r3, r1
  405d96:	d02d      	beq.n	405df4 <memchr+0x74>
  405d98:	f010 0f07 	tst.w	r0, #7
  405d9c:	b342      	cbz	r2, 405df0 <memchr+0x70>
  405d9e:	d1f6      	bne.n	405d8e <memchr+0xe>
  405da0:	b4f0      	push	{r4, r5, r6, r7}
  405da2:	ea41 2101 	orr.w	r1, r1, r1, lsl #8
  405da6:	ea41 4101 	orr.w	r1, r1, r1, lsl #16
  405daa:	f022 0407 	bic.w	r4, r2, #7
  405dae:	f07f 0700 	mvns.w	r7, #0
  405db2:	2300      	movs	r3, #0
  405db4:	e8f0 5602 	ldrd	r5, r6, [r0], #8
  405db8:	3c08      	subs	r4, #8
  405dba:	ea85 0501 	eor.w	r5, r5, r1
  405dbe:	ea86 0601 	eor.w	r6, r6, r1
  405dc2:	fa85 f547 	uadd8	r5, r5, r7
  405dc6:	faa3 f587 	sel	r5, r3, r7
  405dca:	fa86 f647 	uadd8	r6, r6, r7
  405dce:	faa5 f687 	sel	r6, r5, r7
  405dd2:	b98e      	cbnz	r6, 405df8 <memchr+0x78>
  405dd4:	d1ee      	bne.n	405db4 <memchr+0x34>
  405dd6:	bcf0      	pop	{r4, r5, r6, r7}
  405dd8:	f001 01ff 	and.w	r1, r1, #255	; 0xff
  405ddc:	f002 0207 	and.w	r2, r2, #7
  405de0:	b132      	cbz	r2, 405df0 <memchr+0x70>
  405de2:	f810 3b01 	ldrb.w	r3, [r0], #1
  405de6:	3a01      	subs	r2, #1
  405de8:	ea83 0301 	eor.w	r3, r3, r1
  405dec:	b113      	cbz	r3, 405df4 <memchr+0x74>
  405dee:	d1f8      	bne.n	405de2 <memchr+0x62>
  405df0:	2000      	movs	r0, #0
  405df2:	4770      	bx	lr
  405df4:	3801      	subs	r0, #1
  405df6:	4770      	bx	lr
  405df8:	2d00      	cmp	r5, #0
  405dfa:	bf06      	itte	eq
  405dfc:	4635      	moveq	r5, r6
  405dfe:	3803      	subeq	r0, #3
  405e00:	3807      	subne	r0, #7
  405e02:	f015 0f01 	tst.w	r5, #1
  405e06:	d107      	bne.n	405e18 <memchr+0x98>
  405e08:	3001      	adds	r0, #1
  405e0a:	f415 7f80 	tst.w	r5, #256	; 0x100
  405e0e:	bf02      	ittt	eq
  405e10:	3001      	addeq	r0, #1
  405e12:	f415 3fc0 	tsteq.w	r5, #98304	; 0x18000
  405e16:	3001      	addeq	r0, #1
  405e18:	bcf0      	pop	{r4, r5, r6, r7}
  405e1a:	3801      	subs	r0, #1
  405e1c:	4770      	bx	lr
  405e1e:	bf00      	nop

00405e20 <memmove>:
  405e20:	4288      	cmp	r0, r1
  405e22:	b5f0      	push	{r4, r5, r6, r7, lr}
  405e24:	d90d      	bls.n	405e42 <memmove+0x22>
  405e26:	188b      	adds	r3, r1, r2
  405e28:	4298      	cmp	r0, r3
  405e2a:	d20a      	bcs.n	405e42 <memmove+0x22>
  405e2c:	1884      	adds	r4, r0, r2
  405e2e:	2a00      	cmp	r2, #0
  405e30:	d051      	beq.n	405ed6 <memmove+0xb6>
  405e32:	4622      	mov	r2, r4
  405e34:	f813 4d01 	ldrb.w	r4, [r3, #-1]!
  405e38:	f802 4d01 	strb.w	r4, [r2, #-1]!
  405e3c:	4299      	cmp	r1, r3
  405e3e:	d1f9      	bne.n	405e34 <memmove+0x14>
  405e40:	bdf0      	pop	{r4, r5, r6, r7, pc}
  405e42:	2a0f      	cmp	r2, #15
  405e44:	d948      	bls.n	405ed8 <memmove+0xb8>
  405e46:	ea41 0300 	orr.w	r3, r1, r0
  405e4a:	079b      	lsls	r3, r3, #30
  405e4c:	d146      	bne.n	405edc <memmove+0xbc>
  405e4e:	f100 0410 	add.w	r4, r0, #16
  405e52:	f101 0310 	add.w	r3, r1, #16
  405e56:	4615      	mov	r5, r2
  405e58:	f853 6c10 	ldr.w	r6, [r3, #-16]
  405e5c:	f844 6c10 	str.w	r6, [r4, #-16]
  405e60:	f853 6c0c 	ldr.w	r6, [r3, #-12]
  405e64:	f844 6c0c 	str.w	r6, [r4, #-12]
  405e68:	f853 6c08 	ldr.w	r6, [r3, #-8]
  405e6c:	f844 6c08 	str.w	r6, [r4, #-8]
  405e70:	3d10      	subs	r5, #16
  405e72:	f853 6c04 	ldr.w	r6, [r3, #-4]
  405e76:	f844 6c04 	str.w	r6, [r4, #-4]
  405e7a:	2d0f      	cmp	r5, #15
  405e7c:	f103 0310 	add.w	r3, r3, #16
  405e80:	f104 0410 	add.w	r4, r4, #16
  405e84:	d8e8      	bhi.n	405e58 <memmove+0x38>
  405e86:	f1a2 0310 	sub.w	r3, r2, #16
  405e8a:	f023 030f 	bic.w	r3, r3, #15
  405e8e:	f002 0e0f 	and.w	lr, r2, #15
  405e92:	3310      	adds	r3, #16
  405e94:	f1be 0f03 	cmp.w	lr, #3
  405e98:	4419      	add	r1, r3
  405e9a:	4403      	add	r3, r0
  405e9c:	d921      	bls.n	405ee2 <memmove+0xc2>
  405e9e:	1f1e      	subs	r6, r3, #4
  405ea0:	460d      	mov	r5, r1
  405ea2:	4674      	mov	r4, lr
  405ea4:	3c04      	subs	r4, #4
  405ea6:	f855 7b04 	ldr.w	r7, [r5], #4
  405eaa:	f846 7f04 	str.w	r7, [r6, #4]!
  405eae:	2c03      	cmp	r4, #3
  405eb0:	d8f8      	bhi.n	405ea4 <memmove+0x84>
  405eb2:	f1ae 0404 	sub.w	r4, lr, #4
  405eb6:	f024 0403 	bic.w	r4, r4, #3
  405eba:	3404      	adds	r4, #4
  405ebc:	4421      	add	r1, r4
  405ebe:	4423      	add	r3, r4
  405ec0:	f002 0203 	and.w	r2, r2, #3
  405ec4:	b162      	cbz	r2, 405ee0 <memmove+0xc0>
  405ec6:	3b01      	subs	r3, #1
  405ec8:	440a      	add	r2, r1
  405eca:	f811 4b01 	ldrb.w	r4, [r1], #1
  405ece:	f803 4f01 	strb.w	r4, [r3, #1]!
  405ed2:	428a      	cmp	r2, r1
  405ed4:	d1f9      	bne.n	405eca <memmove+0xaa>
  405ed6:	bdf0      	pop	{r4, r5, r6, r7, pc}
  405ed8:	4603      	mov	r3, r0
  405eda:	e7f3      	b.n	405ec4 <memmove+0xa4>
  405edc:	4603      	mov	r3, r0
  405ede:	e7f2      	b.n	405ec6 <memmove+0xa6>
  405ee0:	bdf0      	pop	{r4, r5, r6, r7, pc}
  405ee2:	4672      	mov	r2, lr
  405ee4:	e7ee      	b.n	405ec4 <memmove+0xa4>
  405ee6:	bf00      	nop

00405ee8 <__malloc_lock>:
  405ee8:	4801      	ldr	r0, [pc, #4]	; (405ef0 <__malloc_lock+0x8>)
  405eea:	f7ff bbf9 	b.w	4056e0 <__retarget_lock_acquire_recursive>
  405eee:	bf00      	nop
  405ef0:	2001b8a8 	.word	0x2001b8a8

00405ef4 <__malloc_unlock>:
  405ef4:	4801      	ldr	r0, [pc, #4]	; (405efc <__malloc_unlock+0x8>)
  405ef6:	f7ff bbf5 	b.w	4056e4 <__retarget_lock_release_recursive>
  405efa:	bf00      	nop
  405efc:	2001b8a8 	.word	0x2001b8a8

00405f00 <_realloc_r>:
  405f00:	2900      	cmp	r1, #0
  405f02:	f000 8095 	beq.w	406030 <_realloc_r+0x130>
  405f06:	e92d 4ff0 	stmdb	sp!, {r4, r5, r6, r7, r8, r9, sl, fp, lr}
  405f0a:	460d      	mov	r5, r1
  405f0c:	4616      	mov	r6, r2
  405f0e:	b083      	sub	sp, #12
  405f10:	4680      	mov	r8, r0
  405f12:	f106 070b 	add.w	r7, r6, #11
  405f16:	f7ff ffe7 	bl	405ee8 <__malloc_lock>
  405f1a:	f855 ec04 	ldr.w	lr, [r5, #-4]
  405f1e:	2f16      	cmp	r7, #22
  405f20:	f02e 0403 	bic.w	r4, lr, #3
  405f24:	f1a5 0908 	sub.w	r9, r5, #8
  405f28:	d83c      	bhi.n	405fa4 <_realloc_r+0xa4>
  405f2a:	2210      	movs	r2, #16
  405f2c:	4617      	mov	r7, r2
  405f2e:	42be      	cmp	r6, r7
  405f30:	d83d      	bhi.n	405fae <_realloc_r+0xae>
  405f32:	4294      	cmp	r4, r2
  405f34:	da43      	bge.n	405fbe <_realloc_r+0xbe>
  405f36:	4bc4      	ldr	r3, [pc, #784]	; (406248 <_realloc_r+0x348>)
  405f38:	6899      	ldr	r1, [r3, #8]
  405f3a:	eb09 0004 	add.w	r0, r9, r4
  405f3e:	4288      	cmp	r0, r1
  405f40:	f000 80b4 	beq.w	4060ac <_realloc_r+0x1ac>
  405f44:	6843      	ldr	r3, [r0, #4]
  405f46:	f023 0101 	bic.w	r1, r3, #1
  405f4a:	4401      	add	r1, r0
  405f4c:	6849      	ldr	r1, [r1, #4]
  405f4e:	07c9      	lsls	r1, r1, #31
  405f50:	d54c      	bpl.n	405fec <_realloc_r+0xec>
  405f52:	f01e 0f01 	tst.w	lr, #1
  405f56:	f000 809b 	beq.w	406090 <_realloc_r+0x190>
  405f5a:	4631      	mov	r1, r6
  405f5c:	4640      	mov	r0, r8
  405f5e:	f7ff fc43 	bl	4057e8 <_malloc_r>
  405f62:	4606      	mov	r6, r0
  405f64:	2800      	cmp	r0, #0
  405f66:	d03a      	beq.n	405fde <_realloc_r+0xde>
  405f68:	f855 3c04 	ldr.w	r3, [r5, #-4]
  405f6c:	f023 0301 	bic.w	r3, r3, #1
  405f70:	444b      	add	r3, r9
  405f72:	f1a0 0208 	sub.w	r2, r0, #8
  405f76:	429a      	cmp	r2, r3
  405f78:	f000 8121 	beq.w	4061be <_realloc_r+0x2be>
  405f7c:	1f22      	subs	r2, r4, #4
  405f7e:	2a24      	cmp	r2, #36	; 0x24
  405f80:	f200 8107 	bhi.w	406192 <_realloc_r+0x292>
  405f84:	2a13      	cmp	r2, #19
  405f86:	f200 80db 	bhi.w	406140 <_realloc_r+0x240>
  405f8a:	4603      	mov	r3, r0
  405f8c:	462a      	mov	r2, r5
  405f8e:	6811      	ldr	r1, [r2, #0]
  405f90:	6019      	str	r1, [r3, #0]
  405f92:	6851      	ldr	r1, [r2, #4]
  405f94:	6059      	str	r1, [r3, #4]
  405f96:	6892      	ldr	r2, [r2, #8]
  405f98:	609a      	str	r2, [r3, #8]
  405f9a:	4629      	mov	r1, r5
  405f9c:	4640      	mov	r0, r8
  405f9e:	f7ff f905 	bl	4051ac <_free_r>
  405fa2:	e01c      	b.n	405fde <_realloc_r+0xde>
  405fa4:	f027 0707 	bic.w	r7, r7, #7
  405fa8:	2f00      	cmp	r7, #0
  405faa:	463a      	mov	r2, r7
  405fac:	dabf      	bge.n	405f2e <_realloc_r+0x2e>
  405fae:	2600      	movs	r6, #0
  405fb0:	230c      	movs	r3, #12
  405fb2:	4630      	mov	r0, r6
  405fb4:	f8c8 3000 	str.w	r3, [r8]
  405fb8:	b003      	add	sp, #12
  405fba:	e8bd 8ff0 	ldmia.w	sp!, {r4, r5, r6, r7, r8, r9, sl, fp, pc}
  405fbe:	462e      	mov	r6, r5
  405fc0:	1be3      	subs	r3, r4, r7
  405fc2:	2b0f      	cmp	r3, #15
  405fc4:	d81e      	bhi.n	406004 <_realloc_r+0x104>
  405fc6:	f8d9 3004 	ldr.w	r3, [r9, #4]
  405fca:	f003 0301 	and.w	r3, r3, #1
  405fce:	4323      	orrs	r3, r4
  405fd0:	444c      	add	r4, r9
  405fd2:	f8c9 3004 	str.w	r3, [r9, #4]
  405fd6:	6863      	ldr	r3, [r4, #4]
  405fd8:	f043 0301 	orr.w	r3, r3, #1
  405fdc:	6063      	str	r3, [r4, #4]
  405fde:	4640      	mov	r0, r8
  405fe0:	f7ff ff88 	bl	405ef4 <__malloc_unlock>
  405fe4:	4630      	mov	r0, r6
  405fe6:	b003      	add	sp, #12
  405fe8:	e8bd 8ff0 	ldmia.w	sp!, {r4, r5, r6, r7, r8, r9, sl, fp, pc}
  405fec:	f023 0303 	bic.w	r3, r3, #3
  405ff0:	18e1      	adds	r1, r4, r3
  405ff2:	4291      	cmp	r1, r2
  405ff4:	db1f      	blt.n	406036 <_realloc_r+0x136>
  405ff6:	68c3      	ldr	r3, [r0, #12]
  405ff8:	6882      	ldr	r2, [r0, #8]
  405ffa:	462e      	mov	r6, r5
  405ffc:	60d3      	str	r3, [r2, #12]
  405ffe:	460c      	mov	r4, r1
  406000:	609a      	str	r2, [r3, #8]
  406002:	e7dd      	b.n	405fc0 <_realloc_r+0xc0>
  406004:	f8d9 2004 	ldr.w	r2, [r9, #4]
  406008:	eb09 0107 	add.w	r1, r9, r7
  40600c:	f002 0201 	and.w	r2, r2, #1
  406010:	444c      	add	r4, r9
  406012:	f043 0301 	orr.w	r3, r3, #1
  406016:	4317      	orrs	r7, r2
  406018:	f8c9 7004 	str.w	r7, [r9, #4]
  40601c:	604b      	str	r3, [r1, #4]
  40601e:	6863      	ldr	r3, [r4, #4]
  406020:	f043 0301 	orr.w	r3, r3, #1
  406024:	3108      	adds	r1, #8
  406026:	6063      	str	r3, [r4, #4]
  406028:	4640      	mov	r0, r8
  40602a:	f7ff f8bf 	bl	4051ac <_free_r>
  40602e:	e7d6      	b.n	405fde <_realloc_r+0xde>
  406030:	4611      	mov	r1, r2
  406032:	f7ff bbd9 	b.w	4057e8 <_malloc_r>
  406036:	f01e 0f01 	tst.w	lr, #1
  40603a:	d18e      	bne.n	405f5a <_realloc_r+0x5a>
  40603c:	f855 1c08 	ldr.w	r1, [r5, #-8]
  406040:	eba9 0a01 	sub.w	sl, r9, r1
  406044:	f8da 1004 	ldr.w	r1, [sl, #4]
  406048:	f021 0103 	bic.w	r1, r1, #3
  40604c:	440b      	add	r3, r1
  40604e:	4423      	add	r3, r4
  406050:	4293      	cmp	r3, r2
  406052:	db25      	blt.n	4060a0 <_realloc_r+0x1a0>
  406054:	68c2      	ldr	r2, [r0, #12]
  406056:	6881      	ldr	r1, [r0, #8]
  406058:	4656      	mov	r6, sl
  40605a:	60ca      	str	r2, [r1, #12]
  40605c:	6091      	str	r1, [r2, #8]
  40605e:	f8da 100c 	ldr.w	r1, [sl, #12]
  406062:	f856 0f08 	ldr.w	r0, [r6, #8]!
  406066:	1f22      	subs	r2, r4, #4
  406068:	2a24      	cmp	r2, #36	; 0x24
  40606a:	60c1      	str	r1, [r0, #12]
  40606c:	6088      	str	r0, [r1, #8]
  40606e:	f200 8094 	bhi.w	40619a <_realloc_r+0x29a>
  406072:	2a13      	cmp	r2, #19
  406074:	d96f      	bls.n	406156 <_realloc_r+0x256>
  406076:	6829      	ldr	r1, [r5, #0]
  406078:	f8ca 1008 	str.w	r1, [sl, #8]
  40607c:	6869      	ldr	r1, [r5, #4]
  40607e:	f8ca 100c 	str.w	r1, [sl, #12]
  406082:	2a1b      	cmp	r2, #27
  406084:	f200 80a2 	bhi.w	4061cc <_realloc_r+0x2cc>
  406088:	3508      	adds	r5, #8
  40608a:	f10a 0210 	add.w	r2, sl, #16
  40608e:	e063      	b.n	406158 <_realloc_r+0x258>
  406090:	f855 3c08 	ldr.w	r3, [r5, #-8]
  406094:	eba9 0a03 	sub.w	sl, r9, r3
  406098:	f8da 1004 	ldr.w	r1, [sl, #4]
  40609c:	f021 0103 	bic.w	r1, r1, #3
  4060a0:	1863      	adds	r3, r4, r1
  4060a2:	4293      	cmp	r3, r2
  4060a4:	f6ff af59 	blt.w	405f5a <_realloc_r+0x5a>
  4060a8:	4656      	mov	r6, sl
  4060aa:	e7d8      	b.n	40605e <_realloc_r+0x15e>
  4060ac:	6841      	ldr	r1, [r0, #4]
  4060ae:	f021 0b03 	bic.w	fp, r1, #3
  4060b2:	44a3      	add	fp, r4
  4060b4:	f107 0010 	add.w	r0, r7, #16
  4060b8:	4583      	cmp	fp, r0
  4060ba:	da56      	bge.n	40616a <_realloc_r+0x26a>
  4060bc:	f01e 0f01 	tst.w	lr, #1
  4060c0:	f47f af4b 	bne.w	405f5a <_realloc_r+0x5a>
  4060c4:	f855 1c08 	ldr.w	r1, [r5, #-8]
  4060c8:	eba9 0a01 	sub.w	sl, r9, r1
  4060cc:	f8da 1004 	ldr.w	r1, [sl, #4]
  4060d0:	f021 0103 	bic.w	r1, r1, #3
  4060d4:	448b      	add	fp, r1
  4060d6:	4558      	cmp	r0, fp
  4060d8:	dce2      	bgt.n	4060a0 <_realloc_r+0x1a0>
  4060da:	4656      	mov	r6, sl
  4060dc:	f8da 100c 	ldr.w	r1, [sl, #12]
  4060e0:	f856 0f08 	ldr.w	r0, [r6, #8]!
  4060e4:	1f22      	subs	r2, r4, #4
  4060e6:	2a24      	cmp	r2, #36	; 0x24
  4060e8:	60c1      	str	r1, [r0, #12]
  4060ea:	6088      	str	r0, [r1, #8]
  4060ec:	f200 808f 	bhi.w	40620e <_realloc_r+0x30e>
  4060f0:	2a13      	cmp	r2, #19
  4060f2:	f240 808a 	bls.w	40620a <_realloc_r+0x30a>
  4060f6:	6829      	ldr	r1, [r5, #0]
  4060f8:	f8ca 1008 	str.w	r1, [sl, #8]
  4060fc:	6869      	ldr	r1, [r5, #4]
  4060fe:	f8ca 100c 	str.w	r1, [sl, #12]
  406102:	2a1b      	cmp	r2, #27
  406104:	f200 808a 	bhi.w	40621c <_realloc_r+0x31c>
  406108:	3508      	adds	r5, #8
  40610a:	f10a 0210 	add.w	r2, sl, #16
  40610e:	6829      	ldr	r1, [r5, #0]
  406110:	6011      	str	r1, [r2, #0]
  406112:	6869      	ldr	r1, [r5, #4]
  406114:	6051      	str	r1, [r2, #4]
  406116:	68a9      	ldr	r1, [r5, #8]
  406118:	6091      	str	r1, [r2, #8]
  40611a:	eb0a 0107 	add.w	r1, sl, r7
  40611e:	ebab 0207 	sub.w	r2, fp, r7
  406122:	f042 0201 	orr.w	r2, r2, #1
  406126:	6099      	str	r1, [r3, #8]
  406128:	604a      	str	r2, [r1, #4]
  40612a:	f8da 3004 	ldr.w	r3, [sl, #4]
  40612e:	f003 0301 	and.w	r3, r3, #1
  406132:	431f      	orrs	r7, r3
  406134:	4640      	mov	r0, r8
  406136:	f8ca 7004 	str.w	r7, [sl, #4]
  40613a:	f7ff fedb 	bl	405ef4 <__malloc_unlock>
  40613e:	e751      	b.n	405fe4 <_realloc_r+0xe4>
  406140:	682b      	ldr	r3, [r5, #0]
  406142:	6003      	str	r3, [r0, #0]
  406144:	686b      	ldr	r3, [r5, #4]
  406146:	6043      	str	r3, [r0, #4]
  406148:	2a1b      	cmp	r2, #27
  40614a:	d82d      	bhi.n	4061a8 <_realloc_r+0x2a8>
  40614c:	f100 0308 	add.w	r3, r0, #8
  406150:	f105 0208 	add.w	r2, r5, #8
  406154:	e71b      	b.n	405f8e <_realloc_r+0x8e>
  406156:	4632      	mov	r2, r6
  406158:	6829      	ldr	r1, [r5, #0]
  40615a:	6011      	str	r1, [r2, #0]
  40615c:	6869      	ldr	r1, [r5, #4]
  40615e:	6051      	str	r1, [r2, #4]
  406160:	68a9      	ldr	r1, [r5, #8]
  406162:	6091      	str	r1, [r2, #8]
  406164:	461c      	mov	r4, r3
  406166:	46d1      	mov	r9, sl
  406168:	e72a      	b.n	405fc0 <_realloc_r+0xc0>
  40616a:	eb09 0107 	add.w	r1, r9, r7
  40616e:	ebab 0b07 	sub.w	fp, fp, r7
  406172:	f04b 0201 	orr.w	r2, fp, #1
  406176:	6099      	str	r1, [r3, #8]
  406178:	604a      	str	r2, [r1, #4]
  40617a:	f855 3c04 	ldr.w	r3, [r5, #-4]
  40617e:	f003 0301 	and.w	r3, r3, #1
  406182:	431f      	orrs	r7, r3
  406184:	4640      	mov	r0, r8
  406186:	f845 7c04 	str.w	r7, [r5, #-4]
  40618a:	f7ff feb3 	bl	405ef4 <__malloc_unlock>
  40618e:	462e      	mov	r6, r5
  406190:	e728      	b.n	405fe4 <_realloc_r+0xe4>
  406192:	4629      	mov	r1, r5
  406194:	f7ff fe44 	bl	405e20 <memmove>
  406198:	e6ff      	b.n	405f9a <_realloc_r+0x9a>
  40619a:	4629      	mov	r1, r5
  40619c:	4630      	mov	r0, r6
  40619e:	461c      	mov	r4, r3
  4061a0:	46d1      	mov	r9, sl
  4061a2:	f7ff fe3d 	bl	405e20 <memmove>
  4061a6:	e70b      	b.n	405fc0 <_realloc_r+0xc0>
  4061a8:	68ab      	ldr	r3, [r5, #8]
  4061aa:	6083      	str	r3, [r0, #8]
  4061ac:	68eb      	ldr	r3, [r5, #12]
  4061ae:	60c3      	str	r3, [r0, #12]
  4061b0:	2a24      	cmp	r2, #36	; 0x24
  4061b2:	d017      	beq.n	4061e4 <_realloc_r+0x2e4>
  4061b4:	f100 0310 	add.w	r3, r0, #16
  4061b8:	f105 0210 	add.w	r2, r5, #16
  4061bc:	e6e7      	b.n	405f8e <_realloc_r+0x8e>
  4061be:	f850 3c04 	ldr.w	r3, [r0, #-4]
  4061c2:	f023 0303 	bic.w	r3, r3, #3
  4061c6:	441c      	add	r4, r3
  4061c8:	462e      	mov	r6, r5
  4061ca:	e6f9      	b.n	405fc0 <_realloc_r+0xc0>
  4061cc:	68a9      	ldr	r1, [r5, #8]
  4061ce:	f8ca 1010 	str.w	r1, [sl, #16]
  4061d2:	68e9      	ldr	r1, [r5, #12]
  4061d4:	f8ca 1014 	str.w	r1, [sl, #20]
  4061d8:	2a24      	cmp	r2, #36	; 0x24
  4061da:	d00c      	beq.n	4061f6 <_realloc_r+0x2f6>
  4061dc:	3510      	adds	r5, #16
  4061de:	f10a 0218 	add.w	r2, sl, #24
  4061e2:	e7b9      	b.n	406158 <_realloc_r+0x258>
  4061e4:	692b      	ldr	r3, [r5, #16]
  4061e6:	6103      	str	r3, [r0, #16]
  4061e8:	696b      	ldr	r3, [r5, #20]
  4061ea:	6143      	str	r3, [r0, #20]
  4061ec:	f105 0218 	add.w	r2, r5, #24
  4061f0:	f100 0318 	add.w	r3, r0, #24
  4061f4:	e6cb      	b.n	405f8e <_realloc_r+0x8e>
  4061f6:	692a      	ldr	r2, [r5, #16]
  4061f8:	f8ca 2018 	str.w	r2, [sl, #24]
  4061fc:	696a      	ldr	r2, [r5, #20]
  4061fe:	f8ca 201c 	str.w	r2, [sl, #28]
  406202:	3518      	adds	r5, #24
  406204:	f10a 0220 	add.w	r2, sl, #32
  406208:	e7a6      	b.n	406158 <_realloc_r+0x258>
  40620a:	4632      	mov	r2, r6
  40620c:	e77f      	b.n	40610e <_realloc_r+0x20e>
  40620e:	4629      	mov	r1, r5
  406210:	4630      	mov	r0, r6
  406212:	9301      	str	r3, [sp, #4]
  406214:	f7ff fe04 	bl	405e20 <memmove>
  406218:	9b01      	ldr	r3, [sp, #4]
  40621a:	e77e      	b.n	40611a <_realloc_r+0x21a>
  40621c:	68a9      	ldr	r1, [r5, #8]
  40621e:	f8ca 1010 	str.w	r1, [sl, #16]
  406222:	68e9      	ldr	r1, [r5, #12]
  406224:	f8ca 1014 	str.w	r1, [sl, #20]
  406228:	2a24      	cmp	r2, #36	; 0x24
  40622a:	d003      	beq.n	406234 <_realloc_r+0x334>
  40622c:	3510      	adds	r5, #16
  40622e:	f10a 0218 	add.w	r2, sl, #24
  406232:	e76c      	b.n	40610e <_realloc_r+0x20e>
  406234:	692a      	ldr	r2, [r5, #16]
  406236:	f8ca 2018 	str.w	r2, [sl, #24]
  40623a:	696a      	ldr	r2, [r5, #20]
  40623c:	f8ca 201c 	str.w	r2, [sl, #28]
  406240:	3518      	adds	r5, #24
  406242:	f10a 0220 	add.w	r2, sl, #32
  406246:	e762      	b.n	40610e <_realloc_r+0x20e>
  406248:	20000638 	.word	0x20000638

0040624c <_sbrk_r>:
  40624c:	b538      	push	{r3, r4, r5, lr}
  40624e:	4c07      	ldr	r4, [pc, #28]	; (40626c <_sbrk_r+0x20>)
  406250:	2300      	movs	r3, #0
  406252:	4605      	mov	r5, r0
  406254:	4608      	mov	r0, r1
  406256:	6023      	str	r3, [r4, #0]
  406258:	f7fc fb6a 	bl	402930 <_sbrk>
  40625c:	1c43      	adds	r3, r0, #1
  40625e:	d000      	beq.n	406262 <_sbrk_r+0x16>
  406260:	bd38      	pop	{r3, r4, r5, pc}
  406262:	6823      	ldr	r3, [r4, #0]
  406264:	2b00      	cmp	r3, #0
  406266:	d0fb      	beq.n	406260 <_sbrk_r+0x14>
  406268:	602b      	str	r3, [r5, #0]
  40626a:	bd38      	pop	{r3, r4, r5, pc}
  40626c:	2001b8bc 	.word	0x2001b8bc

00406270 <__sread>:
  406270:	b510      	push	{r4, lr}
  406272:	460c      	mov	r4, r1
  406274:	f9b1 100e 	ldrsh.w	r1, [r1, #14]
  406278:	f000 fa68 	bl	40674c <_read_r>
  40627c:	2800      	cmp	r0, #0
  40627e:	db03      	blt.n	406288 <__sread+0x18>
  406280:	6d23      	ldr	r3, [r4, #80]	; 0x50
  406282:	4403      	add	r3, r0
  406284:	6523      	str	r3, [r4, #80]	; 0x50
  406286:	bd10      	pop	{r4, pc}
  406288:	89a3      	ldrh	r3, [r4, #12]
  40628a:	f423 5380 	bic.w	r3, r3, #4096	; 0x1000
  40628e:	81a3      	strh	r3, [r4, #12]
  406290:	bd10      	pop	{r4, pc}
  406292:	bf00      	nop

00406294 <__swrite>:
  406294:	e92d 41f0 	stmdb	sp!, {r4, r5, r6, r7, r8, lr}
  406298:	4616      	mov	r6, r2
  40629a:	f9b1 200c 	ldrsh.w	r2, [r1, #12]
  40629e:	461f      	mov	r7, r3
  4062a0:	05d3      	lsls	r3, r2, #23
  4062a2:	460c      	mov	r4, r1
  4062a4:	4605      	mov	r5, r0
  4062a6:	d507      	bpl.n	4062b8 <__swrite+0x24>
  4062a8:	2200      	movs	r2, #0
  4062aa:	2302      	movs	r3, #2
  4062ac:	f9b1 100e 	ldrsh.w	r1, [r1, #14]
  4062b0:	f000 fa36 	bl	406720 <_lseek_r>
  4062b4:	f9b4 200c 	ldrsh.w	r2, [r4, #12]
  4062b8:	f9b4 100e 	ldrsh.w	r1, [r4, #14]
  4062bc:	f422 5280 	bic.w	r2, r2, #4096	; 0x1000
  4062c0:	81a2      	strh	r2, [r4, #12]
  4062c2:	463b      	mov	r3, r7
  4062c4:	4632      	mov	r2, r6
  4062c6:	4628      	mov	r0, r5
  4062c8:	e8bd 41f0 	ldmia.w	sp!, {r4, r5, r6, r7, r8, lr}
  4062cc:	f000 b916 	b.w	4064fc <_write_r>

004062d0 <__sseek>:
  4062d0:	b510      	push	{r4, lr}
  4062d2:	460c      	mov	r4, r1
  4062d4:	f9b1 100e 	ldrsh.w	r1, [r1, #14]
  4062d8:	f000 fa22 	bl	406720 <_lseek_r>
  4062dc:	89a3      	ldrh	r3, [r4, #12]
  4062de:	1c42      	adds	r2, r0, #1
  4062e0:	bf0e      	itee	eq
  4062e2:	f423 5380 	biceq.w	r3, r3, #4096	; 0x1000
  4062e6:	f443 5380 	orrne.w	r3, r3, #4096	; 0x1000
  4062ea:	6520      	strne	r0, [r4, #80]	; 0x50
  4062ec:	81a3      	strh	r3, [r4, #12]
  4062ee:	bd10      	pop	{r4, pc}

004062f0 <__sclose>:
  4062f0:	f9b1 100e 	ldrsh.w	r1, [r1, #14]
  4062f4:	f000 b97a 	b.w	4065ec <_close_r>
	...

00406300 <strlen>:
  406300:	f890 f000 	pld	[r0]
  406304:	e96d 4502 	strd	r4, r5, [sp, #-8]!
  406308:	f020 0107 	bic.w	r1, r0, #7
  40630c:	f06f 0c00 	mvn.w	ip, #0
  406310:	f010 0407 	ands.w	r4, r0, #7
  406314:	f891 f020 	pld	[r1, #32]
  406318:	f040 8049 	bne.w	4063ae <strlen+0xae>
  40631c:	f04f 0400 	mov.w	r4, #0
  406320:	f06f 0007 	mvn.w	r0, #7
  406324:	e9d1 2300 	ldrd	r2, r3, [r1]
  406328:	f891 f040 	pld	[r1, #64]	; 0x40
  40632c:	f100 0008 	add.w	r0, r0, #8
  406330:	fa82 f24c 	uadd8	r2, r2, ip
  406334:	faa4 f28c 	sel	r2, r4, ip
  406338:	fa83 f34c 	uadd8	r3, r3, ip
  40633c:	faa2 f38c 	sel	r3, r2, ip
  406340:	bb4b      	cbnz	r3, 406396 <strlen+0x96>
  406342:	e9d1 2302 	ldrd	r2, r3, [r1, #8]
  406346:	fa82 f24c 	uadd8	r2, r2, ip
  40634a:	f100 0008 	add.w	r0, r0, #8
  40634e:	faa4 f28c 	sel	r2, r4, ip
  406352:	fa83 f34c 	uadd8	r3, r3, ip
  406356:	faa2 f38c 	sel	r3, r2, ip
  40635a:	b9e3      	cbnz	r3, 406396 <strlen+0x96>
  40635c:	e9d1 2304 	ldrd	r2, r3, [r1, #16]
  406360:	fa82 f24c 	uadd8	r2, r2, ip
  406364:	f100 0008 	add.w	r0, r0, #8
  406368:	faa4 f28c 	sel	r2, r4, ip
  40636c:	fa83 f34c 	uadd8	r3, r3, ip
  406370:	faa2 f38c 	sel	r3, r2, ip
  406374:	b97b      	cbnz	r3, 406396 <strlen+0x96>
  406376:	e9d1 2306 	ldrd	r2, r3, [r1, #24]
  40637a:	f101 0120 	add.w	r1, r1, #32
  40637e:	fa82 f24c 	uadd8	r2, r2, ip
  406382:	f100 0008 	add.w	r0, r0, #8
  406386:	faa4 f28c 	sel	r2, r4, ip
  40638a:	fa83 f34c 	uadd8	r3, r3, ip
  40638e:	faa2 f38c 	sel	r3, r2, ip
  406392:	2b00      	cmp	r3, #0
  406394:	d0c6      	beq.n	406324 <strlen+0x24>
  406396:	2a00      	cmp	r2, #0
  406398:	bf04      	itt	eq
  40639a:	3004      	addeq	r0, #4
  40639c:	461a      	moveq	r2, r3
  40639e:	ba12      	rev	r2, r2
  4063a0:	fab2 f282 	clz	r2, r2
  4063a4:	e8fd 4502 	ldrd	r4, r5, [sp], #8
  4063a8:	eb00 00d2 	add.w	r0, r0, r2, lsr #3
  4063ac:	4770      	bx	lr
  4063ae:	e9d1 2300 	ldrd	r2, r3, [r1]
  4063b2:	f004 0503 	and.w	r5, r4, #3
  4063b6:	f1c4 0000 	rsb	r0, r4, #0
  4063ba:	ea4f 05c5 	mov.w	r5, r5, lsl #3
  4063be:	f014 0f04 	tst.w	r4, #4
  4063c2:	f891 f040 	pld	[r1, #64]	; 0x40
  4063c6:	fa0c f505 	lsl.w	r5, ip, r5
  4063ca:	ea62 0205 	orn	r2, r2, r5
  4063ce:	bf1c      	itt	ne
  4063d0:	ea63 0305 	ornne	r3, r3, r5
  4063d4:	4662      	movne	r2, ip
  4063d6:	f04f 0400 	mov.w	r4, #0
  4063da:	e7a9      	b.n	406330 <strlen+0x30>

004063dc <__swbuf_r>:
  4063dc:	b5f8      	push	{r3, r4, r5, r6, r7, lr}
  4063de:	460d      	mov	r5, r1
  4063e0:	4614      	mov	r4, r2
  4063e2:	4606      	mov	r6, r0
  4063e4:	b110      	cbz	r0, 4063ec <__swbuf_r+0x10>
  4063e6:	6b83      	ldr	r3, [r0, #56]	; 0x38
  4063e8:	2b00      	cmp	r3, #0
  4063ea:	d04b      	beq.n	406484 <__swbuf_r+0xa8>
  4063ec:	f9b4 200c 	ldrsh.w	r2, [r4, #12]
  4063f0:	69a3      	ldr	r3, [r4, #24]
  4063f2:	60a3      	str	r3, [r4, #8]
  4063f4:	b291      	uxth	r1, r2
  4063f6:	0708      	lsls	r0, r1, #28
  4063f8:	d539      	bpl.n	40646e <__swbuf_r+0x92>
  4063fa:	6923      	ldr	r3, [r4, #16]
  4063fc:	2b00      	cmp	r3, #0
  4063fe:	d036      	beq.n	40646e <__swbuf_r+0x92>
  406400:	b2ed      	uxtb	r5, r5
  406402:	0489      	lsls	r1, r1, #18
  406404:	462f      	mov	r7, r5
  406406:	d515      	bpl.n	406434 <__swbuf_r+0x58>
  406408:	6822      	ldr	r2, [r4, #0]
  40640a:	6961      	ldr	r1, [r4, #20]
  40640c:	1ad3      	subs	r3, r2, r3
  40640e:	428b      	cmp	r3, r1
  406410:	da1c      	bge.n	40644c <__swbuf_r+0x70>
  406412:	3301      	adds	r3, #1
  406414:	68a1      	ldr	r1, [r4, #8]
  406416:	1c50      	adds	r0, r2, #1
  406418:	3901      	subs	r1, #1
  40641a:	60a1      	str	r1, [r4, #8]
  40641c:	6020      	str	r0, [r4, #0]
  40641e:	7015      	strb	r5, [r2, #0]
  406420:	6962      	ldr	r2, [r4, #20]
  406422:	429a      	cmp	r2, r3
  406424:	d01a      	beq.n	40645c <__swbuf_r+0x80>
  406426:	89a3      	ldrh	r3, [r4, #12]
  406428:	07db      	lsls	r3, r3, #31
  40642a:	d501      	bpl.n	406430 <__swbuf_r+0x54>
  40642c:	2d0a      	cmp	r5, #10
  40642e:	d015      	beq.n	40645c <__swbuf_r+0x80>
  406430:	4638      	mov	r0, r7
  406432:	bdf8      	pop	{r3, r4, r5, r6, r7, pc}
  406434:	6e61      	ldr	r1, [r4, #100]	; 0x64
  406436:	f442 5200 	orr.w	r2, r2, #8192	; 0x2000
  40643a:	f421 5100 	bic.w	r1, r1, #8192	; 0x2000
  40643e:	81a2      	strh	r2, [r4, #12]
  406440:	6822      	ldr	r2, [r4, #0]
  406442:	6661      	str	r1, [r4, #100]	; 0x64
  406444:	6961      	ldr	r1, [r4, #20]
  406446:	1ad3      	subs	r3, r2, r3
  406448:	428b      	cmp	r3, r1
  40644a:	dbe2      	blt.n	406412 <__swbuf_r+0x36>
  40644c:	4621      	mov	r1, r4
  40644e:	4630      	mov	r0, r6
  406450:	f7fe fd2e 	bl	404eb0 <_fflush_r>
  406454:	b940      	cbnz	r0, 406468 <__swbuf_r+0x8c>
  406456:	6822      	ldr	r2, [r4, #0]
  406458:	2301      	movs	r3, #1
  40645a:	e7db      	b.n	406414 <__swbuf_r+0x38>
  40645c:	4621      	mov	r1, r4
  40645e:	4630      	mov	r0, r6
  406460:	f7fe fd26 	bl	404eb0 <_fflush_r>
  406464:	2800      	cmp	r0, #0
  406466:	d0e3      	beq.n	406430 <__swbuf_r+0x54>
  406468:	f04f 37ff 	mov.w	r7, #4294967295
  40646c:	e7e0      	b.n	406430 <__swbuf_r+0x54>
  40646e:	4621      	mov	r1, r4
  406470:	4630      	mov	r0, r6
  406472:	f7fe fc09 	bl	404c88 <__swsetup_r>
  406476:	2800      	cmp	r0, #0
  406478:	d1f6      	bne.n	406468 <__swbuf_r+0x8c>
  40647a:	f9b4 200c 	ldrsh.w	r2, [r4, #12]
  40647e:	6923      	ldr	r3, [r4, #16]
  406480:	b291      	uxth	r1, r2
  406482:	e7bd      	b.n	406400 <__swbuf_r+0x24>
  406484:	f7fe fd6c 	bl	404f60 <__sinit>
  406488:	e7b0      	b.n	4063ec <__swbuf_r+0x10>
  40648a:	bf00      	nop

0040648c <_wcrtomb_r>:
  40648c:	b5f0      	push	{r4, r5, r6, r7, lr}
  40648e:	4606      	mov	r6, r0
  406490:	b085      	sub	sp, #20
  406492:	461f      	mov	r7, r3
  406494:	b189      	cbz	r1, 4064ba <_wcrtomb_r+0x2e>
  406496:	4c10      	ldr	r4, [pc, #64]	; (4064d8 <_wcrtomb_r+0x4c>)
  406498:	4d10      	ldr	r5, [pc, #64]	; (4064dc <_wcrtomb_r+0x50>)
  40649a:	6824      	ldr	r4, [r4, #0]
  40649c:	6b64      	ldr	r4, [r4, #52]	; 0x34
  40649e:	2c00      	cmp	r4, #0
  4064a0:	bf08      	it	eq
  4064a2:	462c      	moveq	r4, r5
  4064a4:	f8d4 40e0 	ldr.w	r4, [r4, #224]	; 0xe0
  4064a8:	47a0      	blx	r4
  4064aa:	1c43      	adds	r3, r0, #1
  4064ac:	d103      	bne.n	4064b6 <_wcrtomb_r+0x2a>
  4064ae:	2200      	movs	r2, #0
  4064b0:	238a      	movs	r3, #138	; 0x8a
  4064b2:	603a      	str	r2, [r7, #0]
  4064b4:	6033      	str	r3, [r6, #0]
  4064b6:	b005      	add	sp, #20
  4064b8:	bdf0      	pop	{r4, r5, r6, r7, pc}
  4064ba:	460c      	mov	r4, r1
  4064bc:	4906      	ldr	r1, [pc, #24]	; (4064d8 <_wcrtomb_r+0x4c>)
  4064be:	4a07      	ldr	r2, [pc, #28]	; (4064dc <_wcrtomb_r+0x50>)
  4064c0:	6809      	ldr	r1, [r1, #0]
  4064c2:	6b49      	ldr	r1, [r1, #52]	; 0x34
  4064c4:	2900      	cmp	r1, #0
  4064c6:	bf08      	it	eq
  4064c8:	4611      	moveq	r1, r2
  4064ca:	4622      	mov	r2, r4
  4064cc:	f8d1 40e0 	ldr.w	r4, [r1, #224]	; 0xe0
  4064d0:	a901      	add	r1, sp, #4
  4064d2:	47a0      	blx	r4
  4064d4:	e7e9      	b.n	4064aa <_wcrtomb_r+0x1e>
  4064d6:	bf00      	nop
  4064d8:	20000098 	.word	0x20000098
  4064dc:	200004cc 	.word	0x200004cc

004064e0 <__ascii_wctomb>:
  4064e0:	b121      	cbz	r1, 4064ec <__ascii_wctomb+0xc>
  4064e2:	2aff      	cmp	r2, #255	; 0xff
  4064e4:	d804      	bhi.n	4064f0 <__ascii_wctomb+0x10>
  4064e6:	700a      	strb	r2, [r1, #0]
  4064e8:	2001      	movs	r0, #1
  4064ea:	4770      	bx	lr
  4064ec:	4608      	mov	r0, r1
  4064ee:	4770      	bx	lr
  4064f0:	238a      	movs	r3, #138	; 0x8a
  4064f2:	6003      	str	r3, [r0, #0]
  4064f4:	f04f 30ff 	mov.w	r0, #4294967295
  4064f8:	4770      	bx	lr
  4064fa:	bf00      	nop

004064fc <_write_r>:
  4064fc:	b570      	push	{r4, r5, r6, lr}
  4064fe:	460d      	mov	r5, r1
  406500:	4c08      	ldr	r4, [pc, #32]	; (406524 <_write_r+0x28>)
  406502:	4611      	mov	r1, r2
  406504:	4606      	mov	r6, r0
  406506:	461a      	mov	r2, r3
  406508:	4628      	mov	r0, r5
  40650a:	2300      	movs	r3, #0
  40650c:	6023      	str	r3, [r4, #0]
  40650e:	f7fb fed9 	bl	4022c4 <_write>
  406512:	1c43      	adds	r3, r0, #1
  406514:	d000      	beq.n	406518 <_write_r+0x1c>
  406516:	bd70      	pop	{r4, r5, r6, pc}
  406518:	6823      	ldr	r3, [r4, #0]
  40651a:	2b00      	cmp	r3, #0
  40651c:	d0fb      	beq.n	406516 <_write_r+0x1a>
  40651e:	6033      	str	r3, [r6, #0]
  406520:	bd70      	pop	{r4, r5, r6, pc}
  406522:	bf00      	nop
  406524:	2001b8bc 	.word	0x2001b8bc

00406528 <__register_exitproc>:
  406528:	e92d 43f8 	stmdb	sp!, {r3, r4, r5, r6, r7, r8, r9, lr}
  40652c:	4d2c      	ldr	r5, [pc, #176]	; (4065e0 <__register_exitproc+0xb8>)
  40652e:	4606      	mov	r6, r0
  406530:	6828      	ldr	r0, [r5, #0]
  406532:	4698      	mov	r8, r3
  406534:	460f      	mov	r7, r1
  406536:	4691      	mov	r9, r2
  406538:	f7ff f8d2 	bl	4056e0 <__retarget_lock_acquire_recursive>
  40653c:	4b29      	ldr	r3, [pc, #164]	; (4065e4 <__register_exitproc+0xbc>)
  40653e:	681c      	ldr	r4, [r3, #0]
  406540:	f8d4 3148 	ldr.w	r3, [r4, #328]	; 0x148
  406544:	2b00      	cmp	r3, #0
  406546:	d03e      	beq.n	4065c6 <__register_exitproc+0x9e>
  406548:	685a      	ldr	r2, [r3, #4]
  40654a:	2a1f      	cmp	r2, #31
  40654c:	dc1c      	bgt.n	406588 <__register_exitproc+0x60>
  40654e:	f102 0e01 	add.w	lr, r2, #1
  406552:	b176      	cbz	r6, 406572 <__register_exitproc+0x4a>
  406554:	eb03 0182 	add.w	r1, r3, r2, lsl #2
  406558:	2401      	movs	r4, #1
  40655a:	f8c1 9088 	str.w	r9, [r1, #136]	; 0x88
  40655e:	f8d3 0188 	ldr.w	r0, [r3, #392]	; 0x188
  406562:	4094      	lsls	r4, r2
  406564:	4320      	orrs	r0, r4
  406566:	2e02      	cmp	r6, #2
  406568:	f8c3 0188 	str.w	r0, [r3, #392]	; 0x188
  40656c:	f8c1 8108 	str.w	r8, [r1, #264]	; 0x108
  406570:	d023      	beq.n	4065ba <__register_exitproc+0x92>
  406572:	3202      	adds	r2, #2
  406574:	f8c3 e004 	str.w	lr, [r3, #4]
  406578:	6828      	ldr	r0, [r5, #0]
  40657a:	f843 7022 	str.w	r7, [r3, r2, lsl #2]
  40657e:	f7ff f8b1 	bl	4056e4 <__retarget_lock_release_recursive>
  406582:	2000      	movs	r0, #0
  406584:	e8bd 83f8 	ldmia.w	sp!, {r3, r4, r5, r6, r7, r8, r9, pc}
  406588:	4b17      	ldr	r3, [pc, #92]	; (4065e8 <__register_exitproc+0xc0>)
  40658a:	b30b      	cbz	r3, 4065d0 <__register_exitproc+0xa8>
  40658c:	f44f 70c8 	mov.w	r0, #400	; 0x190
  406590:	f7ff f922 	bl	4057d8 <malloc>
  406594:	4603      	mov	r3, r0
  406596:	b1d8      	cbz	r0, 4065d0 <__register_exitproc+0xa8>
  406598:	f8d4 2148 	ldr.w	r2, [r4, #328]	; 0x148
  40659c:	6002      	str	r2, [r0, #0]
  40659e:	2100      	movs	r1, #0
  4065a0:	6041      	str	r1, [r0, #4]
  4065a2:	460a      	mov	r2, r1
  4065a4:	f8c4 0148 	str.w	r0, [r4, #328]	; 0x148
  4065a8:	f04f 0e01 	mov.w	lr, #1
  4065ac:	f8c0 1188 	str.w	r1, [r0, #392]	; 0x188
  4065b0:	f8c0 118c 	str.w	r1, [r0, #396]	; 0x18c
  4065b4:	2e00      	cmp	r6, #0
  4065b6:	d0dc      	beq.n	406572 <__register_exitproc+0x4a>
  4065b8:	e7cc      	b.n	406554 <__register_exitproc+0x2c>
  4065ba:	f8d3 118c 	ldr.w	r1, [r3, #396]	; 0x18c
  4065be:	430c      	orrs	r4, r1
  4065c0:	f8c3 418c 	str.w	r4, [r3, #396]	; 0x18c
  4065c4:	e7d5      	b.n	406572 <__register_exitproc+0x4a>
  4065c6:	f504 73a6 	add.w	r3, r4, #332	; 0x14c
  4065ca:	f8c4 3148 	str.w	r3, [r4, #328]	; 0x148
  4065ce:	e7bb      	b.n	406548 <__register_exitproc+0x20>
  4065d0:	6828      	ldr	r0, [r5, #0]
  4065d2:	f7ff f887 	bl	4056e4 <__retarget_lock_release_recursive>
  4065d6:	f04f 30ff 	mov.w	r0, #4294967295
  4065da:	e8bd 83f8 	ldmia.w	sp!, {r3, r4, r5, r6, r7, r8, r9, pc}
  4065de:	bf00      	nop
  4065e0:	200004c8 	.word	0x200004c8
  4065e4:	00406b3c 	.word	0x00406b3c
  4065e8:	004057d9 	.word	0x004057d9

004065ec <_close_r>:
  4065ec:	b538      	push	{r3, r4, r5, lr}
  4065ee:	4c07      	ldr	r4, [pc, #28]	; (40660c <_close_r+0x20>)
  4065f0:	2300      	movs	r3, #0
  4065f2:	4605      	mov	r5, r0
  4065f4:	4608      	mov	r0, r1
  4065f6:	6023      	str	r3, [r4, #0]
  4065f8:	f7fc f9b0 	bl	40295c <_close>
  4065fc:	1c43      	adds	r3, r0, #1
  4065fe:	d000      	beq.n	406602 <_close_r+0x16>
  406600:	bd38      	pop	{r3, r4, r5, pc}
  406602:	6823      	ldr	r3, [r4, #0]
  406604:	2b00      	cmp	r3, #0
  406606:	d0fb      	beq.n	406600 <_close_r+0x14>
  406608:	602b      	str	r3, [r5, #0]
  40660a:	bd38      	pop	{r3, r4, r5, pc}
  40660c:	2001b8bc 	.word	0x2001b8bc

00406610 <_fclose_r>:
  406610:	b570      	push	{r4, r5, r6, lr}
  406612:	b159      	cbz	r1, 40662c <_fclose_r+0x1c>
  406614:	4605      	mov	r5, r0
  406616:	460c      	mov	r4, r1
  406618:	b110      	cbz	r0, 406620 <_fclose_r+0x10>
  40661a:	6b83      	ldr	r3, [r0, #56]	; 0x38
  40661c:	2b00      	cmp	r3, #0
  40661e:	d03c      	beq.n	40669a <_fclose_r+0x8a>
  406620:	6e63      	ldr	r3, [r4, #100]	; 0x64
  406622:	07d8      	lsls	r0, r3, #31
  406624:	d505      	bpl.n	406632 <_fclose_r+0x22>
  406626:	f9b4 300c 	ldrsh.w	r3, [r4, #12]
  40662a:	b92b      	cbnz	r3, 406638 <_fclose_r+0x28>
  40662c:	2600      	movs	r6, #0
  40662e:	4630      	mov	r0, r6
  406630:	bd70      	pop	{r4, r5, r6, pc}
  406632:	89a3      	ldrh	r3, [r4, #12]
  406634:	0599      	lsls	r1, r3, #22
  406636:	d53c      	bpl.n	4066b2 <_fclose_r+0xa2>
  406638:	4621      	mov	r1, r4
  40663a:	4628      	mov	r0, r5
  40663c:	f7fe fb98 	bl	404d70 <__sflush_r>
  406640:	6ae3      	ldr	r3, [r4, #44]	; 0x2c
  406642:	4606      	mov	r6, r0
  406644:	b133      	cbz	r3, 406654 <_fclose_r+0x44>
  406646:	69e1      	ldr	r1, [r4, #28]
  406648:	4628      	mov	r0, r5
  40664a:	4798      	blx	r3
  40664c:	2800      	cmp	r0, #0
  40664e:	bfb8      	it	lt
  406650:	f04f 36ff 	movlt.w	r6, #4294967295
  406654:	89a3      	ldrh	r3, [r4, #12]
  406656:	061a      	lsls	r2, r3, #24
  406658:	d422      	bmi.n	4066a0 <_fclose_r+0x90>
  40665a:	6b21      	ldr	r1, [r4, #48]	; 0x30
  40665c:	b141      	cbz	r1, 406670 <_fclose_r+0x60>
  40665e:	f104 0340 	add.w	r3, r4, #64	; 0x40
  406662:	4299      	cmp	r1, r3
  406664:	d002      	beq.n	40666c <_fclose_r+0x5c>
  406666:	4628      	mov	r0, r5
  406668:	f7fe fda0 	bl	4051ac <_free_r>
  40666c:	2300      	movs	r3, #0
  40666e:	6323      	str	r3, [r4, #48]	; 0x30
  406670:	6c61      	ldr	r1, [r4, #68]	; 0x44
  406672:	b121      	cbz	r1, 40667e <_fclose_r+0x6e>
  406674:	4628      	mov	r0, r5
  406676:	f7fe fd99 	bl	4051ac <_free_r>
  40667a:	2300      	movs	r3, #0
  40667c:	6463      	str	r3, [r4, #68]	; 0x44
  40667e:	f7fe fc9b 	bl	404fb8 <__sfp_lock_acquire>
  406682:	6e63      	ldr	r3, [r4, #100]	; 0x64
  406684:	2200      	movs	r2, #0
  406686:	07db      	lsls	r3, r3, #31
  406688:	81a2      	strh	r2, [r4, #12]
  40668a:	d50e      	bpl.n	4066aa <_fclose_r+0x9a>
  40668c:	6da0      	ldr	r0, [r4, #88]	; 0x58
  40668e:	f7ff f825 	bl	4056dc <__retarget_lock_close_recursive>
  406692:	f7fe fc97 	bl	404fc4 <__sfp_lock_release>
  406696:	4630      	mov	r0, r6
  406698:	bd70      	pop	{r4, r5, r6, pc}
  40669a:	f7fe fc61 	bl	404f60 <__sinit>
  40669e:	e7bf      	b.n	406620 <_fclose_r+0x10>
  4066a0:	6921      	ldr	r1, [r4, #16]
  4066a2:	4628      	mov	r0, r5
  4066a4:	f7fe fd82 	bl	4051ac <_free_r>
  4066a8:	e7d7      	b.n	40665a <_fclose_r+0x4a>
  4066aa:	6da0      	ldr	r0, [r4, #88]	; 0x58
  4066ac:	f7ff f81a 	bl	4056e4 <__retarget_lock_release_recursive>
  4066b0:	e7ec      	b.n	40668c <_fclose_r+0x7c>
  4066b2:	6da0      	ldr	r0, [r4, #88]	; 0x58
  4066b4:	f7ff f814 	bl	4056e0 <__retarget_lock_acquire_recursive>
  4066b8:	f9b4 300c 	ldrsh.w	r3, [r4, #12]
  4066bc:	2b00      	cmp	r3, #0
  4066be:	d1bb      	bne.n	406638 <_fclose_r+0x28>
  4066c0:	6e66      	ldr	r6, [r4, #100]	; 0x64
  4066c2:	f016 0601 	ands.w	r6, r6, #1
  4066c6:	d1b1      	bne.n	40662c <_fclose_r+0x1c>
  4066c8:	6da0      	ldr	r0, [r4, #88]	; 0x58
  4066ca:	f7ff f80b 	bl	4056e4 <__retarget_lock_release_recursive>
  4066ce:	4630      	mov	r0, r6
  4066d0:	bd70      	pop	{r4, r5, r6, pc}
  4066d2:	bf00      	nop

004066d4 <_fstat_r>:
  4066d4:	b538      	push	{r3, r4, r5, lr}
  4066d6:	460b      	mov	r3, r1
  4066d8:	4c07      	ldr	r4, [pc, #28]	; (4066f8 <_fstat_r+0x24>)
  4066da:	4605      	mov	r5, r0
  4066dc:	4611      	mov	r1, r2
  4066de:	4618      	mov	r0, r3
  4066e0:	2300      	movs	r3, #0
  4066e2:	6023      	str	r3, [r4, #0]
  4066e4:	f7fc f93d 	bl	402962 <_fstat>
  4066e8:	1c43      	adds	r3, r0, #1
  4066ea:	d000      	beq.n	4066ee <_fstat_r+0x1a>
  4066ec:	bd38      	pop	{r3, r4, r5, pc}
  4066ee:	6823      	ldr	r3, [r4, #0]
  4066f0:	2b00      	cmp	r3, #0
  4066f2:	d0fb      	beq.n	4066ec <_fstat_r+0x18>
  4066f4:	602b      	str	r3, [r5, #0]
  4066f6:	bd38      	pop	{r3, r4, r5, pc}
  4066f8:	2001b8bc 	.word	0x2001b8bc

004066fc <_isatty_r>:
  4066fc:	b538      	push	{r3, r4, r5, lr}
  4066fe:	4c07      	ldr	r4, [pc, #28]	; (40671c <_isatty_r+0x20>)
  406700:	2300      	movs	r3, #0
  406702:	4605      	mov	r5, r0
  406704:	4608      	mov	r0, r1
  406706:	6023      	str	r3, [r4, #0]
  406708:	f7fc f930 	bl	40296c <_isatty>
  40670c:	1c43      	adds	r3, r0, #1
  40670e:	d000      	beq.n	406712 <_isatty_r+0x16>
  406710:	bd38      	pop	{r3, r4, r5, pc}
  406712:	6823      	ldr	r3, [r4, #0]
  406714:	2b00      	cmp	r3, #0
  406716:	d0fb      	beq.n	406710 <_isatty_r+0x14>
  406718:	602b      	str	r3, [r5, #0]
  40671a:	bd38      	pop	{r3, r4, r5, pc}
  40671c:	2001b8bc 	.word	0x2001b8bc

00406720 <_lseek_r>:
  406720:	b570      	push	{r4, r5, r6, lr}
  406722:	460d      	mov	r5, r1
  406724:	4c08      	ldr	r4, [pc, #32]	; (406748 <_lseek_r+0x28>)
  406726:	4611      	mov	r1, r2
  406728:	4606      	mov	r6, r0
  40672a:	461a      	mov	r2, r3
  40672c:	4628      	mov	r0, r5
  40672e:	2300      	movs	r3, #0
  406730:	6023      	str	r3, [r4, #0]
  406732:	f7fc f91d 	bl	402970 <_lseek>
  406736:	1c43      	adds	r3, r0, #1
  406738:	d000      	beq.n	40673c <_lseek_r+0x1c>
  40673a:	bd70      	pop	{r4, r5, r6, pc}
  40673c:	6823      	ldr	r3, [r4, #0]
  40673e:	2b00      	cmp	r3, #0
  406740:	d0fb      	beq.n	40673a <_lseek_r+0x1a>
  406742:	6033      	str	r3, [r6, #0]
  406744:	bd70      	pop	{r4, r5, r6, pc}
  406746:	bf00      	nop
  406748:	2001b8bc 	.word	0x2001b8bc

0040674c <_read_r>:
  40674c:	b570      	push	{r4, r5, r6, lr}
  40674e:	460d      	mov	r5, r1
  406750:	4c08      	ldr	r4, [pc, #32]	; (406774 <_read_r+0x28>)
  406752:	4611      	mov	r1, r2
  406754:	4606      	mov	r6, r0
  406756:	461a      	mov	r2, r3
  406758:	4628      	mov	r0, r5
  40675a:	2300      	movs	r3, #0
  40675c:	6023      	str	r3, [r4, #0]
  40675e:	f7f9 fd29 	bl	4001b4 <_read>
  406762:	1c43      	adds	r3, r0, #1
  406764:	d000      	beq.n	406768 <_read_r+0x1c>
  406766:	bd70      	pop	{r4, r5, r6, pc}
  406768:	6823      	ldr	r3, [r4, #0]
  40676a:	2b00      	cmp	r3, #0
  40676c:	d0fb      	beq.n	406766 <_read_r+0x1a>
  40676e:	6033      	str	r3, [r6, #0]
  406770:	bd70      	pop	{r4, r5, r6, pc}
  406772:	bf00      	nop
  406774:	2001b8bc 	.word	0x2001b8bc

00406778 <__aeabi_uldivmod>:
  406778:	b953      	cbnz	r3, 406790 <__aeabi_uldivmod+0x18>
  40677a:	b94a      	cbnz	r2, 406790 <__aeabi_uldivmod+0x18>
  40677c:	2900      	cmp	r1, #0
  40677e:	bf08      	it	eq
  406780:	2800      	cmpeq	r0, #0
  406782:	bf1c      	itt	ne
  406784:	f04f 31ff 	movne.w	r1, #4294967295
  406788:	f04f 30ff 	movne.w	r0, #4294967295
  40678c:	f000 b97a 	b.w	406a84 <__aeabi_idiv0>
  406790:	f1ad 0c08 	sub.w	ip, sp, #8
  406794:	e96d ce04 	strd	ip, lr, [sp, #-16]!
  406798:	f000 f806 	bl	4067a8 <__udivmoddi4>
  40679c:	f8dd e004 	ldr.w	lr, [sp, #4]
  4067a0:	e9dd 2302 	ldrd	r2, r3, [sp, #8]
  4067a4:	b004      	add	sp, #16
  4067a6:	4770      	bx	lr

004067a8 <__udivmoddi4>:
  4067a8:	e92d 47f0 	stmdb	sp!, {r4, r5, r6, r7, r8, r9, sl, lr}
  4067ac:	468c      	mov	ip, r1
  4067ae:	460d      	mov	r5, r1
  4067b0:	4604      	mov	r4, r0
  4067b2:	9e08      	ldr	r6, [sp, #32]
  4067b4:	2b00      	cmp	r3, #0
  4067b6:	d151      	bne.n	40685c <__udivmoddi4+0xb4>
  4067b8:	428a      	cmp	r2, r1
  4067ba:	4617      	mov	r7, r2
  4067bc:	d96d      	bls.n	40689a <__udivmoddi4+0xf2>
  4067be:	fab2 fe82 	clz	lr, r2
  4067c2:	f1be 0f00 	cmp.w	lr, #0
  4067c6:	d00b      	beq.n	4067e0 <__udivmoddi4+0x38>
  4067c8:	f1ce 0c20 	rsb	ip, lr, #32
  4067cc:	fa01 f50e 	lsl.w	r5, r1, lr
  4067d0:	fa20 fc0c 	lsr.w	ip, r0, ip
  4067d4:	fa02 f70e 	lsl.w	r7, r2, lr
  4067d8:	ea4c 0c05 	orr.w	ip, ip, r5
  4067dc:	fa00 f40e 	lsl.w	r4, r0, lr
  4067e0:	ea4f 4a17 	mov.w	sl, r7, lsr #16
  4067e4:	0c25      	lsrs	r5, r4, #16
  4067e6:	fbbc f8fa 	udiv	r8, ip, sl
  4067ea:	fa1f f987 	uxth.w	r9, r7
  4067ee:	fb0a cc18 	mls	ip, sl, r8, ip
  4067f2:	ea45 450c 	orr.w	r5, r5, ip, lsl #16
  4067f6:	fb08 f309 	mul.w	r3, r8, r9
  4067fa:	42ab      	cmp	r3, r5
  4067fc:	d90a      	bls.n	406814 <__udivmoddi4+0x6c>
  4067fe:	19ed      	adds	r5, r5, r7
  406800:	f108 32ff 	add.w	r2, r8, #4294967295
  406804:	f080 8123 	bcs.w	406a4e <__udivmoddi4+0x2a6>
  406808:	42ab      	cmp	r3, r5
  40680a:	f240 8120 	bls.w	406a4e <__udivmoddi4+0x2a6>
  40680e:	f1a8 0802 	sub.w	r8, r8, #2
  406812:	443d      	add	r5, r7
  406814:	1aed      	subs	r5, r5, r3
  406816:	b2a4      	uxth	r4, r4
  406818:	fbb5 f0fa 	udiv	r0, r5, sl
  40681c:	fb0a 5510 	mls	r5, sl, r0, r5
  406820:	ea44 4405 	orr.w	r4, r4, r5, lsl #16
  406824:	fb00 f909 	mul.w	r9, r0, r9
  406828:	45a1      	cmp	r9, r4
  40682a:	d909      	bls.n	406840 <__udivmoddi4+0x98>
  40682c:	19e4      	adds	r4, r4, r7
  40682e:	f100 33ff 	add.w	r3, r0, #4294967295
  406832:	f080 810a 	bcs.w	406a4a <__udivmoddi4+0x2a2>
  406836:	45a1      	cmp	r9, r4
  406838:	f240 8107 	bls.w	406a4a <__udivmoddi4+0x2a2>
  40683c:	3802      	subs	r0, #2
  40683e:	443c      	add	r4, r7
  406840:	eba4 0409 	sub.w	r4, r4, r9
  406844:	ea40 4008 	orr.w	r0, r0, r8, lsl #16
  406848:	2100      	movs	r1, #0
  40684a:	2e00      	cmp	r6, #0
  40684c:	d061      	beq.n	406912 <__udivmoddi4+0x16a>
  40684e:	fa24 f40e 	lsr.w	r4, r4, lr
  406852:	2300      	movs	r3, #0
  406854:	6034      	str	r4, [r6, #0]
  406856:	6073      	str	r3, [r6, #4]
  406858:	e8bd 87f0 	ldmia.w	sp!, {r4, r5, r6, r7, r8, r9, sl, pc}
  40685c:	428b      	cmp	r3, r1
  40685e:	d907      	bls.n	406870 <__udivmoddi4+0xc8>
  406860:	2e00      	cmp	r6, #0
  406862:	d054      	beq.n	40690e <__udivmoddi4+0x166>
  406864:	2100      	movs	r1, #0
  406866:	e886 0021 	stmia.w	r6, {r0, r5}
  40686a:	4608      	mov	r0, r1
  40686c:	e8bd 87f0 	ldmia.w	sp!, {r4, r5, r6, r7, r8, r9, sl, pc}
  406870:	fab3 f183 	clz	r1, r3
  406874:	2900      	cmp	r1, #0
  406876:	f040 808e 	bne.w	406996 <__udivmoddi4+0x1ee>
  40687a:	42ab      	cmp	r3, r5
  40687c:	d302      	bcc.n	406884 <__udivmoddi4+0xdc>
  40687e:	4282      	cmp	r2, r0
  406880:	f200 80fa 	bhi.w	406a78 <__udivmoddi4+0x2d0>
  406884:	1a84      	subs	r4, r0, r2
  406886:	eb65 0503 	sbc.w	r5, r5, r3
  40688a:	2001      	movs	r0, #1
  40688c:	46ac      	mov	ip, r5
  40688e:	2e00      	cmp	r6, #0
  406890:	d03f      	beq.n	406912 <__udivmoddi4+0x16a>
  406892:	e886 1010 	stmia.w	r6, {r4, ip}
  406896:	e8bd 87f0 	ldmia.w	sp!, {r4, r5, r6, r7, r8, r9, sl, pc}
  40689a:	b912      	cbnz	r2, 4068a2 <__udivmoddi4+0xfa>
  40689c:	2701      	movs	r7, #1
  40689e:	fbb7 f7f2 	udiv	r7, r7, r2
  4068a2:	fab7 fe87 	clz	lr, r7
  4068a6:	f1be 0f00 	cmp.w	lr, #0
  4068aa:	d134      	bne.n	406916 <__udivmoddi4+0x16e>
  4068ac:	1beb      	subs	r3, r5, r7
  4068ae:	0c3a      	lsrs	r2, r7, #16
  4068b0:	fa1f fc87 	uxth.w	ip, r7
  4068b4:	2101      	movs	r1, #1
  4068b6:	fbb3 f8f2 	udiv	r8, r3, r2
  4068ba:	0c25      	lsrs	r5, r4, #16
  4068bc:	fb02 3318 	mls	r3, r2, r8, r3
  4068c0:	ea45 4503 	orr.w	r5, r5, r3, lsl #16
  4068c4:	fb0c f308 	mul.w	r3, ip, r8
  4068c8:	42ab      	cmp	r3, r5
  4068ca:	d907      	bls.n	4068dc <__udivmoddi4+0x134>
  4068cc:	19ed      	adds	r5, r5, r7
  4068ce:	f108 30ff 	add.w	r0, r8, #4294967295
  4068d2:	d202      	bcs.n	4068da <__udivmoddi4+0x132>
  4068d4:	42ab      	cmp	r3, r5
  4068d6:	f200 80d1 	bhi.w	406a7c <__udivmoddi4+0x2d4>
  4068da:	4680      	mov	r8, r0
  4068dc:	1aed      	subs	r5, r5, r3
  4068de:	b2a3      	uxth	r3, r4
  4068e0:	fbb5 f0f2 	udiv	r0, r5, r2
  4068e4:	fb02 5510 	mls	r5, r2, r0, r5
  4068e8:	ea43 4405 	orr.w	r4, r3, r5, lsl #16
  4068ec:	fb0c fc00 	mul.w	ip, ip, r0
  4068f0:	45a4      	cmp	ip, r4
  4068f2:	d907      	bls.n	406904 <__udivmoddi4+0x15c>
  4068f4:	19e4      	adds	r4, r4, r7
  4068f6:	f100 33ff 	add.w	r3, r0, #4294967295
  4068fa:	d202      	bcs.n	406902 <__udivmoddi4+0x15a>
  4068fc:	45a4      	cmp	ip, r4
  4068fe:	f200 80b8 	bhi.w	406a72 <__udivmoddi4+0x2ca>
  406902:	4618      	mov	r0, r3
  406904:	eba4 040c 	sub.w	r4, r4, ip
  406908:	ea40 4008 	orr.w	r0, r0, r8, lsl #16
  40690c:	e79d      	b.n	40684a <__udivmoddi4+0xa2>
  40690e:	4631      	mov	r1, r6
  406910:	4630      	mov	r0, r6
  406912:	e8bd 87f0 	ldmia.w	sp!, {r4, r5, r6, r7, r8, r9, sl, pc}
  406916:	f1ce 0420 	rsb	r4, lr, #32
  40691a:	fa05 f30e 	lsl.w	r3, r5, lr
  40691e:	fa07 f70e 	lsl.w	r7, r7, lr
  406922:	fa20 f804 	lsr.w	r8, r0, r4
  406926:	0c3a      	lsrs	r2, r7, #16
  406928:	fa25 f404 	lsr.w	r4, r5, r4
  40692c:	ea48 0803 	orr.w	r8, r8, r3
  406930:	fbb4 f1f2 	udiv	r1, r4, r2
  406934:	ea4f 4518 	mov.w	r5, r8, lsr #16
  406938:	fb02 4411 	mls	r4, r2, r1, r4
  40693c:	fa1f fc87 	uxth.w	ip, r7
  406940:	ea45 4504 	orr.w	r5, r5, r4, lsl #16
  406944:	fb01 f30c 	mul.w	r3, r1, ip
  406948:	42ab      	cmp	r3, r5
  40694a:	fa00 f40e 	lsl.w	r4, r0, lr
  40694e:	d909      	bls.n	406964 <__udivmoddi4+0x1bc>
  406950:	19ed      	adds	r5, r5, r7
  406952:	f101 30ff 	add.w	r0, r1, #4294967295
  406956:	f080 808a 	bcs.w	406a6e <__udivmoddi4+0x2c6>
  40695a:	42ab      	cmp	r3, r5
  40695c:	f240 8087 	bls.w	406a6e <__udivmoddi4+0x2c6>
  406960:	3902      	subs	r1, #2
  406962:	443d      	add	r5, r7
  406964:	1aeb      	subs	r3, r5, r3
  406966:	fa1f f588 	uxth.w	r5, r8
  40696a:	fbb3 f0f2 	udiv	r0, r3, r2
  40696e:	fb02 3310 	mls	r3, r2, r0, r3
  406972:	ea45 4503 	orr.w	r5, r5, r3, lsl #16
  406976:	fb00 f30c 	mul.w	r3, r0, ip
  40697a:	42ab      	cmp	r3, r5
  40697c:	d907      	bls.n	40698e <__udivmoddi4+0x1e6>
  40697e:	19ed      	adds	r5, r5, r7
  406980:	f100 38ff 	add.w	r8, r0, #4294967295
  406984:	d26f      	bcs.n	406a66 <__udivmoddi4+0x2be>
  406986:	42ab      	cmp	r3, r5
  406988:	d96d      	bls.n	406a66 <__udivmoddi4+0x2be>
  40698a:	3802      	subs	r0, #2
  40698c:	443d      	add	r5, r7
  40698e:	1aeb      	subs	r3, r5, r3
  406990:	ea40 4101 	orr.w	r1, r0, r1, lsl #16
  406994:	e78f      	b.n	4068b6 <__udivmoddi4+0x10e>
  406996:	f1c1 0720 	rsb	r7, r1, #32
  40699a:	fa22 f807 	lsr.w	r8, r2, r7
  40699e:	408b      	lsls	r3, r1
  4069a0:	fa05 f401 	lsl.w	r4, r5, r1
  4069a4:	ea48 0303 	orr.w	r3, r8, r3
  4069a8:	fa20 fe07 	lsr.w	lr, r0, r7
  4069ac:	ea4f 4c13 	mov.w	ip, r3, lsr #16
  4069b0:	40fd      	lsrs	r5, r7
  4069b2:	ea4e 0e04 	orr.w	lr, lr, r4
  4069b6:	fbb5 f9fc 	udiv	r9, r5, ip
  4069ba:	ea4f 441e 	mov.w	r4, lr, lsr #16
  4069be:	fb0c 5519 	mls	r5, ip, r9, r5
  4069c2:	fa1f f883 	uxth.w	r8, r3
  4069c6:	ea44 4505 	orr.w	r5, r4, r5, lsl #16
  4069ca:	fb09 f408 	mul.w	r4, r9, r8
  4069ce:	42ac      	cmp	r4, r5
  4069d0:	fa02 f201 	lsl.w	r2, r2, r1
  4069d4:	fa00 fa01 	lsl.w	sl, r0, r1
  4069d8:	d908      	bls.n	4069ec <__udivmoddi4+0x244>
  4069da:	18ed      	adds	r5, r5, r3
  4069dc:	f109 30ff 	add.w	r0, r9, #4294967295
  4069e0:	d243      	bcs.n	406a6a <__udivmoddi4+0x2c2>
  4069e2:	42ac      	cmp	r4, r5
  4069e4:	d941      	bls.n	406a6a <__udivmoddi4+0x2c2>
  4069e6:	f1a9 0902 	sub.w	r9, r9, #2
  4069ea:	441d      	add	r5, r3
  4069ec:	1b2d      	subs	r5, r5, r4
  4069ee:	fa1f fe8e 	uxth.w	lr, lr
  4069f2:	fbb5 f0fc 	udiv	r0, r5, ip
  4069f6:	fb0c 5510 	mls	r5, ip, r0, r5
  4069fa:	ea4e 4405 	orr.w	r4, lr, r5, lsl #16
  4069fe:	fb00 f808 	mul.w	r8, r0, r8
  406a02:	45a0      	cmp	r8, r4
  406a04:	d907      	bls.n	406a16 <__udivmoddi4+0x26e>
  406a06:	18e4      	adds	r4, r4, r3
  406a08:	f100 35ff 	add.w	r5, r0, #4294967295
  406a0c:	d229      	bcs.n	406a62 <__udivmoddi4+0x2ba>
  406a0e:	45a0      	cmp	r8, r4
  406a10:	d927      	bls.n	406a62 <__udivmoddi4+0x2ba>
  406a12:	3802      	subs	r0, #2
  406a14:	441c      	add	r4, r3
  406a16:	ea40 4009 	orr.w	r0, r0, r9, lsl #16
  406a1a:	eba4 0408 	sub.w	r4, r4, r8
  406a1e:	fba0 8902 	umull	r8, r9, r0, r2
  406a22:	454c      	cmp	r4, r9
  406a24:	46c6      	mov	lr, r8
  406a26:	464d      	mov	r5, r9
  406a28:	d315      	bcc.n	406a56 <__udivmoddi4+0x2ae>
  406a2a:	d012      	beq.n	406a52 <__udivmoddi4+0x2aa>
  406a2c:	b156      	cbz	r6, 406a44 <__udivmoddi4+0x29c>
  406a2e:	ebba 030e 	subs.w	r3, sl, lr
  406a32:	eb64 0405 	sbc.w	r4, r4, r5
  406a36:	fa04 f707 	lsl.w	r7, r4, r7
  406a3a:	40cb      	lsrs	r3, r1
  406a3c:	431f      	orrs	r7, r3
  406a3e:	40cc      	lsrs	r4, r1
  406a40:	6037      	str	r7, [r6, #0]
  406a42:	6074      	str	r4, [r6, #4]
  406a44:	2100      	movs	r1, #0
  406a46:	e8bd 87f0 	ldmia.w	sp!, {r4, r5, r6, r7, r8, r9, sl, pc}
  406a4a:	4618      	mov	r0, r3
  406a4c:	e6f8      	b.n	406840 <__udivmoddi4+0x98>
  406a4e:	4690      	mov	r8, r2
  406a50:	e6e0      	b.n	406814 <__udivmoddi4+0x6c>
  406a52:	45c2      	cmp	sl, r8
  406a54:	d2ea      	bcs.n	406a2c <__udivmoddi4+0x284>
  406a56:	ebb8 0e02 	subs.w	lr, r8, r2
  406a5a:	eb69 0503 	sbc.w	r5, r9, r3
  406a5e:	3801      	subs	r0, #1
  406a60:	e7e4      	b.n	406a2c <__udivmoddi4+0x284>
  406a62:	4628      	mov	r0, r5
  406a64:	e7d7      	b.n	406a16 <__udivmoddi4+0x26e>
  406a66:	4640      	mov	r0, r8
  406a68:	e791      	b.n	40698e <__udivmoddi4+0x1e6>
  406a6a:	4681      	mov	r9, r0
  406a6c:	e7be      	b.n	4069ec <__udivmoddi4+0x244>
  406a6e:	4601      	mov	r1, r0
  406a70:	e778      	b.n	406964 <__udivmoddi4+0x1bc>
  406a72:	3802      	subs	r0, #2
  406a74:	443c      	add	r4, r7
  406a76:	e745      	b.n	406904 <__udivmoddi4+0x15c>
  406a78:	4608      	mov	r0, r1
  406a7a:	e708      	b.n	40688e <__udivmoddi4+0xe6>
  406a7c:	f1a8 0802 	sub.w	r8, r8, #2
  406a80:	443d      	add	r5, r7
  406a82:	e72b      	b.n	4068dc <__udivmoddi4+0x134>

00406a84 <__aeabi_idiv0>:
  406a84:	4770      	bx	lr
  406a86:	bf00      	nop
  406a88:	454c4449 	.word	0x454c4449
  406a8c:	00          	.byte	0x00
  406a8d:	54          	.byte	0x54
  406a8e:	726d      	.short	0x726d
  406a90:	63765320 	.word	0x63765320
  406a94:	00000000 	.word	0x00000000
  406a98:	000e1000 	.word	0x000e1000
  406a9c:	000000c0 	.word	0x000000c0
  406aa0:	00000800 	.word	0x00000800
  406aa4:	00000000 	.word	0x00000000
  406aa8:	324d4149 	.word	0x324d4149
  406aac:	35383630 	.word	0x35383630
  406ab0:	4f485720 	.word	0x4f485720
  406ab4:	20494d41 	.word	0x20494d41
  406ab8:	3025203d 	.word	0x3025203d
  406abc:	0a0d7834 	.word	0x0a0d7834
  406ac0:	00          	.byte	0x00
  406ac1:	52          	.byte	0x52
  406ac2:	4145      	.short	0x4145
  406ac4:	53462044 	.word	0x53462044
  406ac8:	4e4f2052 	.word	0x4e4f2052
  406acc:	203a4543 	.word	0x203a4543
  406ad0:	252c6425 	.word	0x252c6425
  406ad4:	20202c64 	.word	0x20202c64
  406ad8:	252c6425 	.word	0x252c6425
  406adc:	64252c64 	.word	0x64252c64
  406ae0:	2520202c 	.word	0x2520202c
  406ae4:	64252c64 	.word	0x64252c64
  406ae8:	0d64252c 	.word	0x0d64252c
  406aec:	000a      	.short	0x000a
  406aee:	4552      	.short	0x4552
  406af0:	54414550 	.word	0x54414550
  406af4:	41455220 	.word	0x41455220
  406af8:	53462044 	.word	0x53462044
  406afc:	25203a52 	.word	0x25203a52
  406b00:	64252c64 	.word	0x64252c64
  406b04:	2520202c 	.word	0x2520202c
  406b08:	64252c64 	.word	0x64252c64
  406b0c:	2c64252c 	.word	0x2c64252c
  406b10:	64252020 	.word	0x64252020
  406b14:	2c64252c 	.word	0x2c64252c
  406b18:	0a0d6425 	.word	0x0a0d6425
  406b1c:	00          	.byte	0x00
  406b1d:	76          	.byte	0x76
  406b1e:	614d      	.short	0x614d
  406b20:	61546e69 	.word	0x61546e69
  406b24:	76006b73 	.word	0x76006b73
  406b28:	736e6553 	.word	0x736e6553
  406b2c:	6e49726f 	.word	0x6e49726f
  406b30:	30425074 	.word	0x30425074
  406b34:	73615433 	.word	0x73615433
  406b38:	0000006b 	.word	0x0000006b

00406b3c <_global_impure_ptr>:
  406b3c:	200000a0 33323130 37363534 42413938     ... 0123456789AB
  406b4c:	46454443 00000000 33323130 37363534     CDEF....01234567
  406b5c:	62613938 66656463 00000000 6c756e28     89abcdef....(nul
  406b6c:	0000296c                                l)..

00406b70 <blanks.7217>:
  406b70:	20202020 20202020 20202020 20202020                     

00406b80 <zeroes.7218>:
  406b80:	30303030 30303030 30303030 30303030     0000000000000000
  406b90:	00000043 49534f50 00000058 0000002e     C...POSIX.......

00406ba0 <_ctype_>:
  406ba0:	20202000 20202020 28282020 20282828     .         ((((( 
  406bb0:	20202020 20202020 20202020 20202020                     
  406bc0:	10108820 10101010 10101010 10101010      ...............
  406bd0:	04040410 04040404 10040404 10101010     ................
  406be0:	41411010 41414141 01010101 01010101     ..AAAAAA........
  406bf0:	01010101 01010101 01010101 10101010     ................
  406c00:	42421010 42424242 02020202 02020202     ..BBBBBB........
  406c10:	02020202 02020202 02020202 10101010     ................
  406c20:	00000020 00000000 00000000 00000000      ...............
	...

00406ca4 <_init>:
  406ca4:	b5f8      	push	{r3, r4, r5, r6, r7, lr}
  406ca6:	bf00      	nop
  406ca8:	bcf8      	pop	{r3, r4, r5, r6, r7}
  406caa:	bc08      	pop	{r3}
  406cac:	469e      	mov	lr, r3
  406cae:	4770      	bx	lr

00406cb0 <__init_array_start>:
  406cb0:	00404d51 	.word	0x00404d51

00406cb4 <__frame_dummy_init_array_entry>:
  406cb4:	0040016d                                m.@.

00406cb8 <_fini>:
  406cb8:	b5f8      	push	{r3, r4, r5, r6, r7, lr}
  406cba:	bf00      	nop
  406cbc:	bcf8      	pop	{r3, r4, r5, r6, r7}
  406cbe:	bc08      	pop	{r3}
  406cc0:	469e      	mov	lr, r3
  406cc2:	4770      	bx	lr

00406cc4 <__fini_array_start>:
  406cc4:	00400149 	.word	0x00400149

Disassembly of section .relocate:

20000000 <portable_delay_cycles>:
20000000:	f3bf 8f5f 	dmb	sy
20000004:	3801      	subs	r0, #1
20000006:	d1fb      	bne.n	20000000 <portable_delay_cycles>
20000008:	4770      	bx	lr
	...

2000000c <efc_perform_read_sequence>:
2000000c:	b537      	push	{r0, r1, r2, r4, r5, lr}
2000000e:	b33b      	cbz	r3, 20000060 <efc_perform_read_sequence+0x54>
20000010:	6804      	ldr	r4, [r0, #0]
20000012:	b2c9      	uxtb	r1, r1
20000014:	f444 3480 	orr.w	r4, r4, #65536	; 0x10000
20000018:	f041 41b4 	orr.w	r1, r1, #1509949440	; 0x5a000000
2000001c:	6004      	str	r4, [r0, #0]
2000001e:	6041      	str	r1, [r0, #4]
20000020:	6881      	ldr	r1, [r0, #8]
20000022:	9101      	str	r1, [sp, #4]
20000024:	9901      	ldr	r1, [sp, #4]
20000026:	07c9      	lsls	r1, r1, #31
20000028:	d4fa      	bmi.n	20000020 <efc_perform_read_sequence+0x14>
2000002a:	9906      	ldr	r1, [sp, #24]
2000002c:	4c0d      	ldr	r4, [pc, #52]	; (20000064 <efc_perform_read_sequence+0x58>)
2000002e:	eb03 0181 	add.w	r1, r3, r1, lsl #2
20000032:	428b      	cmp	r3, r1
20000034:	d10f      	bne.n	20000056 <efc_perform_read_sequence+0x4a>
20000036:	b2d2      	uxtb	r2, r2
20000038:	f042 42b4 	orr.w	r2, r2, #1509949440	; 0x5a000000
2000003c:	6042      	str	r2, [r0, #4]
2000003e:	6883      	ldr	r3, [r0, #8]
20000040:	9301      	str	r3, [sp, #4]
20000042:	9b01      	ldr	r3, [sp, #4]
20000044:	07db      	lsls	r3, r3, #31
20000046:	d5fa      	bpl.n	2000003e <efc_perform_read_sequence+0x32>
20000048:	6803      	ldr	r3, [r0, #0]
2000004a:	f423 3380 	bic.w	r3, r3, #65536	; 0x10000
2000004e:	6003      	str	r3, [r0, #0]
20000050:	2000      	movs	r0, #0
20000052:	b003      	add	sp, #12
20000054:	bd30      	pop	{r4, r5, pc}
20000056:	f854 5f04 	ldr.w	r5, [r4, #4]!
2000005a:	f843 5b04 	str.w	r5, [r3], #4
2000005e:	e7e8      	b.n	20000032 <efc_perform_read_sequence+0x26>
20000060:	2002      	movs	r0, #2
20000062:	e7f6      	b.n	20000052 <efc_perform_read_sequence+0x46>
20000064:	003ffffc 	.word	0x003ffffc

20000068 <efc_write_fmr>:
20000068:	6001      	str	r1, [r0, #0]
2000006a:	4770      	bx	lr

2000006c <efc_perform_fcr>:
2000006c:	b082      	sub	sp, #8
2000006e:	6041      	str	r1, [r0, #4]
20000070:	6883      	ldr	r3, [r0, #8]
20000072:	9301      	str	r3, [sp, #4]
20000074:	9b01      	ldr	r3, [sp, #4]
20000076:	07db      	lsls	r3, r3, #31
20000078:	d5fa      	bpl.n	20000070 <efc_perform_fcr+0x4>
2000007a:	9801      	ldr	r0, [sp, #4]
2000007c:	f000 000e 	and.w	r0, r0, #14
20000080:	b002      	add	sp, #8
20000082:	4770      	bx	lr

20000084 <uxCriticalNesting>:
20000084:	aaaa aaaa                                   ....

20000088 <xFreeBytesRemaining>:
20000088:	2bf8 0001                                   .+..

2000008c <xNextTaskUnblockTime>:
2000008c:	ffff ffff                                   ....

20000090 <g_interrupt_enabled>:
20000090:	0001 0000                                   ....

20000094 <SystemCoreClock>:
20000094:	1200 007a                                   ..z.

20000098 <_impure_ptr>:
20000098:	00a0 2000 0000 0000                         ... ....

200000a0 <impure_data>:
200000a0:	0000 0000 038c 2000 03f4 2000 045c 2000     ....... ... \.. 
	...
20000148:	0001 0000 0000 0000 330e abcd 1234 e66d     .........3..4.m.
20000158:	deec 0005 000b 0000 0000 0000 0000 0000     ................
	...

200004c8 <__atexit_recursive_mutex>:
200004c8:	b898 2001                                   ... 

200004cc <__global_locale>:
200004cc:	0043 0000 0000 0000 0000 0000 0000 0000     C...............
	...
200004ec:	0043 0000 0000 0000 0000 0000 0000 0000     C...............
	...
2000050c:	0043 0000 0000 0000 0000 0000 0000 0000     C...............
	...
2000052c:	0043 0000 0000 0000 0000 0000 0000 0000     C...............
	...
2000054c:	0043 0000 0000 0000 0000 0000 0000 0000     C...............
	...
2000056c:	0043 0000 0000 0000 0000 0000 0000 0000     C...............
	...
2000058c:	0043 0000 0000 0000 0000 0000 0000 0000     C...............
	...
200005ac:	64e1 0040 5d49 0040 0000 0000 6ba0 0040     .d@.I]@......k@.
200005bc:	6b9c 0040 6b50 0040 6b50 0040 6b50 0040     .k@.Pk@.Pk@.Pk@.
200005cc:	6b50 0040 6b50 0040 6b50 0040 6b50 0040     Pk@.Pk@.Pk@.Pk@.
200005dc:	6b50 0040 6b50 0040 ffff ffff ffff ffff     Pk@.Pk@.........
200005ec:	ffff ffff ffff 0000 0001 5341 4943 0049     ..........ASCII.
	...
20000614:	0000 5341 4943 0049 0000 0000 0000 0000     ..ASCII.........
	...

20000638 <__malloc_av_>:
	...
20000640:	0638 2000 0638 2000 0640 2000 0640 2000     8.. 8.. @.. @.. 
20000650:	0648 2000 0648 2000 0650 2000 0650 2000     H.. H.. P.. P.. 
20000660:	0658 2000 0658 2000 0660 2000 0660 2000     X.. X.. `.. `.. 
20000670:	0668 2000 0668 2000 0670 2000 0670 2000     h.. h.. p.. p.. 
20000680:	0678 2000 0678 2000 0680 2000 0680 2000     x.. x.. ... ... 
20000690:	0688 2000 0688 2000 0690 2000 0690 2000     ... ... ... ... 
200006a0:	0698 2000 0698 2000 06a0 2000 06a0 2000     ... ... ... ... 
200006b0:	06a8 2000 06a8 2000 06b0 2000 06b0 2000     ... ... ... ... 
200006c0:	06b8 2000 06b8 2000 06c0 2000 06c0 2000     ... ... ... ... 
200006d0:	06c8 2000 06c8 2000 06d0 2000 06d0 2000     ... ... ... ... 
200006e0:	06d8 2000 06d8 2000 06e0 2000 06e0 2000     ... ... ... ... 
200006f0:	06e8 2000 06e8 2000 06f0 2000 06f0 2000     ... ... ... ... 
20000700:	06f8 2000 06f8 2000 0700 2000 0700 2000     ... ... ... ... 
20000710:	0708 2000 0708 2000 0710 2000 0710 2000     ... ... ... ... 
20000720:	0718 2000 0718 2000 0720 2000 0720 2000     ... ...  ..  .. 
20000730:	0728 2000 0728 2000 0730 2000 0730 2000     (.. (.. 0.. 0.. 
20000740:	0738 2000 0738 2000 0740 2000 0740 2000     8.. 8.. @.. @.. 
20000750:	0748 2000 0748 2000 0750 2000 0750 2000     H.. H.. P.. P.. 
20000760:	0758 2000 0758 2000 0760 2000 0760 2000     X.. X.. `.. `.. 
20000770:	0768 2000 0768 2000 0770 2000 0770 2000     h.. h.. p.. p.. 
20000780:	0778 2000 0778 2000 0780 2000 0780 2000     x.. x.. ... ... 
20000790:	0788 2000 0788 2000 0790 2000 0790 2000     ... ... ... ... 
200007a0:	0798 2000 0798 2000 07a0 2000 07a0 2000     ... ... ... ... 
200007b0:	07a8 2000 07a8 2000 07b0 2000 07b0 2000     ... ... ... ... 
200007c0:	07b8 2000 07b8 2000 07c0 2000 07c0 2000     ... ... ... ... 
200007d0:	07c8 2000 07c8 2000 07d0 2000 07d0 2000     ... ... ... ... 
200007e0:	07d8 2000 07d8 2000 07e0 2000 07e0 2000     ... ... ... ... 
200007f0:	07e8 2000 07e8 2000 07f0 2000 07f0 2000     ... ... ... ... 
20000800:	07f8 2000 07f8 2000 0800 2000 0800 2000     ... ... ... ... 
20000810:	0808 2000 0808 2000 0810 2000 0810 2000     ... ... ... ... 
20000820:	0818 2000 0818 2000 0820 2000 0820 2000     ... ...  ..  .. 
20000830:	0828 2000 0828 2000 0830 2000 0830 2000     (.. (.. 0.. 0.. 
20000840:	0838 2000 0838 2000 0840 2000 0840 2000     8.. 8.. @.. @.. 
20000850:	0848 2000 0848 2000 0850 2000 0850 2000     H.. H.. P.. P.. 
20000860:	0858 2000 0858 2000 0860 2000 0860 2000     X.. X.. `.. `.. 
20000870:	0868 2000 0868 2000 0870 2000 0870 2000     h.. h.. p.. p.. 
20000880:	0878 2000 0878 2000 0880 2000 0880 2000     x.. x.. ... ... 
20000890:	0888 2000 0888 2000 0890 2000 0890 2000     ... ... ... ... 
200008a0:	0898 2000 0898 2000 08a0 2000 08a0 2000     ... ... ... ... 
200008b0:	08a8 2000 08a8 2000 08b0 2000 08b0 2000     ... ... ... ... 
200008c0:	08b8 2000 08b8 2000 08c0 2000 08c0 2000     ... ... ... ... 
200008d0:	08c8 2000 08c8 2000 08d0 2000 08d0 2000     ... ... ... ... 
200008e0:	08d8 2000 08d8 2000 08e0 2000 08e0 2000     ... ... ... ... 
200008f0:	08e8 2000 08e8 2000 08f0 2000 08f0 2000     ... ... ... ... 
20000900:	08f8 2000 08f8 2000 0900 2000 0900 2000     ... ... ... ... 
20000910:	0908 2000 0908 2000 0910 2000 0910 2000     ... ... ... ... 
20000920:	0918 2000 0918 2000 0920 2000 0920 2000     ... ...  ..  .. 
20000930:	0928 2000 0928 2000 0930 2000 0930 2000     (.. (.. 0.. 0.. 
20000940:	0938 2000 0938 2000 0940 2000 0940 2000     8.. 8.. @.. @.. 
20000950:	0948 2000 0948 2000 0950 2000 0950 2000     H.. H.. P.. P.. 
20000960:	0958 2000 0958 2000 0960 2000 0960 2000     X.. X.. `.. `.. 
20000970:	0968 2000 0968 2000 0970 2000 0970 2000     h.. h.. p.. p.. 
20000980:	0978 2000 0978 2000 0980 2000 0980 2000     x.. x.. ... ... 
20000990:	0988 2000 0988 2000 0990 2000 0990 2000     ... ... ... ... 
200009a0:	0998 2000 0998 2000 09a0 2000 09a0 2000     ... ... ... ... 
200009b0:	09a8 2000 09a8 2000 09b0 2000 09b0 2000     ... ... ... ... 
200009c0:	09b8 2000 09b8 2000 09c0 2000 09c0 2000     ... ... ... ... 
200009d0:	09c8 2000 09c8 2000 09d0 2000 09d0 2000     ... ... ... ... 
200009e0:	09d8 2000 09d8 2000 09e0 2000 09e0 2000     ... ... ... ... 
200009f0:	09e8 2000 09e8 2000 09f0 2000 09f0 2000     ... ... ... ... 
20000a00:	09f8 2000 09f8 2000 0a00 2000 0a00 2000     ... ... ... ... 
20000a10:	0a08 2000 0a08 2000 0a10 2000 0a10 2000     ... ... ... ... 
20000a20:	0a18 2000 0a18 2000 0a20 2000 0a20 2000     ... ...  ..  .. 
20000a30:	0a28 2000 0a28 2000 0a30 2000 0a30 2000     (.. (.. 0.. 0.. 

20000a40 <__malloc_sbrk_base>:
20000a40:	ffff ffff                                   ....

20000a44 <__malloc_trim_threshold>:
20000a44:	0000 0002                                   ....
